
 Start         Length     Name                   Class
 0001:00000000 000000024H LOAD                   DATA
 0003:00000000 000000024H NOTE                   DATA
 0004:00000000 0000003D4H .text.head             CODE
 0002:00000000 00000000CH LOAD                   CODE
 0005:00000000 000017C20H .init                  CODE
 0006:00000000 00023E89CH .text                  CODE
 0002:00000000 000000764H LOAD                   CODE
 0007:00000000 0000043D0H __ksymtab              CONST
 0008:00000000 000001B00H __ksymtab_gpl          CONST
 0009:00000000 00000C8BEH __ksymtab_strings      CONST
 0002:00000000 000000002H LOAD                   CODE
 000A:00000000 000000870H __param                CONST
 000B:00000000 00000FAC0H .ARM.unwind_idx        CONST
 000C:00000000 000001E0CH .ARM.unwind_tab        CONST
 0002:00000000 000000734H LOAD                   CODE
 000D:00000000 000016FA0H .data                  DATA
 000E:00000000 00001BB84H .bss                   BSS
 000F:00000000 000000000H .prgend                


  Address         Publics by Value

 0001:00000000       sub_0
 0004:C0008000       _stext
 0004:C0008034       __enable_mmu
 0004:C0008060       __turn_mmu_on
 0004:C0008078       __create_page_tables
 0004:C0008120       __switch_data
 0004:C0008148       __mmap_switched
 0004:C0008190       __error_p
 0004:C00081AC       str_p1
 0004:C00081E3       str_p2
 0004:C00081E8       __error_a
 0004:C0008254       str_a1
 0004:C0008289       str_a2
 0004:C00082B8       str_a3
 0004:C00082F0       __error
 0004:C00082F8       __lookup_processor_type
 0004:C0008330       lookup_processor_type
 0004:C0008358       __lookup_machine_type
 0004:C000838C       lookup_machine_type
 0004:C00083A0       __vet_atags
 0005:C00083E0       set_reset_devices
 0005:C00083F4       debug_kernel
 0005:C000840C       quiet_kernel
 0005:C0008424       init_setup
 0005:C0008458       rdinit_setup
 0005:C000848C       loglevel
 0005:C00084B4       do_early_param
 0005:C000855C       unknown_bootoption
 0005:C0008770       parse_early_options
 0005:C00087A0       parse_early_param
 0005:C00087DC       smp_setup_processor_id
 0005:C00087E0       thread_info_cache_init
 0005:C00087E4       start_kernel
 0005:C0008A80       kernel_init
 0005:C0008B80       rootwait_setup
 0005:C0008BA0       root_data_setup
 0005:C0008BB4       fs_names_setup
 0005:C0008BC8       load_ramdisk
 0005:C0008BF0       root_delay_setup
 0005:C0008C14       root_dev_setup
 0005:C0008C34       readonly
 0005:C0008C5C       readwrite
 0005:C0008C84       do_mount_root.part.2
 0005:C0008D0C       mount_block_root
 0005:C0008F0C       change_floppy
 0005:C0009004       mount_root
 0005:C0009110       prepare_namespace
 0005:C00092BC       prompt_ramdisk
 0005:C00092E4       ramdisk_start_setup
 0005:C0009308       error
 0005:C0009334       compr_fill
 0005:C000937C       compr_flush
 0005:C00093DC       rd_load_image
 0005:C0009914       rd_load_disk
 0005:C00099C8       no_initrd
 0005:C00099E0       do_linuxrc
 0005:C0009A5C       initrd_load
 0005:C0009D7C       error_0
 0005:C0009D94       read_into
 0005:C0009DF8       do_start
 0005:C0009E1C       do_skip
 0005:C0009E9C       write_buffer
 0005:C0009EE0       flush_buffer
 0005:C0009F80       retain_initrd_param
 0005:C0009FA0       clean_path
 0005:C0009FF4       do_utime
 0005:C000A02C       do_symlink
 0005:C000A0B4       do_copy
 0005:C000A178       do_collect
 0005:C000A1F8       do_header
 0005:C000A3D0       free_initrd
 0005:C000A414       do_reset
 0005:C000A498       unpack_to_rootfs
 0005:C000A704       populate_rootfs
 0005:C000A928       maybe_link.part.4
 0005:C000AA10       do_name
 0005:C000AC40       lpj_setup
 0005:C000AC80       convert_to_tag_list
 0005:C000ADE8       squash_mem_tags
 0005:C000AE20       __kuser_helper_start
 0005:C000AE40       __kuser_cmpxchg
 0005:C000AE60       __kuser_get_tls
 0005:C000AE7C       __kuser_helper_version
 0005:C000AE80       __kuser_helper_end
 0005:C000AF00       vector_dabt
 0005:C000AF80       vector_pabt
 0005:C000B000       vector_und
 0005:C000B080       vector_fiq
 0005:C000B084       vector_addrexcptn
 0005:C000B0A4       __vectors_start
 0005:C000B0C4       __vectors_end
 0005:C000B0FC       nohlt_setup
 0005:C000B110       hlt_setup
 0005:C000B128       reboot_setup
 0005:C000B140       ptrace_break_init
 0005:C000B164       fpe_setup
 0005:C000B184       parse_tag_videotext
 0005:C000B1F4       parse_tag_ramdisk
 0005:C000B250       parse_tag_serialnr
 0005:C000B270       parse_tag_revision
 0005:C000B288       customize_machine
 0005:C000B2AC       arm_add_memory
 0005:C000B32C       parse_tag_mem32
 0005:C000B33C       early_mem
 0005:C000B3A4       parse_tag_cmdline
 0005:C000B3C4       topology_init
 0005:C000B3E8       parse_tag_core
 0005:C000B434       setup_arch
 0005:C000BA88       timer_init_sysfs
 0005:C000BABC       time_init
 0005:C000BAE4       user_debug_setup
 0005:C000BB0C       trap_init
 0005:C000BB10       early_trap_init
 0005:C000BBE0       unwind_init
 0005:C000BC10       consistent_init
 0005:C000BCC4       hook_fault_code
 0005:C000BCE4       parse_tag_initrd2
 0005:C000BD04       keepinitrd_setup
 0005:C000BD18       early_initrd
 0005:C000BD60       parse_tag_initrd
 0005:C000BD98       find_node_limits.constprop.9
 0005:C000BE28       bootmem_init
 0005:C000C198       mem_init
 0005:C000C398       check_writebuffer_bugs
 0005:C000C4A0       noalign_setup
 0005:C000C4DC       early_ecc
 0005:C000C548       early_cachepolicy
 0005:C000C644       early_nocache
 0005:C000C674       early_nowrite
 0005:C000C6A4       early_vmalloc
 0005:C000C70C       create_mapping
 0005:C000CA70       iotable_init
 0005:C000CA9C       reserve_node_zero
 0005:C000CAE0       paging_init
 0005:C000D0E8       alignment_init
 0005:C000D1CC       v6_userpage_init
 0005:C000D204       v6wbi_tlb_fns
 0005:C000D210       __v6_setup
 0005:C000D24C       v6_crval
 0005:C000D254       v6_processor_functions
 0005:C000D278       cpu_arch_name
 0005:C000D27E       cpu_elf_name
 0005:C000D284       vic_pm_init
 0005:C000D31C       vic_init
 0005:C000D418       virtarm_init_irq
 0005:C000D41C       virtarm_timer_init
 0005:C000D420       virtarm_map_io
 0005:C000D430       virtarm_init
 0005:C000D43C       virtarm_init_early
 0005:C000D440       fpe_init
 0005:C000D4B8       sched_init_debug
 0005:C000D4C8       init_sched_debug_procfs
 0005:C000D508       sched_init_smp
 0005:C000D544       sched_init
 0005:C000D72C       coredump_filter_setup
 0005:C000D758       fork_init
 0005:C000D7E0       proc_caches_init
 0005:C000D8C8       proc_execdomains_init
 0005:C000D8FC       console_suspend_disable
 0005:C000D914       console_setup
 0005:C000D9DC       log_buf_len_setup
 0005:C000DAD0       ignore_loglevel_setup
 0005:C000DAF8       disable_boot_consoles
 0005:C000DB40       spawn_ksoftirqd
 0005:C000DB94       softirq_init
 0005:C000DBF4       arch_probe_nr_irqs
 0005:C000DBFC       arch_early_irq_init
 0005:C000DC04       ioresources_init
 0005:C000DC58       __reserve_region_with_split
 0005:C000DCF4       reserve_setup
 0005:C000DDC0       strict_iomem
 0005:C000DE10       reserve_region_with_split
 0005:C000DE14       sysctl_init
 0005:C000DE30       init_timers
 0005:C000DE6C       uid_cache_init
 0005:C000DF04       setup_print_fatal_signals
 0005:C000DF2C       signals_init
 0005:C000DF64       usermodehelper_init
 0005:C000DFB4       init_workqueues
 0005:C000E02C       pidhash_init
 0005:C000E0C8       pidmap_init
 0005:C000E14C       rcu_init
 0005:C000E150       sort_main_extable
 0005:C000E164       param_sysfs_init
 0005:C000E350       init_posix_timers
 0005:C000E444       init_posix_cpu_timers
 0005:C000E51C       hrtimers_init
 0005:C000E530       nsproxy_cache_init
 0005:C000E56C       ksysfs_init
 0005:C000E630       pm_qos_power_init
 0005:C000E6CC       cred_init
 0005:C000E700       async_init
 0005:C000E768       timekeeping_init_device
 0005:C000E790       timekeeping_init
 0005:C000E8B0       ntp_tick_adj_setup
 0005:C000E8DC       ntp_init
 0005:C000E90C       clocksource_done_booting
 0005:C000E924       boot_override_clocksource
 0005:C000E958       init_clocksource_sysfs
 0005:C000E9A8       boot_override_clock
 0005:C000E9F4       init_jiffies_clocksource
 0005:C000EA00       init_timer_list_procfs
 0005:C000EA38       tick_init
 0005:C000EA44       futex_init
 0005:C000EAA8       proc_modules_init
 0005:C000EADC       kallsyms_init
 0005:C000EB10       pm_init
 0005:C000EB50       nosoftlockup_setup
 0005:C000EB64       softlockup_panic_setup
 0005:C000EB88       spawn_softlockup_task
 0005:C000EBFC       hung_task_panic_setup
 0005:C000EC20       hung_task_init
 0005:C000EC74       early_irq_init
 0005:C000ECC8       irqfixup_setup
 0005:C000ECFC       irqpoll_setup
 0005:C000ED30       set_irq_noprobe
 0005:C000ED74       set_irq_probe
 0005:C000EDB8       rcu_init_one
 0005:C000EE34       __rcu_init
 0005:C000EEA8       utsname_sysctl_init
 0005:C000EEC0       bootmem_debug_setup
 0005:C000EED8       init_bootmem_core
 0005:C000EFC4       __free
 0005:C000F070       __reserve
 0005:C000F150       mark_bootmem_node
 0005:C000F21C       mark_bootmem
 0005:C000F320       alloc_arch_preferred_bootmem.isra.10
 0005:C000F374       ___alloc_bootmem.part.12
 0005:C000F394       alloc_bootmem_core
 0005:C000F67C       ___alloc_bootmem_nopanic
 0005:C000F748       ___alloc_bootmem_node.part.13
 0005:C000F798       bootmem_bootmap_pages
 0005:C000F7B8       free_all_bootmem_core.part.14
 0005:C000F998       init_bootmem_node
 0005:C000F9A0       init_bootmem
 0005:C000F9D0       free_all_bootmem_node
 0005:C000F9EC       free_all_bootmem
 0005:C000FA10       free_bootmem_node
 0005:C000FA40       free_bootmem
 0005:C000FA60       reserve_bootmem_node
 0005:C000FA90       reserve_bootmem
 0005:C000FAB0       __alloc_bootmem_nopanic
 0005:C000FAB8       __alloc_bootmem
 0005:C000FAD8       __alloc_bootmem_node
 0005:C000FB70       __alloc_bootmem_node_nopanic
 0005:C000FC20       __alloc_bootmem_low
 0005:C000FC40       __alloc_bootmem_low_node
 0005:C000FCDC       set_dma_reserve
 0005:C000FCEC       page_alloc_init
 0005:C000FCF0       alloc_large_system_hash
 0005:C000FEBC       free_area_init_node
 0005:C00101C8       free_area_init
 0005:C00101DC       init_per_zone_wmark_min
 0005:C0010244       page_writeback_init
 0005:C00102A8       pdflush_init
 0005:C00102CC       swap_setup
 0005:C001030C       kswapd_init
 0005:C0010324       init_tmpfs
 0005:C00103EC       setup_vmstat
 0005:C0010478       bdi_class_init
 0005:C00104B0       default_bdi_init
 0005:C00104E4       set_mminit_loglevel
 0005:C001050C       mm_sysfs_init
 0005:C0010544       mminit_verify_pageflags_layout
 0005:C0010650       disable_randmaps
 0005:C0010668       mmap_init
 0005:C0010680       anon_vma_init
 0005:C00106BC       proc_vmalloc_init
 0005:C00106F0       vm_area_register_early
 0005:C0010768       vmalloc_init
 0005:C00107F4       max_swapfiles_check
 0005:C00107FC       procswaps_init
 0005:C0010830       noaliencache_setup
 0005:C0010848       set_up_list3s
 0005:C0010888       slab_proc_init
 0005:C00108BC       cpucache_init
 0005:C0010930       kmem_cache_init
 0005:C0010C3C       kmem_cache_init_late
 0005:C0010CC0       files_init
 0005:C0010D2C       chrdev_init
 0005:C0010D60       init_pipe_fs
 0005:C0010DAC       fasync_init
 0005:C0010DE8       set_dhash_entries
 0005:C0010E20       vfs_caches_init_early
 0005:C0010EAC       vfs_caches_init
 0005:C0010FC0       set_ihash_entries
 0005:C0010FF8       inode_init_early
 0005:C0011078       inode_init
 0005:C0011130       files_defer_init
 0005:C0011170       proc_filesystems_init
 0005:C00111A4       get_filesystem_list
 0005:C0011228       mnt_init
 0005:C00113B4       buffer_init
 0005:C001140C       init_bio
 0005:C00114FC       bdev_cache_init
 0005:C001157C       fsnotify_init
 0005:C0011588       fsnotify_notification_init
 0005:C001163C       dnotify_init
 0005:C00116C4       inotify_user_setup
 0005:C001177C       eventpoll_init
 0005:C0011820       anon_inode_init
 0005:C0011934       aio_setup
 0005:C00119B4       proc_locks_init
 0005:C00119E8       filelock_init
 0005:C0011A28       init_script_binfmt
 0005:C0011A38       init_elf_binfmt
 0005:C0011A48       proc_init_inodecache
 0005:C0011A84       proc_root_init
 0005:C0011B48       proc_tty_init
 0005:C0011BE4       proc_cmdline_init
 0005:C0011C18       proc_cpuinfo_init
 0005:C0011C4C       proc_devices_init
 0005:C0011C80       proc_interrupts_init
 0005:C0011CB4       proc_loadavg_init
 0005:C0011CE8       proc_meminfo_init
 0005:C0011D1C       proc_stat_init
 0005:C0011D50       proc_uptime_init
 0005:C0011D84       proc_version_init
 0005:C0011DB8       proc_softirqs_init
 0005:C0011DEC       proc_sys_init
 0005:C0011E28       proc_net_ns_init
 0005:C0011EC0       proc_net_init
 0005:C0011EEC       proc_kmsg_init
 0005:C0011F20       proc_page_init
 0005:C0011F74       sysfs_inode_init
 0005:C0011F80       sysfs_init
 0005:C001202C       init_devpts_fs
 0005:C0012078       init_ext2_fs
 0005:C00120E0       init_cramfs_fs
 0005:C0012110       init_ramfs_fs
 0005:C001211C       init_rootfs
 0005:C0012158       init_minix_fs
 0005:C00121C0       nfs_fs_proc_init
 0005:C0012268       init_nfs_fs
 0005:C001238C       register_nfs_fs
 0005:C00123D4       nfs_init_directcache
 0005:C0012414       nfs_init_nfspagecache
 0005:C0012454       nfs_init_readpagecache
 0005:C00124C8       nfs_init_writepagecache
 0005:C0012580       nfs_root_setup
 0005:C001260C       root_nfs_getport
 0005:C0012674       root_nfs_parse.constprop.1
 0005:C0012960       nfs_root_data
 0005:C0012C40       init_nfsd
 0005:C0012D04       init_nlm
 0005:C0012D30       jffs2_compressors_init
 0005:C0012D44       jffs2_create_slab_caches
 0005:C0012E84       init_jffs2_fs
 0005:C0012F58       jffs2_zlib_init
 0005:C0012FEC       init_romfs_fs
 0005:C001307C       ipc_init
 0005:C00130A0       ipc_init_proc_interface
 0005:C0013118       msg_init
 0005:C0013160       sem_init
 0005:C0013194       shm_init
 0005:C00131C8       ipc_sysctl_init
 0005:C00131E0       init_mmap_min_addr
 0005:C0013200       elevator_setup
 0005:C0013248       blk_dev_init
 0005:C00132DC       blk_settings_init
 0005:C0013314       blk_ioc_init
 0005:C0013350       blk_softirq_init
 0005:C001337C       genhd_device_init
 0005:C00133FC       proc_genhd_init
 0005:C0013450       printk_all_partitions
 0005:C00135F8       blk_scsi_ioctl_init
 0005:C00136D4       bsg_init
 0005:C0013804       noop_init
 0005:C001381C       as_init
 0005:C0013834       deadline_init
 0005:C001384C       cfq_init
 0005:C00138F8       get_bits
 0005:C00139EC       get_next_block
 0005:C0014144       nofill
 0005:C001414C       bunzip2
 0005:C00144E0       gunzip
 0005:C00147F0       rc_read
 0005:C0014844       rc_do_normalize
 0005:C001488C       rc_get_bit
 0005:C0014928       unlzma
 0005:C00155F8       idr_init_cache
 0005:C001562C       kobject_uevent_init
 0005:C0015694       prio_tree_init
 0005:C00156D0       radix_tree_init
 0005:C0015744       random32_reseed
 0005:C001579C       random32_init
 0005:C001580C       fbmem_init
 0005:C00158A8       video_setup
 0005:C0015948       chr_dev_init
 0005:C00159F4       seqgen_init
 0005:C0015A08       tty_class_init
 0005:C0015A38       tty_init
 0005:C0015B3C       console_init
 0005:C0015B6C       pty_init
 0005:C0015F38       misc_init
 0005:C0015FE8       vcs_init
 0005:C0016088       kbd_init
 0005:C0016170       console_map_init
 0005:C00161C0       vtconsole_class_init
 0005:C0016298       con_init
 0005:C00164F8       vty_init
 0005:C0016654       sysrq_always_enabled_setup
 0005:C001667C       sysrq_init
 0005:C00166B0       devices_init
 0005:C001675C       system_bus_init
 0005:C001679C       buses_init
 0005:C00167D4       classes_init
 0005:C0016808       early_platform_driver_register
 0005:C00168FC       early_platform_add_devices
 0005:C0016948       early_platform_driver_register_all
 0005:C001694C       early_platform_driver_probe
 0005:C0016B50       early_platform_cleanup
 0005:C0016BBC       platform_bus_init
 0005:C0016BFC       cpu_dev_init
 0005:C0016C48       firmware_init
 0005:C0016C78       driver_init
 0005:C0016C9C       firmware_class_init
 0005:C0016D08       ramdisk_size
 0005:C0016D2C       brd_init
 0005:C0016EC4       probe_list2
 0005:C0016F24       net_olddevs_init
 0005:C0016FE4       loopback_net_init
 0005:C0017058       smc_init
 0005:C0017064       init_mtd
 0005:C00170D0       cmdline_parser_init
 0005:C00170DC       init_mtdchar
 0005:C0017118       init_mtdblock
 0005:C0017148       cfi_probe_init
 0005:C0017160       armflash_init
 0005:C001716C       serio_init
 0005:C00171F8       input_init
 0005:C001733C       mousedev_init
 0005:C00173C4       atkbd_init
 0005:C00173DC       psmouse_init
 0005:C0017460       i2c_register_board_info
 0005:C0017520       i2c_init
 0005:C0017580       mmc_init
 0005:C0017600       mmc_blk_init
 0005:C0017644       hid_init
 0005:C0017670       init_soundcore
 0005:C00176F4       sock_init
 0005:C0017760       proto_init
 0005:C001776C       proto_init_net
 0005:C0017798       sk_init
 0005:C00177EC       skb_init
 0005:C0017844       net_ns_init
 0005:C001796C       sysctl_core_init
 0005:C00179A4       sysctl_core_net_init
 0005:C0017A34       netdev_boot_setup
 0005:C0017B1C       netdev_init
 0005:C0017B68       dev_proc_net_init
 0005:C0017C00       initialize_hashrnd
 0005:C0017C1C       net_dev_init
 0005:C0017D54       dev_mc_net_init
 0005:C0017D80       dev_mcast_init
 0005:C0017D8C       dst_init
 0005:C0017D98       neigh_init
 0005:C0017E1C       rtnetlink_init
 0005:C0017F3C       flow_cache_init
 0005:C0018040       netlink_net_init
 0005:C001806C       netlink_proto_init
 0005:C00181C4       genl_init
 0005:C00182A4       set_rhash_entries
 0005:C00182DC       rt_secret_timer_init
 0005:C0018384       sysctl_route_net_init
 0005:C0018408       ip_rt_do_proc_init
 0005:C0018474       ip_rt_init
 0005:C0018610       ip_static_sysctl_init
 0005:C0018624       inet_initpeers
 0005:C00186D0       ipfrag_init
 0005:C001875C       ip_init
 0005:C0018770       set_thash_entries
 0005:C00187A8       tcp_init
 0005:C0018A44       tcp_sk_init
 0005:C0018A68       tcp4_proc_init
 0005:C0018A74       tcp_v4_init
 0005:C0018AA4       tcp_congestion_default
 0005:C0018AB0       raw_init_net
 0005:C0018ADC       raw_proc_init
 0005:C0018AE8       raw_proc_exit
 0005:C0018AF4       udp4_proc_init
 0005:C0018B00       udp_table_init
 0005:C0018B20       udp_init
 0005:C0018B8C       udplite4_register
 0005:C0018C18       arp_net_init
 0005:C0018C44       arp_init
 0005:C0018CA0       icmp_sk_init
 0005:C0018D64       icmp_init
 0005:C0018D70       devinet_init_net
 0005:C0018EE0       devinet_init
 0005:C0018F58       ipv4_mib_init_net
 0005:C0019088       inet_init
 0005:C0019274       igmp_mc_proc_init
 0005:C0019280       fib_net_init
 0005:C00193AC       ip_fib_init
 0005:C0019420       sysctl_ipv4_init
 0005:C0019460       ipv4_sysctl_init_net
 0005:C0019520       fib_hash_init
 0005:C0019578       fib_proc_init
 0005:C00195A4       ip_proc_init_net
 0005:C001963C       ip_misc_proc_init
 0005:C0019648       xfrm4_beet_init
 0005:C0019658       xfrm4_transport_init
 0005:C0019668       xfrm4_mode_tunnel_init
 0005:C0019678       ic_close_devs
 0005:C00196CC       ic_proto_name
 0005:C0019794       ic_bootp_string
 0005:C00197D8       ic_bootp_recv
 0005:C0019C6C       ip_auto_config_setup
 0005:C0019E6C       nfsaddrs_config_setup
 0005:C0019E70       vendor_class_identifier_setup
 0005:C0019EA8       ic_devinet_ioctl.constprop.10
 0005:C0019F1C       root_nfs_parse_addr
 0005:C0019FEC       ip_auto_config
 0005:C001AC74       cubictcp_register
 0005:C001ACD4       xfrm4_init
 0005:C001ACEC       xfrm4_state_init
 0005:C001ACF8       xfrm_net_init
 0005:C001AE34       xfrm_init
 0005:C001AE4C       xfrm_state_init
 0005:C001AF20       xfrm_input_init
 0005:C001AF54       xfrm_sysctl_init
 0005:C001AFF0       af_unix_init
 0005:C001B044       packet_init
 0005:C001B08C       rpcauth_init_module
 0005:C001B0A8       rpc_init_authunix
 0005:C001B0AC       rpc_init_generic_auth
 0005:C001B0B0       init_sunrpc
 0005:C001B108       sysctl_init_0
 0005:C001B154       calibrate_delay
 0005:C001B2A4       init_idle_bootup_task
 0005:C001B2BC       init_idle
 0005:C001B398       idle_regs
 0005:C001B3B0       fork_idle
 0005:C001B408       cpu_callback
 0005:C001B4A8       init_timers_cpu
 0005:C001B5DC       timer_cpu_notify
 0005:C001B618       hrtimer_cpu_notify
 0005:C001B640       cpu_callback_0
 0005:C001B6FC       rcu_init_percpu_data
 0005:C001B7B8       rcu_online_cpu
 0005:C001B7F0       rcu_cpu_notify
 0005:C001B814       register_cpu
 0005:C001B850       init_currently_empty_zone
 0005:C001B924       __free_pages_bootmem
 0005:C001B9D8       memmap_init_zone
 0005:C001BAFC       mminit_verify_page_links
 0005:C001BB58       _einittext
 0005:C001BB8C       __arch_info_begin
 0005:C001BBC0       __tagtable_begin
 0005:C001BBC8       __tagtable_parse_tag_revision
 0005:C001BBD0       __tagtable_parse_tag_serialnr
 0005:C001BBD8       __tagtable_parse_tag_ramdisk
 0005:C001BBE0       __tagtable_parse_tag_videotext
 0005:C001BBE8       __tagtable_parse_tag_mem32
 0005:C001BBF0       __tagtable_parse_tag_core
 0005:C001BBF8       __tagtable_parse_tag_initrd2
 0005:C001BC00       __tagtable_parse_tag_initrd
 0005:C001BC08       __tagtable_end
 0005:C001BC10       __setup_start
 0005:C001BC1C       __setup_init_setup
 0005:C001BC28       __setup_loglevel
 0005:C001BC34       __setup_quiet_kernel
 0005:C001BC40       __setup_debug_kernel
 0005:C001BC4C       __setup_set_reset_devices
 0005:C001BC58       __setup_root_delay_setup
 0005:C001BC64       __setup_fs_names_setup
 0005:C001BC70       __setup_root_data_setup
 0005:C001BC7C       __setup_rootwait_setup
 0005:C001BC88       __setup_root_dev_setup
 0005:C001BC94       __setup_readwrite
 0005:C001BCA0       __setup_readonly
 0005:C001BCAC       __setup_load_ramdisk
 0005:C001BCB8       __setup_ramdisk_start_setup
 0005:C001BCC4       __setup_prompt_ramdisk
 0005:C001BCD0       __setup_no_initrd
 0005:C001BCDC       __setup_retain_initrd_param
 0005:C001BCE8       __setup_lpj_setup
 0005:C001BCF4       __setup_reboot_setup
 0005:C001BD00       __setup_hlt_setup
 0005:C001BD0C       __setup_nohlt_setup
 0005:C001BD18       __setup_fpe_setup
 0005:C001BD24       __setup_user_debug_setup
 0005:C001BD30       __setup_keepinitrd_setup
 0005:C001BD3C       __setup_noalign_setup
 0005:C001BD48       __setup_coredump_filter_setup
 0005:C001BD54       __setup_console_suspend_disable
 0005:C001BD60       __setup_console_setup
 0005:C001BD6C       __setup_ignore_loglevel_setup
 0005:C001BD78       __setup_log_buf_len_setup
 0005:C001BD84       __setup_strict_iomem
 0005:C001BD90       __setup_reserve_setup
 0005:C001BD9C       __setup_setup_print_fatal_signals
 0005:C001BDA8       __setup_ntp_tick_adj_setup
 0005:C001BDB4       __setup_boot_override_clock
 0005:C001BDC0       __setup_boot_override_clocksource
 0005:C001BDCC       __setup_nosoftlockup_setup
 0005:C001BDD8       __setup_softlockup_panic_setup
 0005:C001BDE4       __setup_hung_task_panic_setup
 0005:C001BDF0       __setup_irqpoll_setup
 0005:C001BDFC       __setup_irqfixup_setup
 0005:C001BE08       __setup_noirqdebug_setup
 0005:C001BE14       __setup_bootmem_debug_setup
 0005:C001BE20       __setup_set_mminit_loglevel
 0005:C001BE2C       __setup_disable_randmaps
 0005:C001BE38       __setup_noaliencache_setup
 0005:C001BE44       __setup_set_dhash_entries
 0005:C001BE50       __setup_set_ihash_entries
 0005:C001BE5C       __setup_nfs_root_setup
 0005:C001BE68       __setup_elevator_setup
 0005:C001BE74       __setup_video_setup
 0005:C001BE80       __setup_sysrq_always_enabled_setup
 0005:C001BE8C       __setup_ramdisk_size
 0005:C001BE98       __setup_mtdpart_setup
 0005:C001BEA4       __setup_netdev_boot_setup
 0005:C001BEB0       __setup_netdev_boot_setup_0
 0005:C001BEBC       __setup_set_rhash_entries
 0005:C001BEC8       __setup_set_thash_entries
 0005:C001BED4       __setup_vendor_class_identifier_setup
 0005:C001BEE0       __setup_nfsaddrs_config_setup
 0005:C001BEEC       __setup_ip_auto_config_setup
 0005:C001BEF8       __setup_end
 0005:C001BF00       __early_early_initrd
 0005:C001BF08       __early_early_vmalloc
 0005:C001BF10       __early_early_ecc
 0005:C001BF18       __early_early_nowrite
 0005:C001BF20       __early_early_nocache
 0005:C001BF28       __early_early_cachepolicy
 0005:C001BF30       __early_end
 0005:C001BF34       __initcall_spawn_softlockup_taskearly
 0005:C001BF38       __early_initcall_end
 0005:C001BF3C       __initcall_net_ns_init0
 0005:C001BF40       __initcall_ptrace_break_init1
 0005:C001BF44       __initcall_consistent_init1
 0005:C001BF48       __initcall_v6_userpage_init1
 0005:C001BF4C       __initcall_sysctl_init1
 0005:C001BF50       __initcall_ksysfs_init1
 0005:C001BF54       __initcall_async_init1
 0005:C001BF58       __initcall_init_jiffies_clocksource1
 0005:C001BF5C       __initcall_pm_init1
 0005:C001BF60       __initcall_filelock_init1
 0005:C001BF64       __initcall_init_script_binfmt1
 0005:C001BF68       __initcall_init_elf_binfmt1
 0005:C001BF6C       __initcall_random32_init1
 0005:C001BF70       __initcall_sock_init1
 0005:C001BF74       __initcall_netlink_proto_init1
 0005:C001BF78       __initcall_bdi_class_init2
 0005:C001BF7C       __initcall_kobject_uevent_init2
 0005:C001BF80       __initcall_tty_class_init2
 0005:C001BF84       __initcall_vtconsole_class_init2
 0005:C001BF88       __initcall_i2c_init2
 0005:C001BF8C       __initcall_customize_machine3
 0005:C001BF90       __initcall_topology_init4
 0005:C001BF94       __initcall_param_sysfs_init4
 0005:C001BF98       __initcall_pm_sysrq_init4
 0005:C001BF9C       __initcall_default_bdi_init4
 0005:C001BFA0       __initcall_init_bio4
 0005:C001BFA4       __initcall_fsnotify_init4
 0005:C001BFA8       __initcall_fsnotify_notification_init4
 0005:C001BFAC       __initcall_blk_settings_init4
 0005:C001BFB0       __initcall_blk_ioc_init4
 0005:C001BFB4       __initcall_blk_softirq_init4
 0005:C001BFB8       __initcall_genhd_device_init4
 0005:C001BFBC       __initcall_fbmem_init4
 0005:C001BFC0       __initcall_misc_init4
 0005:C001BFC4       __initcall_serio_init4
 0005:C001BFC8       __initcall_input_init4
 0005:C001BFCC       __initcall_mmc_init4
 0005:C001BFD0       __initcall_proto_init4
 0005:C001BFD4       __initcall_net_dev_init4
 0005:C001BFD8       __initcall_neigh_init4
 0005:C001BFDC       __initcall_genl_init4
 0005:C001BFE0       __initcall_sysctl_init4
 0005:C001BFE4       __initcall_alignment_init5
 0005:C001BFE8       __initcall_clocksource_done_booting5
 0005:C001BFEC       __initcall_init_pipe_fs5
 0005:C001BFF0       __initcall_eventpoll_init5
 0005:C001BFF4       __initcall_anon_inode_init5
 0005:C001BFF8       __initcall_blk_scsi_ioctl_init5
 0005:C001BFFC       __initcall_chr_dev_init5
 0005:C001C000       __initcall_firmware_class_init5
 0005:C001C004       __initcall_sysctl_core_init5
 0005:C001C008       __initcall_inet_init5
 0005:C001C00C       __initcall_af_unix_init5
 0005:C001C010       __initcall_populate_rootfsrootfs
 0005:C001C014       __initcall_timer_init_sysfs6
 0005:C001C018       __initcall_fpe_init6
 0005:C001C01C       __initcall_init_sched_debug_procfs6
 0005:C001C020       __initcall_proc_execdomains_init6
 0005:C001C024       __initcall_ioresources_init6
 0005:C001C028       __initcall_uid_cache_init6
 0005:C001C02C       __initcall_init_posix_timers6
 0005:C001C030       __initcall_init_posix_cpu_timers6
 0005:C001C034       __initcall_nsproxy_cache_init6
 0005:C001C038       __initcall_timekeeping_init_device6
 0005:C001C03C       __initcall_init_clocksource_sysfs6
 0005:C001C040       __initcall_init_timer_list_procfs6
 0005:C001C044       __initcall_futex_init6
 0005:C001C048       __initcall_proc_modules_init6
 0005:C001C04C       __initcall_kallsyms_init6
 0005:C001C050       __initcall_hung_task_init6
 0005:C001C054       __initcall_utsname_sysctl_init6
 0005:C001C058       __initcall_init_per_zone_wmark_min6
 0005:C001C05C       __initcall_pdflush_init6
 0005:C001C060       __initcall_kswapd_init6
 0005:C001C064       __initcall_init_tmpfs6
 0005:C001C068       __initcall_setup_vmstat6
 0005:C001C06C       __initcall_mm_sysfs_init6
 0005:C001C070       __initcall_proc_vmalloc_init6
 0005:C001C074       __initcall_procswaps_init6
 0005:C001C078       __initcall_slab_proc_init6
 0005:C001C07C       __initcall_cpucache_init6
 0005:C001C080       __initcall_fasync_init6
 0005:C001C084       __initcall_proc_filesystems_init6
 0005:C001C088       __initcall_dnotify_init6
 0005:C001C08C       __initcall_inotify_user_setup6
 0005:C001C090       __initcall_aio_setup6
 0005:C001C094       __initcall_proc_locks_init6
 0005:C001C098       __initcall_proc_cmdline_init6
 0005:C001C09C       __initcall_proc_cpuinfo_init6
 0005:C001C0A0       __initcall_proc_devices_init6
 0005:C001C0A4       __initcall_proc_interrupts_init6
 0005:C001C0A8       __initcall_proc_loadavg_init6
 0005:C001C0AC       __initcall_proc_meminfo_init6
 0005:C001C0B0       __initcall_proc_stat_init6
 0005:C001C0B4       __initcall_proc_uptime_init6
 0005:C001C0B8       __initcall_proc_version_init6
 0005:C001C0BC       __initcall_proc_softirqs_init6
 0005:C001C0C0       __initcall_proc_kmsg_init6
 0005:C001C0C4       __initcall_proc_page_init6
 0005:C001C0C8       __initcall_init_devpts_fs6
 0005:C001C0CC       __initcall_init_ext2_fs6
 0005:C001C0D0       __initcall_init_cramfs_fs6
 0005:C001C0D4       __initcall_init_ramfs_fs6
 0005:C001C0D8       __initcall_init_minix_fs6
 0005:C001C0DC       __initcall_init_nfs_fs6
 0005:C001C0E0       __initcall_init_nfsd6
 0005:C001C0E4       __initcall_init_nlm6
 0005:C001C0E8       __initcall_init_jffs2_fs6
 0005:C001C0EC       __initcall_init_romfs_fs6
 0005:C001C0F0       __initcall_ipc_init6
 0005:C001C0F4       __initcall_ipc_sysctl_init6
 0005:C001C0F8       __initcall_proc_genhd_init6
 0005:C001C0FC       __initcall_bsg_init6
 0005:C001C100       __initcall_noop_init6
 0005:C001C104       __initcall_as_init6
 0005:C001C108       __initcall_deadline_init6
 0005:C001C10C       __initcall_cfq_init6
 0005:C001C110       __initcall_rand_initialize6
 0005:C001C114       __initcall_tty_init6
 0005:C001C118       __initcall_pty_init6
 0005:C001C11C       __initcall_sysrq_init6
 0005:C001C120       __initcall_brd_init6
 0005:C001C124       __initcall_net_olddevs_init6
 0005:C001C128       __initcall_smc_init6
 0005:C001C12C       __initcall_init_mtd6
 0005:C001C130       __initcall_cmdline_parser_init6
 0005:C001C134       __initcall_init_mtdchar6
 0005:C001C138       __initcall_init_mtdblock6
 0005:C001C13C       __initcall_cfi_probe_init6
 0005:C001C140       __initcall_armflash_init6
 0005:C001C144       __initcall_mousedev_init6
 0005:C001C148       __initcall_atkbd_init6
 0005:C001C14C       __initcall_psmouse_init6
 0005:C001C150       __initcall_mmc_blk_init6
 0005:C001C154       __initcall_hid_init6
 0005:C001C158       __initcall_init_soundcore6
 0005:C001C15C       __initcall_flow_cache_init6
 0005:C001C160       __initcall_sysctl_ipv4_init6
 0005:C001C164       __initcall_xfrm4_beet_init6
 0005:C001C168       __initcall_xfrm4_transport_init6
 0005:C001C16C       __initcall_xfrm4_mode_tunnel_init6
 0005:C001C170       __initcall_cubictcp_register6
 0005:C001C174       __initcall_packet_init6
 0005:C001C178       __initcall_init_sunrpc6
 0005:C001C17C       __initcall_vic_pm_init7
 0005:C001C180       __initcall_sched_init_debug7
 0005:C001C184       __initcall_init_oops_id7
 0005:C001C188       __initcall_disable_boot_consoles7
 0005:C001C18C       __initcall_pm_qos_power_init7
 0005:C001C190       __initcall_max_swapfiles_check7
 0005:C001C194       __initcall_random32_reseed7
 0005:C001C198       __initcall_seqgen_init7
 0005:C001C19C       __initcall_tcp_congestion_default7
 0005:C001C1A0       __initcall_ip_auto_config7
 0005:C001C1A4       __initcall_initialize_hashrnd7s
 0005:C001C1A8       __con_initcall_start
 0005:C001C1AC       __security_initcall_end
 0005:C001C1C0       __initramfs_start
 0005:C001C234       a070701000002d2
 0005:C001C2B0       a070701000002d3
 0005:C001C324       a07070100000000
 0005:C001C3C0       __initramfs_end
 0005:C001D000       __per_cpu_start
 0005:C001D004       tmp_cmdline.28884
 0005:C001D404       boot_command_line
 0005:C001D804       late_time_init
 0005:C001D808       root_wait
 0005:C001D80C       root_mount_data
 0005:C001D810       root_fs_names
 0005:C001D814       rd_doload
 0005:C001D818       root_delay
 0005:C001D81C       saved_root_name
 0005:C001D85C       root_device_name
 0005:C001D860       rd_prompt
 0005:C001D864       rd_image_start
 0005:C001D868       mount_initrd
 0005:C001D86C       old_fd
 0005:C001D870       root_fd
 0005:C001D878       message
 0005:C001D87C       count
 0005:C001D880       victim
 0005:C001D884       collected
 0005:C001D888       this_header
 0005:C001D890       state
 0005:C001D894       collect
 0005:C001D898       remains
 0005:C001D89C       next_state
 0005:C001D8A0       header_buf
 0005:C001D8A8       next_header
 0005:C001D8B0       actions
 0005:C001D8D0       do_retain_initrd
 0005:C001D8D4       body_len
 0005:C001D8D8       name_len
 0005:C001D8DC       uid
 0005:C001D8E0       gid
 0005:C001D8E4       mtime
 0005:C001D8E8       wfd
 0005:C001D8EC       vcollected
 0005:C001D8F0       ino
 0005:C001D8F4       mode
 0005:C001D8F8       nlink
 0005:C001D8FC       major
 0005:C001D900       minor
 0005:C001D904       rdev
 0005:C001D908       symlink_buf
 0005:C001D90C       name_buf
 0005:C001D910       msg_buf.14180
 0005:C001D950       dir_list
 0005:C001D958       head
 0005:C001D9D8       init_arch_irq
 0005:C001D9DC       init_machine
 0005:C001D9E0       usermem.19106
 0005:C001D9E4       default_command_line
 0005:C001DDE4       init_tags
 0005:C001DE10       command_line
 0005:C001E210       endian_test
 0005:C001E214       __atags_pointer
 0005:C001E218       phys_initrd_start
 0005:C001E21C       phys_initrd_size
 0005:C001E220       ecc_mask
 0005:C001E224       cache_policies
 0005:C001E240       aBuffered
 0005:C001E278       aWriteback
 0005:C001E2B0       cachepolicy
 0005:C001E2B4       vmalloc_reserve
 0005:C001E2B8       v6_cache_fns
 0005:C001E2DC       v6_user_fns
 0005:C001E2E4       picoxcell_io_desc
 0005:C001E304       nosoftlockup
 0005:C001E308       bdata_list
 0005:C001E310       bootmem_node_data
 0005:C001E32C       vm_init_off.18755
 0005:C001E330       initkmem_list3
 0005:C001E3CC       initarray_cache
 0005:C001E3E0       cache_names
 0005:C001E488       dhash_entries
 0005:C001E48C       ihash_entries
 0005:C001E490       proc_net_ns_ops
 0005:C001E4A0       nfs_root_name
 0005:C001E5A0       servaddr
 0005:C001E5A4       buf.22179
 0005:C001E9A4       nfs_port
 0005:C001E9A8       nfs_data
 0005:C001EC58       nfs_export_path
 0005:C001F058       mount_port
 0005:C001F05C       early_platform_driver_list
 0005:C001F064       early_platform_device_list
 0005:C001F06C       m68k_probes
 0005:C001F074       eisa_probes
 0005:C001F07C       mca_probes
 0005:C001F084       isa_probes
 0005:C001F08C       parport_probes
 0005:C001F094       loopback_net_ops
 0005:C001F0A4       input_abs_bypass_init_data
 0005:C001F0D0       proto_net_ops
 0005:C001F0E0       net_core_path
 0005:C001F0F8       sysctl_core_ops
 0005:C001F108       dev_proc_ops
 0005:C001F118       netdev_net_ops
 0005:C001F128       default_device_ops
 0005:C001F138       dev_mc_net_ops
 0005:C001F148       netlink_net_ops
 0005:C001F158       rhash_entries
 0005:C001F15C       ipv4_route_path
 0005:C001F17C       rt_secret_timer_ops
 0005:C001F18C       ip_rt_proc_ops
 0005:C001F19C       sysctl_route_ops
 0005:C001F1AC       ipv4_path
 0005:C001F1C4       thash_entries
 0005:C001F1C8       tcp_sk_ops
 0005:C001F1D8       raw_net_ops
 0005:C001F1E8       icmp_sk_ops
 0005:C001F1F8       net_ipv4_path
 0005:C001F210       devinet_ops
 0005:C001F220       ipv4_mib_ops
 0005:C001F230       ipv4_sysctl_ops
 0005:C001F240       ip_proc_ops
 0005:C001F250       ic_first_dev
 0005:C001F254       ic_dev
 0005:C001F258       ic_proto_enabled
 0005:C001F25C       ic_got_reply
 0005:C001F260       ic_host_name_set
 0005:C001F264       ic_dev_mtu
 0005:C001F268       ic_set_manually
 0005:C001F26C       ic_enable
 0005:C001F270       user_dev_name
 0005:C001F280       vendor_class_identifier
 0005:C001F380       ic_proto_have_if
 0005:C001F384       bootp_packet_type
 0005:C001F3AC       xfrm_net_ops
 0005:C001F3BC       cpu_nfb
 0005:C001F3C8       tvec_base_done.21268
 0005:C001F3CC       cpu_nfb_0
 0005:C001F3D8       dma_reserve
 0005:C001F3DC       nr_kernel_pages
 0005:C001F3E0       nr_all_pages
 0005:C001F3E8       __ctors_start
 0005:C001F3F0       __setup_str_init_setup
 0005:C001F3F6       __setup_str_loglevel
 0005:C001F3FF       __setup_str_quiet_kernel
 0005:C001F405       __setup_str_debug_kernel
 0005:C001F40B       __setup_str_set_reset_devices
 0005:C001F419       __setup_str_root_delay_setup
 0005:C001F424       __setup_str_fs_names_setup
 0005:C001F430       __setup_str_root_data_setup
 0005:C001F43B       __setup_str_rootwait_setup
 0005:C001F444       __setup_str_root_dev_setup
 0005:C001F44A       __setup_str_readwrite
 0005:C001F44D       __setup_str_readonly
 0005:C001F450       __setup_str_load_ramdisk
 0005:C001F45E       __setup_str_ramdisk_start_setup
 0005:C001F46D       __setup_str_prompt_ramdisk
 0005:C001F47D       __setup_str_no_initrd
 0005:C001F486       __setup_str_retain_initrd_param
 0005:C001F494       __setup_str_lpj_setup
 0005:C001F499       __setup_str_reboot_setup
 0005:C001F4A1       __setup_str_hlt_setup
 0005:C001F4A5       __setup_str_nohlt_setup
 0005:C001F4AB       __setup_str_fpe_setup
 0005:C001F4B0       __setup_str_user_debug_setup
 0005:C001F4BC       __setup_str_keepinitrd_setup
 0005:C001F4C7       __setup_str_noalign_setup
 0005:C001F4CF       __setup_str_coredump_filter_setup
 0005:C001F4E0       __setup_str_console_suspend_disable
 0005:C001F4F3       __setup_str_console_setup
 0005:C001F4FC       __setup_str_ignore_loglevel_setup
 0005:C001F50C       __setup_str_log_buf_len_setup
 0005:C001F519       __setup_str_strict_iomem
 0005:C001F520       __setup_str_reserve_setup
 0005:C001F529       __setup_str_setup_print_fatal_signals
 0005:C001F53E       __setup_str_ntp_tick_adj_setup
 0005:C001F54C       __setup_str_boot_override_clock
 0005:C001F553       __setup_str_boot_override_clocksource
 0005:C001F560       __setup_str_nosoftlockup_setup
 0005:C001F56D       __setup_str_softlockup_panic_setup
 0005:C001F57F       __setup_str_hung_task_panic_setup
 0005:C001F590       __setup_str_irqpoll_setup
 0005:C001F598       __setup_str_irqfixup_setup
 0005:C001F5A1       __setup_str_noirqdebug_setup
 0005:C001F5AC       __setup_str_bootmem_debug_setup
 0005:C001F5BA       __setup_str_set_mminit_loglevel
 0005:C001F5CA       __setup_str_disable_randmaps
 0005:C001F5D5       __setup_str_noaliencache_setup
 0005:C001F5E4       __setup_str_set_dhash_entries
 0005:C001F5F3       __setup_str_set_ihash_entries
 0005:C001F604       tokens_2
 0005:C001F704       __setup_str_nfs_root_setup
 0005:C001F70D       __setup_str_elevator_setup
 0005:C001F717       __setup_str_video_setup
 0005:C001F71E       __setup_str_sysrq_always_enabled_setup
 0005:C001F733       __setup_str_ramdisk_size
 0005:C001F741       __setup_str_mtdpart_setup
 0005:C001F74B       __setup_str_netdev_boot_setup
 0005:C001F753       __setup_str_netdev_boot_setup_0
 0005:C001F75A       __setup_str_set_rhash_entries
 0005:C001F769       __setup_str_set_thash_entries
 0005:C001F778       __setup_str_vendor_class_identifier_setup
 0005:C001F783       __setup_str_nfsaddrs_config_setup
 0005:C001F78D       __setup_str_ip_auto_config_setup
 0006:C0020000       _text
 0006:C002007C       do_undefinstr
 0006:C00201E0       do_DataAbort
 0006:C0020274       do_PrefetchAbort
 0006:C0020280       __exception_text_end
 0006:C0020408       name_to_dev_t
 0006:C0020640       arm_elf_read_implies_exec
 0006:C0020660       elf_check_arch
 0006:C00206F4       elf_set_personality
 0006:C00207A0       __pabt_invalid
 0006:C00207B0       __dabt_invalid
 0006:C00207C0       __irq_invalid
 0006:C00207D0       __und_invalid
 0006:C00207DC       common_invalid
 0006:C0020800       __dabt_svc
 0006:C0020860       __irq_svc
 0006:C00208E0       __und_svc
 0006:C0020940       __pabt_svc
 0006:C00209C0       __dabt_usr
 0006:C0020A00       __irq_usr
 0006:C0020A80       __und_usr
 0006:C0020ACC       call_fpe
 0006:C0020B38       do_fpe
 0006:C0020B48       no_fp
 0006:C0020B4C       __und_usr_unknown
 0006:C0020B60       __pabt_usr
 0006:C0020B9C       ret_from_exception
 0006:C0020BAC       __switch_to
 0006:C0020C00       ret_fast_syscall
 0006:C0020C2C       fast_work_pending
 0006:C0020C30       work_pending
 0006:C0020C50       work_resched
 0006:C0020C54       ret_to_user
 0006:C0020C64       no_work_pending
 0006:C0020C80       ret_from_fork
 0006:C0020CC0       vector_swi
 0006:C0021368       sys_syscall
 0006:C0021390       sys_fork_wrapper
 0006:C00219FC       show_interrupts
 0006:C0021B50       set_irq_flags
 0006:C0021BC4       kernel_thread_helper
 0006:C0021BD0       kernel_thread_exit
 0006:C0021BD8       disable_hlt
 0006:C0021BF0       enable_hlt
 0006:C0021C08       arm_machine_restart
 0006:C0021C58       default_idle
 0006:C0021C80       dump_fpu
 0006:C0021CBC       kernel_thread
 0006:C0021D2C       cpu_idle
 0006:C0021DA8       machine_halt
 0006:C0021DAC       machine_power_off
 0006:C0021DC4       machine_restart
 0006:C0021DDC       __show_regs
 0006:C0021FE8       show_regs
 0006:C0022030       exit_thread
 0006:C0022034       flush_thread
 0006:C0022084       release_thread
 0006:C002209C       copy_thread
 0006:C0022108       get_wchan
 0006:C00221A0       swap_insn
 0006:C00221FC       add_breakpoint
 0006:C0022268       ptrace_set_bpt
 0006:C0022684       ptrace_cancel_bpt
 0006:C0022780       ptrace_disable
 0006:C0022790       ptrace_break
 0006:C00227D4       break_trap
 0006:C00227F8       arch_ptrace
 0006:C0022B94       syscall_trace
 0006:C0022C20       c_start
 0006:C0022C38       c_next
 0006:C0022C50       c_stop
 0006:C0022C54       cpu_architecture
 0006:C0022CDC       c_show
 0006:C0022EB8       cpu_init
 0006:C0022EE4       setup_return
 0006:C0022FD4       setup_sigframe
 0006:C0023110       restore_sigframe
 0006:C0023288       do_signal
 0006:C00237A8       sys_sigsuspend
 0006:C002382C       sys_rt_sigsuspend
 0006:C0023914       sys_sigaction
 0006:C0023A38       sys_sigreturn
 0006:C0023AD0       sys_rt_sigreturn
 0006:C0023B80       do_notify_resume
 0006:C0023BA8       kernel_execve
 0006:C0023C28       do_mmap2
 0006:C0023CDC       old_mmap
 0006:C0023DF4       sys_arm_mremap
 0006:C0023E78       old_select
 0006:C0023EE8       sys_ipc
 0006:C0024118       sys_fork
 0006:C0024140       sys_clone
 0006:C0024160       sys_vfork
 0006:C002418C       sys_execve
 0006:C00241E0       sys_arm_fadvise64_64
 0006:C0024200       walk_stackframe
 0006:C0024238       dummy_gettimeoffset
 0006:C0024240       do_gettimeofday
 0006:C00242D8       save_time_delta
 0006:C0024304       do_settimeofday
 0006:C00243C4       restore_time_delta
 0006:C00243F8       dump_mem
 0006:C00244F8       dump_instr
 0006:C0024620       __bug
 0006:C0024648       abort
 0006:C0024660       __readwrite_bug
 0006:C0024688       __div0
 0006:C00246A0       __bad_xchg
 0006:C00246D0       dump_backtrace_entry
 0006:C0024758       show_stack
 0006:C002476C       die
 0006:C00248B0       arm_notify_die
 0006:C00248FC       register_undef_hook
 0006:C0024924       unregister_undef_hook
 0006:C0024954       do_unexp_fiq
 0006:C0024974       bad_mode
 0006:C00249C0       arm_syscall
 0006:C0024CE8       baddataabort
 0006:C0024D98       __pte_error
 0006:C0024DC0       __pmd_error
 0006:C0024DE8       __pgd_error
 0006:C0024E10       module_alloc
 0006:C0024E70       module_free
 0006:C0024E78       module_frob_arch_sections
 0006:C0024F58       apply_relocate
 0006:C0025188       apply_relocate_add
 0006:C00251A8       module_finalize
 0006:C0025248       module_arch_cleanup
 0006:C002526C       cp_oldabi_stat64
 0006:C00253A4       sys_oabi_stat64
 0006:C00253D4       sys_oabi_lstat64
 0006:C0025404       sys_oabi_fstat64
 0006:C0025434       sys_oabi_fstatat64
 0006:C0025464       sys_oabi_fcntl64
 0006:C002561C       sys_oabi_epoll_ctl
 0006:C002570C       sys_oabi_epoll_wait
 0006:C002580C       sys_oabi_semtimedop
 0006:C002598C       sys_oabi_semop
 0006:C0025994       sys_oabi_ipc
 0006:C00259E8       sys_oabi_bind
 0006:C0025A20       sys_oabi_connect
 0006:C0025A58       sys_oabi_sendto
 0006:C0025AB0       sys_oabi_sendmsg
 0006:C0025B20       sys_oabi_socketcall
 0006:C0025CB8       __aeabi_unwind_cpp_pr0
 0006:C0025CBC       __aeabi_unwind_cpp_pr1
 0006:C0025CC0       __aeabi_unwind_cpp_pr2
 0006:C0025CC4       unwind_get_byte
 0006:C0025D2C       search_index
 0006:C0025DA8       unwind_frame
 0006:C0026198       unwind_backtrace
 0006:C0026260       unwind_table_add
 0006:C0026300       unwind_table_del
 0006:C0026338       _memcpy_fromio
 0006:C0026350       _memcpy_toio
 0006:C0026368       _memset_io
 0006:C0026380       printhex8
 0006:C0026388       printhex4
 0006:C0026390       printhex2
 0006:C0026394       printhex
 0006:C00263CC       printascii
 0006:C0026408       printch
 0006:C0026418       hexbuf
 0006:C0026440       outer_inv_range
 0006:C0026444       outer_clean_range
 0006:C0026448       outer_flush_range
 0006:C002644C       dma_cache_maint
 0006:C0026524       dma_cache_maint_contiguous
 0006:C00265E0       dma_cache_maint_page
 0006:C00265E4       dma_unmap_sg
 0006:C002660C       dma_sync_sg_for_cpu
 0006:C0026634       dma_sync_sg_for_device
 0006:C0026680       __dma_alloc
 0006:C0026A1C       dma_alloc_coherent
 0006:C0026A78       dma_alloc_writecombine
 0006:C0026AA0       dma_mmap.isra.15
 0006:C0026B6C       dma_mmap_coherent
 0006:C0026B84       dma_mmap_writecombine
 0006:C0026BA0       dma_map_sg
 0006:C0026C64       dma_free_coherent
 0006:C0026EA8       fixup_exception
 0006:C0026ED0       do_bad
 0006:C0026ED8       show_pte
 0006:C0026F8C       __do_user_fault
 0006:C0027028       do_page_fault
 0006:C0027274       do_bad_area
 0006:C00272F0       do_sect_fault
 0006:C0027300       do_translation_fault
 0006:C0027370       show_mem
 0006:C00274DC       free_initmem
 0006:C00275A4       free_initrd_mem
 0006:C0027674       ioport_map
 0006:C0027678       ioport_unmap
 0006:C002767C       update_mmu_cache
 0006:C0027730       flush_pfn_alias
 0006:C00277B0       flush_cache_mm
 0006:C00277D8       flush_cache_range
 0006:C0027800       flush_cache_page
 0006:C002781C       flush_ptrace_access
 0006:C0027898       __flush_dcache_page
 0006:C002790C       flush_dcache_page
 0006:C00279A4       __flush_anon_page
 0006:C0027A08       remap_area_pages
 0006:C0027BD8       ioremap_page
 0006:C0027BE8       __check_kvm_seq
 0006:C0027C50       unmap_area_sections
 0006:C0027D40       __arm_ioremap_pfn
 0006:C0027E90       __arm_ioremap
 0006:C0027EE0       __iounmap
 0006:C0027F38       arch_get_unmapped_area
 0006:C002810C       valid_phys_addr_range
 0006:C0028140       valid_mmap_phys_addr_range
 0006:C0028154       get_pgd_slow
 0006:C0028228       free_pgd_slow
 0006:C00282F8       get_mem_type
 0006:C0028310       adjust_cr
 0006:C0028374       setup_mm_for_reboot
 0006:C002840C       proc_alignment_write
 0006:C002845C       do_alignment_ldrhstrh
 0006:C0028514       do_alignment_ldrdstrd
 0006:C002870C       do_alignment_ldrstr
 0006:C0028804       do_alignment_ldmstm
 0006:C0028A38       proc_alignment_read
 0006:C0028B54       do_alignment
 0006:C0029260       v6_early_abort
 0006:C00292A0       not_thumb
 0006:C00292C0       not_ldrd
 0006:C00292CC       v6_flush_kern_cache_all
 0006:C00292DC       v6_flush_user_cache_all
 0006:C00292E0       v6_coherent_user_range
 0006:C0029304       v6_flush_kern_dcache_page
 0006:C0029324       v6_dma_inv_range
 0006:C0029358       v6_dma_clean_range
 0006:C0029378       v6_dma_flush_range
 0006:C0029398       v6_copy_user_highpage_nonaliasing
 0006:C0029410       v6_clear_user_highpage_nonaliasing
 0006:C0029460       v6_clear_user_highpage_aliasing
 0006:C0029504       v6_copy_user_highpage_aliasing
 0006:C0029658       __init_new_context
 0006:C0029664       __new_context
 0006:C00296E8       v6wbi_flush_user_tlb_range
 0006:C0029734       v6wbi_flush_kern_tlb_range
 0006:C0029780       cpu_v6_proc_init
 0006:C0029784       cpu_v6_proc_fin
 0006:C00297C0       cpu_v6_reset
 0006:C00297C4       cpu_v6_do_idle
 0006:C00297D4       cpu_v6_dcache_clean_area
 0006:C00297E8       cpu_v6_switch_mm
 0006:C0029808       cpu_v6_mt_table
 0006:C0029848       cpu_v6_set_pte_ext
 0006:C00298A8       cpu_v6_name
 0006:C00298C4       vic_init2
 0006:C00298EC       vic_set_wake
 0006:C002996C       vic_class_resume
 0006:C00299D8       vic_class_suspend
 0006:C0029A38       vic_unmask_irq
 0006:C0029A5C       vic_mask_irq
 0006:C0029A80       SetRoundingMode
 0006:C0029AB4       SetRoundingPrecision
 0006:C0029ABC       nwfpe_init_fpa
 0006:C0029B10       EmulateAll
 0006:C0029B54       EmulateCPDO
 0006:C0029CB0       PerformLDF
 0006:C0029DC0       PerformSTF
 0006:C0029F50       PerformLFM
 0006:C002A098       PerformSFM
 0006:C002A1E0       EmulateCPDT
 0006:C002A23C       PerformFLT
 0006:C002A33C       PerformFIX
 0006:C002A3FC       EmulateCPRT
 0006:C002A864       nwfpe_notify
 0006:C002A888       float_raise
 0006:C002A978       checkCondition
 0006:C002A99C       countLeadingZeros32
 0006:C002A9D4       roundAndPackInt32
 0006:C002AAB0       normalizeFloat32Subnormal
 0006:C002AAE0       roundAndPackFloat32
 0006:C002AC48       normalizeRoundAndPackFloat32
 0006:C002AC84       roundAndPackFloat64
 0006:C002AEA8       estimateSqrt32
 0006:C002AF54       estimateDiv128To64.part.2.constprop.4
 0006:C002B07C       normalizeFloat64Subnormal
 0006:C002B0E0       float32_is_nan
 0006:C002B0F4       float32_is_signaling_nan
 0006:C002B11C       propagateFloat32NaN
 0006:C002B184       addFloat32Sigs
 0006:C002B2F4       subFloat32Sigs
 0006:C002B48C       float64_is_nan
 0006:C002B4B4       float64_is_signaling_nan
 0006:C002B518       propagateFloat64NaN
 0006:C002B5B8       addFloat64Sigs
 0006:C002B844       subFloat64Sigs
 0006:C002BB30       int32_to_float32
 0006:C002BB60       int32_to_float64
 0006:C002BBCC       float32_to_int32
 0006:C002BC70       float32_to_int32_round_to_zero
 0006:C002BD38       float32_to_float64
 0006:C002BE44       float32_round_to_int
 0006:C002BF78       float32_add
 0006:C002BF8C       float32_sub
 0006:C002BFA0       float32_mul
 0006:C002C104       float32_div
 0006:C002C2B8       float32_rem
 0006:C002C5D8       float32_sqrt
 0006:C002C72C       float32_eq
 0006:C002C7C4       float32_le
 0006:C002C86C       float32_lt
 0006:C002C914       float32_eq_signaling
 0006:C002C98C       float32_le_quiet
 0006:C002CA28       float32_lt_quiet
 0006:C002CAC4       float64_to_int32
 0006:C002CBAC       float64_to_int32_round_to_zero
 0006:C002CCAC       float64_to_uint32
 0006:C002CD58       float64_to_uint32_round_to_zero
 0006:C002CE58       float64_to_float32
 0006:C002CF30       float64_round_to_int
 0006:C002D124       float64_add
 0006:C002D15C       float64_sub
 0006:C002D194       float64_mul
 0006:C002D428       float64_div
 0006:C002D7B8       float64_rem
 0006:C002DB84       float64_sqrt
 0006:C002DEA8       float64_eq
 0006:C002DF6C       float64_le
 0006:C002E03C       float64_lt
 0006:C002E108       float64_eq_signaling
 0006:C002E1A4       float64_le_quiet
 0006:C002E26C       float64_lt_quiet
 0006:C002E334       float32_mvf
 0006:C002E33C       float32_mnf
 0006:C002E344       float32_abs
 0006:C002E34C       float32_rsf
 0006:C002E35C       float32_rdv
 0006:C002E36C       SingleCPDO
 0006:C002E448       float64_mvf
 0006:C002E454       float64_mnf
 0006:C002E460       float64_abs
 0006:C002E46C       float64_rsf
 0006:C002E488       float64_rdv
 0006:C002E4A4       DoubleCPDO
 0006:C002E600       nwfpe_enter
 0006:C002E610       emulate
 0006:C002E630       next
 0006:C002E654       resched_task
 0006:C002E67C       check_preempt_curr_idle
 0006:C002E694       put_prev_task_idle
 0006:C002E6A0       task_tick_idle
 0006:C002E6AC       set_curr_task_idle
 0006:C002E6B8       check_preempt_curr_rt
 0006:C002E6E0       set_curr_task_rt
 0006:C002E6FC       nsec_low
 0006:C002E768       calc_load_account_active
 0006:C002E7B0       pick_next_task_idle
 0006:C002E7C8       __wake_up_common
 0006:C002E840       __wake_up
 0006:C002E86C       complete
 0006:C002E8AC       complete_all
 0006:C002E8EC       try_wait_for_completion
 0006:C002E91C       completion_done
 0006:C002E93C       task_nice
 0006:C002E950       check_same_owner
 0006:C002E994       sched_debug_open
 0006:C002E9B8       effective_prio
 0006:C002E9EC       calc_delta_mine
 0006:C002EAB4       wakeup_preempt_entity
 0006:C002EBE4       __wake_up_sync_key
 0006:C002EC1C       __wake_up_sync
 0006:C002EC34       __dequeue_entity
 0006:C002EC70       pick_next_task_fair
 0006:C002ED30       dequeue_task_idle
 0006:C002ED54       __schedule_bug
 0006:C002EDBC       dequeue_rt_stack
 0006:C002EEB4       find_process_by_pid
 0006:C002EEDC       switched_to_idle
 0006:C002EF14       prio_changed_idle
 0006:C002EF58       prio_changed_fair
 0006:C002EF9C       switched_to_fair
 0006:C002EFD4       sched_rt_period_timer
 0006:C002F144       switched_to_rt
 0006:C002F174       prio_changed_rt
 0006:C002F1B4       set_load_weight
 0006:C002F224       nsec_high
 0006:C002F2BC       sched_slice.isra.93
 0006:C002F35C       pick_next_task_rt
 0006:C002F454       finish_task_switch.constprop.112
 0006:C002F4DC       update_curr_rt
 0006:C002F690       put_prev_task_rt
 0006:C002F6B0       dequeue_task_rt
 0006:C002F6E8       __enqueue_entity.constprop.123
 0006:C002F780       requeue_task_rt.isra.79.constprop.127
 0006:C002F7D8       task_tick_rt
 0006:C002F898       yield_task_rt
 0006:C002F8B0       enqueue_task_rt
 0006:C002FA68       update_min_vruntime.constprop.135
 0006:C002FAE4       update_curr.constprop.133
 0006:C002FB8C       put_prev_task_fair
 0006:C002FBD8       check_preempt_wakeup
 0006:C002FD44       clear_buddies.isra.58
 0006:C002FD8C       task_tick_fair
 0006:C002FE04       dequeue_task_fair
 0006:C002FEA8       deactivate_task.constprop.113
 0006:C002FF90       __cond_resched
 0006:C002FFD0       cond_resched_lock
 0006:C0030014       set_curr_task_fair
 0006:C0030068       yield_task_fair
 0006:C0030118       activate_task.constprop.114
 0006:C0030188       try_to_wake_up
 0006:C0030298       wake_up_process
 0006:C00302B4       default_wake_function
 0006:C00302CC       set_user_nice
 0006:C00303D8       __sched_setscheduler
 0006:C003071C       sched_setscheduler
 0006:C0030734       do_sched_setscheduler
 0006:C00307E4       enqueue_task_fair
 0006:C0030904       task_new_fair
 0006:C00309D0       update_rq_clock
 0006:C00309F0       runqueue_is_locked
 0006:C0030A00       task_rq_unlock_wait
 0006:C0030A0C       sched_nr_latency_handler
 0006:C0030A78       print_cfs_rq
 0006:C0030E74       print_rt_rq
 0006:C0031028       sched_debug_show
 0006:C00319B0       proc_sched_show_task
 0006:C0031E58       proc_sched_set_task
 0006:C0031E80       task_curr
 0006:C0031EA4       task_oncpu_function_call
 0006:C0031ED4       wake_up_state
 0006:C0031EEC       sched_fork
 0006:C0031F9C       wake_up_new_task
 0006:C0032068       schedule_tail
 0006:C00320B0       nr_running
 0006:C00320C8       nr_uninterruptible
 0006:C00320E4       nr_context_switches
 0006:C00320FC       nr_iowait
 0006:C0032114       get_avenrun
 0006:C0032158       calc_global_load
 0006:C0032200       cpu_nr_migrations
 0006:C0032218       task_delta_exec
 0006:C0032278       task_sched_runtime
 0006:C00322E4       thread_group_sched_runtime
 0006:C0032364       account_user_time
 0006:C00323F0       account_system_time
 0006:C0032530       account_steal_time
 0006:C003255C       account_idle_time
 0006:C00325A8       account_process_tick
 0006:C0032628       account_steal_ticks
 0006:C003263C       account_idle_ticks
 0006:C0032650       task_utime
 0006:C00326BC       task_stime
 0006:C0032704       task_gtime
 0006:C0032714       scheduler_tick
 0006:C00327DC       get_parent_ip
 0006:C00327E8       __wake_up_locked
 0006:C003280C       __wake_up_locked_key
 0006:C0032830       rt_mutex_setprio
 0006:C003299C       can_nice
 0006:C00329D4       sys_nice
 0006:C0032A78       task_prio
 0006:C0032A8C       idle_cpu
 0006:C0032AB4       idle_task
 0006:C0032ACC       sched_setscheduler_nocheck
 0006:C0032AE4       sys_sched_setscheduler
 0006:C0032B08       sys_sched_setparam
 0006:C0032B24       sys_sched_getscheduler
 0006:C0032B58       sys_sched_getparam
 0006:C0032BE0       sched_setaffinity
 0006:C0032CBC       sys_sched_setaffinity
 0006:C0032D54       sched_getaffinity
 0006:C0032D90       sys_sched_getaffinity
 0006:C0032E14       sys_sched_yield
 0006:C0032E50       sys_sched_get_priority_max
 0006:C0032E90       sys_sched_get_priority_min
 0006:C0032ED0       sys_sched_rr_get_interval
 0006:C0032FB0       sched_show_task
 0006:C0033070       show_state_filter
 0006:C00330F4       in_sched_functions
 0006:C003312C       normalize_rt_tasks
 0006:C0033264       sched_rt_handler
 0006:C00333A4       get_task_mm
 0006:C00333E0       free_task
 0006:C0033414       unshare_fd
 0006:C0033480       sighand_ctor
 0006:C0033494       __mmdrop
 0006:C00334DC       mm_init.isra.43
 0006:C00335C8       mmput
 0006:C0033684       nr_processes
 0006:C0033694       __put_task_struct
 0006:C0033770       arch_dup_task_struct
 0006:C0033784       mm_alloc
 0006:C00337B8       mm_release
 0006:C0033868       dup_mm
 0006:C0033BC0       __cleanup_sighand
 0006:C0033BF0       __cleanup_signal
 0006:C0033C18       copy_process.part.46
 0006:C0034860       sys_set_tid_address
 0006:C0034884       do_fork
 0006:C0034BD4       sys_unshare
 0006:C0034E40       unshare_files
 0006:C0034E98       register_exec_domain
 0006:C0034EF0       unregister_exec_domain
 0006:C0034F38       __set_personality
 0006:C0035050       execdomains_proc_open
 0006:C0035064       execdomains_proc_show
 0006:C00350C8       default_handler
 0006:C0035138       sys_personality
 0006:C003518C       no_blink
 0006:C0035194       test_taint
 0006:C00351C0       add_taint
 0006:C0035218       init_oops_id
 0006:C0035250       print_oops_end_marker
 0006:C0035274       warn_slowpath_fmt
 0006:C00352E8       warn_slowpath_null
 0006:C0035334       do_oops_enter_exit.part.2
 0006:C00353D4       print_tainted
 0006:C0035474       get_taint
 0006:C0035484       oops_may_print
 0006:C003549C       oops_enter
 0006:C00354C0       oops_exit
 0006:C00354E4       __call_console_drivers
 0006:C0035550       emit_log_char
 0006:C00355C8       try_acquire_console_sem
 0006:C0035618       printk_ratelimit
 0006:C0035624       printk_timed_ratelimit
 0006:C0035684       _call_console_drivers
 0006:C0035704       acquire_console_sem
 0006:C0035768       __add_preferred_console.constprop.3
 0006:C0035820       early_printk
 0006:C003582C       do_syslog
 0006:C0035BF0       sys_syslog
 0006:C0035BF4       add_preferred_console
 0006:C0035BF8       update_console_cmdline
 0006:C0035CA0       is_console_locked
 0006:C0035CB0       printk_tick
 0006:C0035CE0       printk_needs_cpu
 0006:C0035CF0       wake_up_klogd
 0006:C0035D18       release_console_sem
 0006:C0035EB0       vprintk
 0006:C0036190       suspend_console
 0006:C00361D4       console_print
 0006:C00361E4       resume_console
 0006:C003621C       console_stop
 0006:C003623C       console_start
 0006:C003625C       unregister_console
 0006:C00362EC       register_console
 0006:C0036580       console_unblank
 0006:C00365FC       console_device
 0006:C0036654       set_cpu_possible
 0006:C003666C       set_cpu_present
 0006:C0036684       set_cpu_online
 0006:C003669C       set_cpu_active
 0006:C00366B4       init_cpu_present
 0006:C00366C8       init_cpu_possible
 0006:C00366DC       init_cpu_online
 0006:C00366F0       will_become_orphaned_pgrp
 0006:C003678C       delayed_put_task_struct
 0006:C00367B4       allow_signal
 0006:C0036824       disallow_signal
 0006:C0036874       exit_mm
 0006:C0036990       kill_orphaned_pgrp
 0006:C0036A2C       wait_noreap_copyout
 0006:C0036B18       release_task
 0006:C0036E50       wait_consider_task.isra.26
 0006:C00376AC       do_wait
 0006:C00378E0       session_of_pgrp
 0006:C003791C       is_current_pgrp_orphaned
 0006:C003793C       __set_special_pids
 0006:C003799C       get_files_struct
 0006:C00379C0       put_files_struct
 0006:C0037A8C       reset_files_struct
 0006:C0037AAC       exit_files
 0006:C0037AC8       daemonize
 0006:C0037CA4       do_exit
 0006:C003820C       complete_and_exit
 0006:C0038228       sys_exit
 0006:C0038238       do_group_exit
 0006:C00382E4       sys_exit_group
 0006:C00382F4       sys_waitid
 0006:C00383AC       sys_wait4
 0006:C0038468       itimer_get_remtime
 0006:C00384C8       do_getitimer
 0006:C00385FC       sys_getitimer
 0006:C003866C       it_real_fn
 0006:C003868C       do_setitimer
 0006:C00388C8       alarm_setitimer
 0006:C0038934       sys_setitimer
 0006:C0038A18       jiffies_to_msecs
 0006:C0038A24       jiffies_to_usecs
 0006:C0038A34       timespec_trunc
 0006:C0038A94       mktime
 0006:C0038B2C       set_normalized_timespec
 0006:C0038B6C       msecs_to_jiffies
 0006:C0038B90       usecs_to_jiffies
 0006:C0038BC4       timespec_to_jiffies
 0006:C0038C1C       jiffies_to_timespec
 0006:C0038C90       timeval_to_jiffies
 0006:C0038CE8       jiffies_to_timeval
 0006:C0038D64       jiffies_to_clock_t
 0006:C0038D68       clock_t_to_jiffies
 0006:C0038D6C       jiffies_64_to_clock_t
 0006:C0038D70       get_jiffies_64
 0006:C0038DAC       getnstimeofday
 0006:C0038DDC       current_fs_time
 0006:C0038E0C       ns_to_timespec
 0006:C0038E6C       ns_to_timeval
 0006:C0038EA0       sys_time
 0006:C0038ED4       sys_stime
 0006:C0038F18       sys_gettimeofday
 0006:C0038FC8       do_sys_settimeofday
 0006:C00390D0       sys_settimeofday
 0006:C00391E8       sys_adjtimex
 0006:C003928C       nsec_to_clock_t
 0006:C00392D4       timespec_add_safe
 0006:C003933C       tasklet_init
 0006:C003936C       __hrtimer_tasklet_trampoline
 0006:C0039374       local_bh_disable
 0006:C0039390       _local_bh_enable
 0006:C003941C       tasklet_kill
 0006:C00394A0       tasklet_hrtimer_init
 0006:C00394E0       __tasklet_hrtimer_trampoline
 0006:C0039544       __tasklet_hi_schedule_first
 0006:C0039594       tasklet_hi_action
 0006:C003964C       tasklet_action
 0006:C0039710       wakeup_softirqd
 0006:C0039734       __tasklet_schedule
 0006:C003979C       __tasklet_hi_schedule
 0006:C0039804       __local_trigger
 0006:C003987C       __send_remote_softirq
 0006:C0039884       send_remote_softirq
 0006:C00398A0       __do_softirq
 0006:C00399A0       do_softirq
 0006:C00399EC       local_bh_enable_ip
 0006:C0039A88       local_bh_enable
 0006:C0039B24       ksoftirqd
 0006:C0039BFC       irq_enter
 0006:C0039C4C       irq_exit
 0006:C0039C8C       raise_softirq_irqoff
 0006:C0039CC8       raise_softirq
 0006:C0039D18       open_softirq
 0006:C0039D2C       arch_init_chip_data
 0006:C0039D34       r_stop
 0006:C0039D38       __request_resource
 0006:C0039DAC       request_resource
 0006:C0039DC4       release_resource
 0006:C0039E08       allocate_resource
 0006:C0039F20       __insert_resource
 0006:C003A02C       adjust_resource
 0006:C003A0DC       devm_region_match
 0006:C003A11C       iomem_open
 0006:C003A14C       ioports_open
 0006:C003A17C       r_show
 0006:C003A214       __release_region
 0006:C003A2AC       devm_region_release
 0006:C003A2B4       __request_region
 0006:C003A34C       __check_region
 0006:C003A388       __devm_request_region
 0006:C003A410       r_next
 0006:C003A44C       r_start
 0006:C003A4AC       __devm_release_region
 0006:C003A504       insert_resource
 0006:C003A51C       insert_resource_expand_to_fit
 0006:C003A588       resource_alignment
 0006:C003A5C4       iomem_map_sanity_check
 0006:C003A688       iomem_is_exclusive
 0006:C003A734       lookup_header_set
 0006:C003A74C       sysctl_set_parent
 0006:C003A794       sysctl_jiffies
 0006:C003A864       sysctl_data
 0006:C003A998       sysctl_string
 0006:C003AB18       unregister_sysctl_table
 0006:C003ABD8       sysctl_ms_jiffies
 0006:C003ACA4       do_proc_dointvec_conv
 0006:C003ACE8       do_proc_dointvec_minmax_conv
 0006:C003AD68       do_proc_dointvec_jiffies_conv
 0006:C003ADE4       sysctl_intvec
 0006:C003AE8C       unuse_table
 0006:C003AEB0       __do_proc_dointvec.isra.8
 0006:C003B268       proc_do_cad_pid
 0006:C003B314       proc_dointvec_minmax
 0006:C003B368       proc_dostring
 0006:C003B530       __do_proc_doulongvec_minmax.isra.11
 0006:C003B8D8       proc_doulongvec_ms_jiffies_minmax
 0006:C003B918       do_proc_dointvec_userhz_jiffies_conv
 0006:C003B974       do_proc_dointvec_ms_jiffies_conv
 0006:C003B9D0       proc_dointvec
 0006:C003BA0C       proc_doulongvec_minmax
 0006:C003BA48       proc_taint
 0006:C003BB2C       proc_dointvec_jiffies
 0006:C003BB70       proc_dointvec_userhz_jiffies
 0006:C003BBB4       proc_dointvec_ms_jiffies
 0006:C003BBF8       sysctl_head_get
 0006:C003BC08       sysctl_head_put
 0006:C003BC20       sysctl_head_grab
 0006:C003BC5C       sysctl_head_finish
 0006:C003BC68       __sysctl_head_next
 0006:C003BD08       sysctl_head_next
 0006:C003BD24       register_sysctl_root
 0006:C003BD48       sysctl_perm
 0006:C003BDC0       do_sysctl
 0006:C003BFB0       sys_sysctl
 0006:C003C104       __register_sysctl_paths
 0006:C003C370       register_sysctl_paths
 0006:C003C398       register_sysctl_table
 0006:C003C3A8       sysctl_is_seen
 0006:C003C3DC       setup_sysctl_set
 0006:C003C400       cap_validate_magic
 0006:C003C50C       capable
 0006:C003C57C       sys_capget
 0006:C003C6A8       sys_capset
 0006:C003C830       ptrace_resume
 0006:C003C8A4       __ptrace_detach.part.7
 0006:C003C92C       __ptrace_link
 0006:C003C970       __ptrace_unlink
 0006:C003CA0C       ptrace_check_attach
 0006:C003CA8C       __ptrace_may_access
 0006:C003CB64       ptrace_may_access
 0006:C003CB78       ptrace_attach
 0006:C003CC58       ptrace_traceme
 0006:C003CCC4       ptrace_detach
 0006:C003CD7C       exit_ptrace
 0006:C003CE70       ptrace_readdata
 0006:C003CF34       ptrace_writedata
 0006:C003D00C       sys_ptrace
 0006:C003D0D0       generic_ptrace_peekdata
 0006:C003D10C       generic_ptrace_pokedata
 0006:C003D140       ptrace_request
 0006:C003D3C8       round_jiffies_common
 0006:C003D428       __round_jiffies
 0006:C003D430       __round_jiffies_relative
 0006:C003D454       round_jiffies
 0006:C003D460       round_jiffies_relative
 0006:C003D468       __round_jiffies_up
 0006:C003D470       __round_jiffies_up_relative
 0006:C003D494       round_jiffies_up
 0006:C003D4A0       round_jiffies_up_relative
 0006:C003D4A8       internal_add_timer
 0006:C003D534       init_timer_key
 0006:C003D550       init_timer_deferrable_key
 0006:C003D570       process_timeout
 0006:C003D574       lock_timer_base.isra.18
 0006:C003D5AC       mod_timer_pinned
 0006:C003D67C       mod_timer
 0006:C003D750       mod_timer_pending
 0006:C003D804       del_timer
 0006:C003D864       add_timer
 0006:C003D894       add_timer_on
 0006:C003D8F4       cascade
 0006:C003D97C       run_timer_softirq
 0006:C003DB14       msleep_interruptible
 0006:C003DB58       msleep
 0006:C003DB78       run_local_timers
 0006:C003DB90       update_process_times
 0006:C003DBE8       do_timer
 0006:C003DC18       sys_alarm
 0006:C003DC1C       sys_getpid
 0006:C003DC38       sys_getppid
 0006:C003DC58       sys_getuid
 0006:C003DC74       sys_geteuid
 0006:C003DC90       sys_getgid
 0006:C003DCAC       sys_getegid
 0006:C003DCC8       sys_gettid
 0006:C003DCE4       do_sysinfo
 0006:C003DE00       sys_sysinfo
 0006:C003DE60       uid_hash_find
 0006:C003DEAC       uids_sysfs_init
 0006:C003DEB4       task_can_switch_user
 0006:C003DEBC       find_user
 0006:C003DF00       free_uid
 0006:C003DF74       alloc_uid
 0006:C003E040       sig_handler_ignored
 0006:C003E070       recalc_sigpending_tsk
 0006:C003E0F0       block_all_signals
 0006:C003E128       __fatal_signal_pending
 0006:C003E138       __sigqueue_alloc
 0006:C003E1E0       recalc_sigpending
 0006:C003E230       unblock_all_signals
 0006:C003E268       sigprocmask
 0006:C003E350       __sigqueue_free
 0006:C003E39C       __flush_itimer_signals
 0006:C003E478       rm_from_queue
 0006:C003E4F8       rm_from_queue_full
 0006:C003E59C       check_kill_permission
 0006:C003E66C       prepare_signal.constprop.21
 0006:C003E820       next_signal
 0006:C003E86C       __dequeue_signal
 0006:C003E9C0       dequeue_signal
 0006:C003EAF0       flush_sigqueue
 0006:C003EB30       __flush_signals
 0006:C003EB6C       flush_signals
 0006:C003EB84       flush_itimer_signals
 0006:C003EBBC       ignore_signals
 0006:C003EBE4       flush_signal_handlers
 0006:C003EC2C       unhandled_signal
 0006:C003EC68       signal_wake_up
 0006:C003EC94       recalc_sigpending_and_wake
 0006:C003ECB8       complete_signal
 0006:C003EEA0       __send_signal.constprop.20
 0006:C003F088       kill_pid_info_as_uid
 0006:C003F168       send_sig_info
 0006:C003F194       send_sig
 0006:C003F1A8       __group_send_sig_info
 0006:C003F1B0       do_notify_parent_cldstop
 0006:C003F2D4       ptrace_stop
 0006:C003F3C4       do_signal_stop
 0006:C003F4FC       force_sig_info
 0006:C003F5B0       force_sig
 0006:C003F5BC       force_sig_specific
 0006:C003F5C8       zap_other_threads
 0006:C003F61C       lock_task_sighand
 0006:C003F654       do_send_specific
 0006:C003F700       do_tkill
 0006:C003F770       group_send_sig_info
 0006:C003F7D4       __kill_pgrp_info
 0006:C003F838       kill_pgrp
 0006:C003F850       kill_pid_info
 0006:C003F894       kill_pid
 0006:C003F8AC       kill_proc_info
 0006:C003F8D4       force_sigsegv
 0006:C003F908       sigqueue_alloc
 0006:C003F93C       sigqueue_free
 0006:C003F994       send_sigqueue
 0006:C003FACC       do_notify_parent
 0006:C003FC8C       ptrace_notify
 0006:C003FD20       get_signal_to_deliver
 0006:C0040038       exit_signals
 0006:C004012C       sys_restart_syscall
 0006:C0040144       do_no_restart_syscall
 0006:C004014C       sys_rt_sigprocmask
 0006:C004026C       do_sigpending
 0006:C004031C       sys_rt_sigpending
 0006:C0040320       copy_siginfo_to_user
 0006:C004052C       sys_rt_sigtimedwait
 0006:C0040760       sys_kill
 0006:C0040888       sys_tgkill
 0006:C00408A0       sys_tkill
 0006:C00408BC       sys_rt_sigqueueinfo
 0006:C0040950       do_rt_tgsigqueueinfo
 0006:C004098C       sys_rt_tgsigqueueinfo
 0006:C0040A0C       do_sigaction
 0006:C0040B64       do_sigaltstack
 0006:C0040CC4       sys_sigpending
 0006:C0040CCC       sys_sigprocmask
 0006:C0040E1C       sys_rt_sigaction
 0006:C0040F08       sys_pause
 0006:C0040F34       arch_vma_name
 0006:C0040F3C       set_one_prio
 0006:C0040FFC       emergency_restart
 0006:C0041004       kernel_power_off
 0006:C0041060       set_user
 0006:C004110C       argv_cleanup
 0006:C0041110       orderly_poweroff
 0006:C00411D0       kernel_halt
 0006:C0041214       sys_setpriority
 0006:C00413BC       sys_getpriority
 0006:C0041544       kernel_restart_prepare
 0006:C0041578       kernel_restart
 0006:C00415B8       deferred_cad
 0006:C00415C0       sys_reboot
 0006:C0041754       ctrl_alt_del
 0006:C0041788       sys_setregid
 0006:C0041888       sys_setgid
 0006:C0041914       sys_setreuid
 0006:C0041A60       sys_setuid
 0006:C0041B20       sys_setresuid
 0006:C0041C68       sys_getresuid
 0006:C0041CB8       sys_setresgid
 0006:C0041DC0       sys_getresgid
 0006:C0041E10       sys_setfsuid
 0006:C0041EC8       sys_setfsgid
 0006:C0041F60       do_sys_times
 0006:C0041FD0       sys_times
 0006:C0042038       sys_setpgid
 0006:C0042180       sys_getpgid
 0006:C00421D4       sys_getpgrp
 0006:C00421DC       sys_getsid
 0006:C0042230       sys_setsid
 0006:C00422B0       sys_newuname
 0006:C0042328       sys_sethostname
 0006:C0042424       sys_gethostname
 0006:C00424C4       sys_setdomainname
 0006:C00425CC       sys_getrlimit
 0006:C0042648       sys_old_getrlimit
 0006:C00426E8       sys_setrlimit
 0006:C004280C       getrusage
 0006:C0042A58       sys_getrusage
 0006:C0042A90       sys_umask
 0006:C0042AC4       sys_prctl
 0006:C0042CAC       sys_getcpu
 0006:C0042CFC       call_usermodehelper_setcleanup
 0006:C0042D04       call_usermodehelper_setkeys
 0006:C0042D1C       ____call_usermodehelper
 0006:C0042E10       call_usermodehelper_setup
 0006:C0042E98       call_usermodehelper_stdinpipe
 0006:C0042EEC       call_usermodehelper_freeinfo
 0006:C0042F60       wait_for_helper
 0006:C0042FD8       __call_usermodehelper
 0006:C0043060       call_usermodehelper_exec
 0006:C0043160       __request_module
 0006:C004329C       call_usermodehelper_pipe
 0006:C00432E8       usermodehelper_disable
 0006:C00433AC       usermodehelper_enable
 0006:C00433C0       queue_delayed_work_on
 0006:C00434A4       schedule_delayed_work_on
 0006:C00434C0       wq_barrier_func
 0006:C00434C8       create_workqueue_thread
 0006:C004354C       worker_thread
 0006:C0043718       insert_work
 0006:C0043780       __queue_work
 0006:C004379C       delayed_work_timer_fn
 0006:C00437B4       insert_wq_barrier
 0006:C0043818       flush_cpu_workqueue
 0006:C00438A0       flush_workqueue
 0006:C00438A8       flush_scheduled_work
 0006:C00438B8       destroy_workqueue
 0006:C004391C       flush_work
 0006:C00439A8       __cancel_work_timer
 0006:C0043ACC       cancel_work_sync
 0006:C0043AD4       cancel_delayed_work_sync
 0006:C0043ADC       queue_work_on
 0006:C0043B3C       queue_work
 0006:C0043B50       schedule_work
 0006:C0043B64       schedule_work_on
 0006:C0043B78       execute_in_process_context
 0006:C0043BD4       queue_delayed_work
 0006:C0043C00       schedule_delayed_work
 0006:C0043C1C       __create_workqueue_key
 0006:C0043D60       schedule_on_each_cpu
 0006:C0043DCC       keventd_up
 0006:C0043DE4       current_is_keventd
 0006:C0043E38       is_container_init
 0006:C0043E5C       find_pid_ns
 0006:C0043ED8       find_vpid
 0006:C0043EF4       pid_task
 0006:C0043F1C       find_get_pid
 0006:C0043F44       task_active_pid_ns
 0006:C0043F5C       put_pid
 0006:C0043FA4       delayed_put_pid
 0006:C0043FAC       free_pidmap
 0006:C0043FE8       next_pidmap
 0006:C0044060       free_pid
 0006:C00440F0       __change_pid
 0006:C0044158       alloc_pid
 0006:C0044480       attach_pid
 0006:C00444C4       detach_pid
 0006:C00444CC       change_pid
 0006:C00444F4       transfer_pid
 0006:C0044554       find_task_by_pid_ns
 0006:C0044568       find_task_by_vpid
 0006:C0044584       get_task_pid
 0006:C00445B8       get_pid_task
 0006:C00445E4       pid_nr_ns
 0006:C004461C       pid_vnr
 0006:C0044638       __task_pid_nr_ns
 0006:C0044680       task_tgid_nr_ns
 0006:C004468C       find_ge_pid
 0006:C00446C8       synchronize_rcu
 0006:C00446CC       rcu_barrier_callback
 0006:C00446F8       _rcu_barrier
 0006:C0044880       rcu_barrier
 0006:C0044888       rcu_barrier_bh
 0006:C0044890       rcu_barrier_sched
 0006:C0044898       wakeme_after_rcu
 0006:C00448A0       rcu_scheduler_starting
 0006:C00448D4       search_exception_tables
 0006:C0044908       core_kernel_text
 0006:C004497C       __kernel_text_address
 0006:C00449D4       kernel_text_address
 0006:C00449FC       func_ptr_is_kernel_text
 0006:C0044A24       param_set_bool
 0006:C0044AA8       param_set_invbool
 0006:C0044AE8       param_array_get
 0006:C0044B84       param_attr_store
 0006:C0044BB8       module_attr_show
 0006:C0044BDC       module_attr_store
 0006:C0044C08       uevent_filter
 0006:C0044C24       param_set_byte
 0006:C0044C74       param_set_ushort
 0006:C0044CC4       param_set_uint
 0006:C0044D08       param_set_ulong
 0006:C0044D4C       param_get_byte
 0006:C0044D60       param_get_short
 0006:C0044D74       param_get_ushort
 0006:C0044D88       param_get_int
 0006:C0044D9C       param_get_uint
 0006:C0044DB0       param_get_long
 0006:C0044DC4       param_get_ulong
 0006:C0044DD8       param_get_charp
 0006:C0044DEC       param_get_bool
 0006:C0044E24       param_get_invbool
 0006:C0044E44       param_set_short
 0006:C0044E98       param_set_int
 0006:C0044EDC       param_set_long
 0006:C0044F20       param_get_string
 0006:C0044F30       add_sysfs_param
 0006:C0045078       param_attr_show
 0006:C00450C8       param_set_charp
 0006:C0045154       param_set_copystring
 0006:C00451C4       param_array_set
 0006:C00452D0       parse_args
 0006:C0045520       module_param_sysfs_setup
 0006:C00455C8       module_param_sysfs_remove
 0006:C0045608       destroy_params
 0006:C004560C       no_timer_create
 0006:C0045614       no_nsleep
 0006:C004561C       do_posix_clock_nosettime
 0006:C0045624       do_posix_clock_nonanosleep
 0006:C004562C       posix_get_monotonic_raw
 0006:C0045640       posix_ktime_get_ts
 0006:C0045654       lock_timer
 0006:C00456C4       posix_timer_event
 0006:C0045714       posix_timer_fn
 0006:C00457A0       register_posix_clock
 0006:C00457F4       common_timer_get
 0006:C00458E8       release_posix_timer
 0006:C0045938       do_schedule_next_timer
 0006:C0045A40       sys_timer_create
 0006:C0045D94       sys_timer_gettime
 0006:C0045E4C       sys_timer_getoverrun
 0006:C0045E78       sys_timer_settime
 0006:C0046154       sys_timer_delete
 0006:C0046228       exit_itimers
 0006:C00462FC       sys_clock_settime
 0006:C00463EC       sys_clock_gettime
 0006:C00464C8       sys_clock_getres
 0006:C0046598       sys_clock_nanosleep
 0006:C00466CC       clock_nanosleep_restart
 0006:C0046700       kthread_should_stop
 0006:C004671C       kthread_bind
 0006:C004675C       kthread_create
 0006:C0046820       kthread_stop
 0006:C0046894       kthread
 0006:C0046910       kthreadd
 0006:C00469F8       __init_waitqueue_head
 0006:C0046A04       add_wait_queue
 0006:C0046A38       add_wait_queue_exclusive
 0006:C0046A6C       remove_wait_queue
 0006:C0046AA4       prepare_to_wait
 0006:C0046AF8       prepare_to_wait_exclusive
 0006:C0046B4C       finish_wait
 0006:C0046BA8       bit_waitqueue
 0006:C0046C04       abort_exclusive_wait
 0006:C0046C74       __wake_up_bit
 0006:C0046CA0       wake_up_bit
 0006:C0046CC0       autoremove_wake_function
 0006:C0046CF4       wake_bit_function
 0006:C0046D50       kfifo_free
 0006:C0046D6C       __kfifo_put
 0006:C0046DEC       __kfifo_get
 0006:C0046E68       kfifo_init
 0006:C0046ECC       kfifo_alloc
 0006:C0046F60       sys_vm86old
 0006:C0046F68       bump_cpu_timer
 0006:C0047098       cleanup_timers
 0006:C004719C       process_cpu_nsleep_restart
 0006:C00471A4       thread_cpu_nsleep
 0006:C00471AC       thread_cpu_nsleep_restart
 0006:C00471B4       check_clock
 0006:C0047238       sample_to_timespec
 0006:C0047278       clear_dead_task
 0006:C00472E0       cpu_clock_sample
 0006:C0047344       arm_timer.isra.1
 0006:C004755C       posix_cpu_clock_getres
 0006:C0047594       thread_cpu_clock_getres
 0006:C004759C       process_cpu_clock_getres
 0006:C00475A4       posix_cpu_clock_set
 0006:C00475B8       thread_group_cputime
 0006:C004765C       cpu_clock_sample_group
 0006:C00476D8       thread_group_cputimer
 0006:C0047754       cpu_timer_sample_group
 0006:C00477CC       posix_cpu_clock_get
 0006:C00478A0       thread_cpu_clock_get
 0006:C00478A8       process_cpu_clock_get
 0006:C00478B0       posix_cpu_timer_create
 0006:C00479AC       thread_cpu_timer_create
 0006:C00479B8       process_cpu_timer_create
 0006:C00479C4       posix_cpu_timer_del
 0006:C0047A74       posix_cpu_timers_exit
 0006:C0047A9C       posix_cpu_timers_exit_group
 0006:C0047AE4       posix_cpu_timer_get
 0006:C0047CD4       posix_cpu_timer_schedule
 0006:C0047DD4       cpu_timer_fire
 0006:C0047E40       posix_cpu_timer_set
 0006:C00481C8       do_cpu_nanosleep
 0006:C00482F0       posix_cpu_nsleep_restart
 0006:C00483C4       run_posix_cpu_timers
 0006:C0048B18       set_process_cpu_timer
 0006:C0048C08       update_rlimit_cpu
 0006:C0048C68       posix_cpu_nsleep
 0006:C0048D64       process_cpu_nsleep
 0006:C0048D6C       __mutex_init
 0006:C0048D90       atomic_dec_and_mutex_lock
 0006:C0048E14       ktime_add_safe
 0006:C0048E94       hrtimer_get_remaining
 0006:C0048EEC       hrtimer_get_res
 0006:C0048F18       ktime_get_real
 0006:C0048F44       ktime_get_ts
 0006:C0048FA4       ktime_get
 0006:C0048FD0       ktime_add_ns
 0006:C0049094       ktime_sub_ns
 0006:C0049134       enqueue_hrtimer
 0006:C00491B8       __hrtimer_init
 0006:C004920C       hrtimer_init
 0006:C0049210       hrtimer_wakeup
 0006:C0049238       update_rmtp
 0006:C00492DC       __remove_hrtimer.isra.19
 0006:C0049320       hrtimer_try_to_cancel
 0006:C004935C       hrtimer_cancel
 0006:C0049378       ktime_divns
 0006:C00493D8       hrtimer_forward
 0006:C0049524       __hrtimer_start_range_ns
 0006:C00495F4       hrtimer_start_range_ns
 0006:C004961C       hrtimer_start
 0006:C0049644       hrtimer_run_pending
 0006:C0049648       hrtimer_run_queues
 0006:C00497D8       hrtimer_init_sleeper
 0006:C00497EC       hrtimer_nanosleep
 0006:C00498FC       sys_nanosleep
 0006:C00499A0       down_read_trylock
 0006:C00499A4       down_write_trylock
 0006:C00499A8       up_read
 0006:C00499AC       up_write
 0006:C00499B0       downgrade_write
 0006:C00499B4       create_new_namespaces
 0006:C0049AC0       free_nsproxy
 0006:C0049AF0       copy_namespaces
 0006:C0049BC0       unshare_nsproxy_namespaces
 0006:C0049C40       switch_task_namespaces
 0006:C0049C80       exit_task_namespaces
 0006:C0049C88       srcu_read_lock
 0006:C0049CA8       srcu_read_unlock
 0006:C0049CBC       srcu_batches_completed
 0006:C0049CC4       init_srcu_struct
 0006:C0049D14       synchronize_srcu
 0006:C0049D80       cleanup_srcu_struct
 0006:C0049DC0       down_trylock
 0006:C0049DE0       down
 0006:C0049E0C       down_interruptible
 0006:C0049E3C       down_timeout
 0006:C0049E6C       down_killable
 0006:C0049E9C       up
 0006:C0049ED4       notifier_chain_register
 0006:C0049F04       notifier_chain_unregister
 0006:C0049F38       notifier_call_chain
 0006:C0049FA0       atomic_notifier_chain_register
 0006:C0049FB8       __atomic_notifier_call_chain
 0006:C0049FBC       atomic_notifier_call_chain
 0006:C0049FD8       raw_notifier_chain_register
 0006:C0049FDC       raw_notifier_chain_unregister
 0006:C0049FE0       __raw_notifier_call_chain
 0006:C0049FE4       raw_notifier_call_chain
 0006:C004A000       atomic_notifier_chain_unregister
 0006:C004A024       unregister_die_notifier
 0006:C004A034       blocking_notifier_chain_register
 0006:C004A088       register_reboot_notifier
 0006:C004A098       blocking_notifier_chain_cond_register
 0006:C004A0F0       blocking_notifier_chain_unregister
 0006:C004A144       unregister_reboot_notifier
 0006:C004A154       __blocking_notifier_call_chain
 0006:C004A1AC       blocking_notifier_call_chain
 0006:C004A1C8       srcu_notifier_chain_register
 0006:C004A21C       srcu_notifier_chain_unregister
 0006:C004A278       __srcu_notifier_call_chain
 0006:C004A2D4       srcu_notifier_call_chain
 0006:C004A2F0       register_die_notifier
 0006:C004A310       srcu_init_notifier_head
 0006:C004A358       notify_die
 0006:C004A398       notes_read
 0006:C004A3C0       uevent_helper_store
 0006:C004A420       uevent_helper_show
 0006:C004A438       uevent_seqnum_show
 0006:C004A454       max_compare
 0006:C004A460       min_compare
 0006:C004A46C       pm_qos_requirement
 0006:C004A480       update_target
 0006:C004A51C       pm_qos_add_requirement
 0006:C004A5C4       pm_qos_update_requirement
 0006:C004A650       pm_qos_remove_requirement
 0006:C004A6F8       pm_qos_add_notifier
 0006:C004A70C       pm_qos_remove_notifier
 0006:C004A720       pm_qos_power_release
 0006:C004A768       pm_qos_power_open
 0006:C004A81C       pm_qos_power_write
 0006:C004A8B0       sched_clock
 0006:C004A8D4       sched_clock_init
 0006:C004A8E8       sched_clock_cpu
 0006:C004A90C       cpu_clock
 0006:C004A924       override_creds
 0006:C004A95C       set_security_override
 0006:C004A964       set_security_override_from_ctx
 0006:C004A96C       set_create_files_as
 0006:C004A984       put_cred_rcu
 0006:C004A9F8       prepare_creds
 0006:C004AAA0       __put_cred
 0006:C004AAD4       revert_creds
 0006:C004AB38       abort_creds
 0006:C004AB98       prepare_kernel_cred
 0006:C004AC7C       commit_creds
 0006:C004AE78       prepare_exec_creds
 0006:C004AE94       prepare_usermodehelper_creds
 0006:C004AF2C       copy_creds
 0006:C004B04C       lowest_in_progress
 0006:C004B0A0       __async_schedule
 0006:C004B1AC       async_schedule
 0006:C004B1B8       async_schedule_domain
 0006:C004B1BC       async_synchronize_cookie_domain
 0006:C004B334       async_synchronize_full_domain
 0006:C004B348       async_synchronize_cookie
 0006:C004B354       async_synchronize_full
 0006:C004B388       async_manager_thread
 0006:C004B47C       async_thread
 0006:C004B714       groups_free
 0006:C004B760       set_groups
 0006:C004B86C       groups_alloc
 0006:C004B934       set_current_groups
 0006:C004B978       groups_search
 0006:C004B9E0       in_group_p
 0006:C004BA14       in_egroup_p
 0006:C004BA48       sys_getgroups
 0006:C004BB00       sys_setgroups
 0006:C004BC3C       thaw_process
 0006:C004BC84       refrigerator
 0006:C004BD3C       freeze_task
 0006:C004BDD8       cancel_freezing
 0006:C004BE18       get_seconds
 0006:C004BE28       getrawmonotonic
 0006:C004BF18       current_kernel_time
 0006:C004BF58       update_xtime_cache
 0006:C004BFD4       timekeeping_valid_for_hres
 0006:C004C00C       read_persistent_clock
 0006:C004C014       timekeeping_resume
 0006:C004C0E0       timekeeping_suspend
 0006:C004C134       update_wall_time
 0006:C004C604       getboottime
 0006:C004C628       monotonic_to_bootbased
 0006:C004C644       ntp_update_frequency
 0006:C004C718       ntp_leap_second
 0006:C004C868       ntp_clear
 0006:C004C8BC       second_overflow
 0006:C004C9D0       do_adjtimex
 0006:C004D05C       timecounter_init
 0006:C004D088       timecounter_read
 0006:C004D0F0       timecounter_cyc2time
 0006:C004D194       select_clocksource
 0006:C004D1D4       clocksource_enqueue
 0006:C004D288       sysfs_show_available_clocksources
 0006:C004D308       sysfs_show_current_clocksources
 0006:C004D33C       sysfs_override_clocksource
 0006:C004D430       clocksource_register
 0006:C004D480       clocksource_resume
 0006:C004D4D8       clocksource_touch_watchdog
 0006:C004D4DC       clocksource_get_next
 0006:C004D520       clocksource_change_rating
 0006:C004D570       clocksource_unregister
 0006:C004D5C4       jiffies_read
 0006:C004D5D8       timer_list_open
 0006:C004D5EC       print_name_offset
 0006:C004D668       timer_list_show
 0006:C004DCF8       sysrq_timer_list_show
 0006:C004DD04       timecompare_transform
 0006:C004DD88       timecompare_offset
 0006:C004E000       __timecompare_update
 0006:C004E104       clockevent_delta2ns
 0006:C004E190       clockevents_notify
 0006:C004E2DC       clockevents_register_device
 0006:C004E3A0       clockevents_set_mode
 0006:C004E3FC       clockevents_shutdown
 0006:C004E41C       clockevents_program_event
 0006:C004E514       clockevents_register_notifier
 0006:C004E538       clockevents_handle_noop
 0006:C004E53C       clockevents_exchange_device
 0006:C004E5C4       tick_periodic.constprop.20
 0006:C004E680       tick_handle_periodic
 0006:C004E768       tick_get_device
 0006:C004E774       tick_is_oneshot_available
 0006:C004E794       tick_setup_periodic
 0006:C004E88C       tick_notify
 0006:C004EA98       hash_futex
 0006:C004EB40       get_futex_key_refs
 0006:C004EB88       cmpxchg_futex_value_locked
 0006:C004EC00       get_futex_key
 0006:C004ED40       wake_futex
 0006:C004EDA8       get_futex_value_locked
 0006:C004EDE8       futex_wait_queue_me
 0006:C004EEE8       fault_in_user_writeable
 0006:C004EF50       lookup_pi_state
 0006:C004F1D8       futex_lock_pi_atomic
 0006:C004F320       free_pi_state
 0006:C004F3C4       refill_pi_state_cache
 0006:C004F450       drop_futex_key_refs
 0006:C004F4D8       futex_wake
 0006:C004F5E8       futex_wait_setup
 0006:C004F6B8       futex_wait
 0006:C004F904       futex_wait_restart
 0006:C004F958       futex_requeue
 0006:C004FF50       fixup_pi_state_owner.isra.12
 0006:C0050080       fixup_owner.isra.13
 0006:C0050130       unqueue_me_pi
 0006:C005019C       futex_lock_pi.isra.15
 0006:C0050424       exit_pi_state_list
 0006:C00504DC       sys_set_robust_list
 0006:C0050524       sys_get_robust_list
 0006:C00505F0       handle_futex_death
 0006:C00506C8       exit_robust_list
 0006:C00507D8       do_futex
 0006:C0051224       sys_futex
 0006:C0051364       __rt_mutex_init
 0006:C0051384       rt_mutex_destroy
 0006:C00513A4       rt_mutex_getprio
 0006:C00513C8       __rt_mutex_adjust_prio
 0006:C00513F0       try_to_take_rt_mutex
 0006:C00514F0       rt_mutex_adjust_prio_chain
 0006:C00517F0       task_blocks_on_rt_mutex
 0006:C0051950       remove_waiter
 0006:C0051A9C       rt_mutex_adjust_prio
 0006:C0051AB4       rt_mutex_timed_lock
 0006:C0051AC8       rt_mutex_adjust_pi
 0006:C0051B30       rt_mutex_init_proxy_locked
 0006:C0051B4C       rt_mutex_proxy_unlock
 0006:C0051B68       rt_mutex_start_proxy_lock
 0006:C0051C7C       rt_mutex_next_owner
 0006:C0051CBC       rt_mutex_finish_proxy_lock
 0006:C0051D54       smp_call_function_single
 0006:C0051D90       sys_chown16
 0006:C0051DAC       sys_lchown16
 0006:C0051DC8       sys_fchown16
 0006:C0051DE4       sys_setregid16
 0006:C0051E00       sys_setgid16
 0006:C0051E14       sys_setreuid16
 0006:C0051E30       sys_setuid16
 0006:C0051E44       sys_setresuid16
 0006:C0051E68       sys_getresuid16
 0006:C0051F04       sys_setresgid16
 0006:C0051F28       sys_getresgid16
 0006:C0051FC4       sys_setfsuid16
 0006:C0051FD8       sys_setfsgid16
 0006:C0051FEC       sys_getgroups16
 0006:C005208C       sys_setgroups16
 0006:C005218C       sys_getuid16
 0006:C00521C4       sys_geteuid16
 0006:C00521FC       sys_getgid16
 0006:C0052234       sys_getegid16
 0006:C005226C       modinfo_version_exists
 0006:C005227C       modinfo_srcversion_exists
 0006:C005228C       module_refcount
 0006:C0052294       module_flags
 0006:C005233C       __module_address
 0006:C00523D4       __module_text_address
 0006:C005242C       register_module_notifier
 0006:C005243C       unregister_module_notifier
 0006:C005244C       find_module
 0006:C00524A4       mod_find_symname
 0006:C0052508       find_symbol_in_section
 0006:C00525AC       m_stop
 0006:C00525B8       free_modinfo_srcversion
 0006:C00525D4       free_modinfo_version
 0006:C00525F0       free_notes_attrs
 0006:C0052640       module_put
 0006:C0052674       __module_put_and_exit
 0006:C0052688       module_unload_free
 0006:C0052730       module_notes_read
 0006:C0052754       show_refcnt
 0006:C005277C       show_initstate
 0006:C00527AC       show_modinfo_srcversion
 0006:C00527C4       show_modinfo_version
 0006:C00527DC       module_sect_show
 0006:C00527F4       setup_modinfo_srcversion
 0006:C0052810       setup_modinfo_version
 0006:C005282C       get_modinfo
 0006:C00528E8       get_ksymbol
 0006:C0052AB0       modules_open
 0006:C0052AC0       m_show
 0006:C0052C1C       m_next
 0006:C0052C2C       m_start
 0006:C0052C54       find_sec.isra.20
 0006:C0052CB4       use_module
 0006:C0052E94       symbol_put_addr
 0006:C0052ED0       each_symbol_in_section.constprop.30
 0006:C0052F34       each_symbol
 0006:C005305C       find_symbol
 0006:C00530B8       __symbol_get
 0006:C005311C       __symbol_put
 0006:C0053160       module_add_modinfo_attrs
 0006:C0053218       module_remove_modinfo_attrs
 0006:C0053270       free_module
 0006:C005338C       sys_delete_module
 0006:C0053588       mod_sysfs_init
 0006:C0053650       mod_sysfs_setup
 0006:C00536E0       arch_mod_section_prepend
 0006:C00536E8       load_module
 0006:C0054900       sys_init_module
 0006:C0054AC4       module_address_lookup
 0006:C0054B78       lookup_module_symbol_name
 0006:C0054C20       lookup_module_symbol_attrs
 0006:C0054CF0       module_get_kallsym
 0006:C0054E28       module_kallsyms_lookup_name
 0006:C0054EB8       module_kallsyms_on_each_symbol
 0006:C0054F3C       search_module_extables
 0006:C0054FA0       is_module_address
 0006:C0054FB4       is_module_text_address
 0006:C0054FC8       print_modules
 0006:C005505C       kallsyms_expand_symbol
 0006:C00550D4       get_symbol_offset
 0006:C0055118       s_stop
 0006:C005511C       kallsyms_on_each_symbol
 0006:C0055198       get_symbol_pos
 0006:C0055294       s_show
 0006:C005534C       update_iter
 0006:C0055450       s_next
 0006:C0055484       s_start
 0006:C00554A4       is_ksym_addr
 0006:C0055508       kallsyms_open
 0006:C0055580       kallsyms_lookup_name
 0006:C00555F0       kallsyms_lookup_size_offset
 0006:C005564C       kallsyms_lookup
 0006:C00556C4       sprint_symbol
 0006:C0055774       __print_symbol
 0006:C005579C       lookup_symbol_name
 0006:C00557F0       lookup_symbol_attrs
 0006:C0055864       register_pm_notifier
 0006:C0055874       unregister_pm_notifier
 0006:C0055884       state_store
 0006:C0055940       state_show
 0006:C00559AC       pm_notifier_call_chain
 0006:C00559DC       pm_set_vt_switch
 0006:C0055A04       pm_prepare_console
 0006:C0055A9C       pm_restore_console
 0006:C0055AEC       try_to_freeze_tasks
 0006:C0055D40       thaw_tasks
 0006:C0055DCC       freeze_processes
 0006:C0055E6C       thaw_processes
 0006:C0055EB0       suspend_set_ops
 0006:C0055EE0       valid_state
 0006:C0055F20       suspend_valid_only_mem
 0006:C0055F30       arch_suspend_disable_irqs
 0006:C0055F38       arch_suspend_enable_irqs
 0006:C0055F40       suspend_devices_and_enter
 0006:C00560C8       enter_state
 0006:C00561A4       pm_suspend
 0006:C00561BC       pm_sysrq_init
 0006:C00561D8       handle_poweroff
 0006:C00561E8       do_poweroff
 0006:C00561EC       softlock_panic
 0006:C0056204       touch_softlockup_watchdog
 0006:C0056218       touch_all_softlockup_watchdogs
 0006:C005622C       __touch_softlockup_watchdog
 0006:C0056250       watchdog
 0006:C00562D0       proc_dosoftlockup_thresh
 0006:C0056310       softlockup_tick
 0006:C005644C       hung_task_panic
 0006:C0056464       watchdog_0
 0006:C005666C       proc_dohung_task_timeout_secs
 0006:C00566C0       noop
 0006:C00566C4       noop_ret
 0006:C00566CC       handle_bad_irq
 0006:C00568DC       irq_to_desc
 0006:C00568F8       ack_bad
 0006:C0056AFC       kstat_irqs_cpu
 0006:C0056B18       irq_to_desc_alloc_node
 0006:C0056B1C       clear_kstat_irqs
 0006:C0056B28       no_action
 0006:C0056B30       handle_IRQ_event
 0006:C0056C1C       early_init_irq_lock_class
 0006:C0056C20       set_irq_wake_real
 0006:C0056C58       synchronize_irq
 0006:C0056D14       set_irq_wake
 0006:C0056DDC       irq_thread
 0006:C0056F0C       __free_irq
 0006:C0057064       remove_irq
 0006:C005706C       free_irq
 0006:C005707C       __disable_irq
 0006:C00570DC       disable_irq_nosync
 0006:C005710C       disable_irq
 0006:C0057140       __enable_irq
 0006:C00571B8       j_warn_slowpath_fmt
 0006:C00571C4       enable_irq
 0006:C00571F4       can_request_irq
 0006:C0057244       compat_irq_chip_set_default_handler
 0006:C0057260       __irq_set_trigger
 0006:C00572F0       __setup_irq
 0006:C005757C       setup_irq
 0006:C00575A0       request_threaded_irq
 0006:C0057684       exit_irq_thread
 0006:C00576E8       noirqdebug_setup
 0006:C0057710       try_one_irq
 0006:C0057808       poll_spurious_irqs
 0006:C0057884       __report_bad_irq
 0006:C0057910       note_interrupt
 0006:C0057AF0       resend_irqs
 0006:C0057B54       check_irq_resend
 0006:C0057BF8       default_disable
 0006:C0057BFC       default_shutdown
 0006:C0057C2C       default_startup
 0006:C0057C50       default_enable
 0006:C0057C80       set_irq_data
 0006:C0057CD8       set_irq_chip_data
 0006:C0057D44       __set_irq_handler
 0006:C0057E88       set_irq_type
 0006:C0057EE0       handle_level_irq
 0006:C0057FC4       dynamic_irq_init
 0006:C005804C       dynamic_irq_cleanup
 0006:C00580E0       set_irq_msi
 0006:C0058140       irq_chip_set_defaults
 0006:C00581D0       set_irq_chip
 0006:C005824C       handle_simple_irq
 0006:C00582D8       handle_fasteoi_irq
 0006:C0058398       handle_edge_irq
 0006:C00584DC       handle_percpu_irq
 0006:C0058558       set_irq_chip_and_handler
 0006:C0058580       set_irq_chip_and_handler_name
 0006:C00585AC       devm_irq_match
 0006:C00585D4       devm_request_threaded_irq
 0006:C005865C       devm_irq_release
 0006:C0058664       devm_free_irq
 0006:C00586B8       probe_irq_on
 0006:C0058850       probe_irq_mask
 0006:C00588E8       probe_irq_off
 0006:C0058988       irq_spurious_read
 0006:C00589C8       register_handler_proc
 0006:C0058AA0       register_irq_proc
 0006:C0058B40       unregister_handler_proc
 0006:C0058B70       init_irq_proc
 0006:C0058BE4       suspend_device_irqs
 0006:C0058C84       resume_device_irqs
 0006:C0058CE8       check_wakeup_irqs
 0006:C0058D50       rcu_batches_completed
 0006:C0058D60       rcu_batches_completed_bh
 0006:C0058D70       check_for_new_grace_period
 0006:C0058DAC       rcu_process_gp_end
 0006:C0058DE8       force_quiescent_state.isra.9
 0006:C0058E10       __rcu_pending
 0006:C0058F04       rcu_start_gp
 0006:C0058F8C       cpu_quiet.isra.7
 0006:C005904C       __call_rcu
 0006:C0059104       call_rcu
 0006:C0059110       call_rcu_bh
 0006:C005911C       __rcu_process_callbacks
 0006:C00592E0       rcu_process_callbacks
 0006:C0059310       rcu_qsctr_inc
 0006:C005932C       rcu_bh_qsctr_inc
 0006:C0059348       rcu_check_callbacks
 0006:C00593CC       rcu_pending
 0006:C0059414       rcu_needs_cpu
 0006:C0059440       get_uts.isra.0
 0006:C0059490       sysctl_uts_string
 0006:C0059544       proc_do_uts_string
 0006:C00595F0       dma_release_declared_memory
 0006:C0059624       dma_declare_coherent_memory
 0006:C005970C       dma_mark_declared_memory_occupied
 0006:C0059770       dma_alloc_from_coherent
 0006:C005981C       dma_release_from_coherent
 0006:C0059880       page_waitqueue
 0006:C00598BC       add_page_wait_queue
 0006:C00598F0       iov_iter_single_seg_count
 0006:C0059924       generic_write_checks
 0006:C0059AFC       pagecache_write_begin
 0006:C0059B10       iov_iter_fault_in_readable
 0006:C0059B90       generic_segment_checks
 0006:C0059C20       wait_on_page_bit
 0006:C0059CBC       sync_page
 0006:C0059D18       __sleep_on_page_lock
 0006:C0059D28       unlock_page
 0006:C0059D5C       __lock_page
 0006:C0059DCC       __lock_page_killable
 0006:C0059E3C       sync_page_killable
 0006:C0059E80       find_get_page
 0006:C0059F0C       find_lock_page
 0006:C0059F78       find_get_pages_contig
 0006:C005A060       find_get_pages_tag
 0006:C005A154       generic_file_mmap
 0006:C005A1B4       generic_file_readonly_mmap
 0006:C005A1D0       pagecache_write_end
 0006:C005A238       should_remove_suid
 0006:C005A298       file_remove_suid
 0006:C005A300       __iovec_copy_from_user_inatomic
 0006:C005A36C       iov_iter_copy_from_user_atomic
 0006:C005A414       iov_iter_copy_from_user
 0006:C005A478       iov_iter_advance
 0006:C005A54C       add_to_page_cache_locked
 0006:C005A634       add_to_page_cache_lru
 0006:C005A6A8       find_or_create_page
 0006:C005A734       grab_cache_page_write_begin
 0006:C005A7CC       read_cache_page_async
 0006:C005A920       read_cache_page
 0006:C005A96C       end_page_writeback
 0006:C005A9D4       grab_cache_page_nowait
 0006:C005AA6C       filemap_fault
 0006:C005ADDC       try_to_release_page
 0006:C005AE40       __remove_from_page_cache
 0006:C005AF48       remove_from_page_cache
 0006:C005AF78       __filemap_fdatawrite_range
 0006:C005AFE0       filemap_fdatawrite
 0006:C005B00C       filemap_flush
 0006:C005B038       filemap_fdatawrite_range
 0006:C005B05C       wait_on_page_writeback_range
 0006:C005B17C       sync_page_range
 0006:C005B238       sync_page_range_nolock
 0006:C005B2D8       filemap_fdatawait
 0006:C005B310       filemap_write_and_wait
 0006:C005B34C       filemap_write_and_wait_range
 0006:C005B3BC       generic_file_direct_write
 0006:C005B594       generic_file_buffered_write
 0006:C005B850       __generic_file_aio_write_nolock
 0006:C005BC30       generic_file_aio_write_nolock
 0006:C005BCD4       generic_file_aio_write
 0006:C005BDAC       __lock_page_nosync
 0006:C005BE1C       find_get_pages
 0006:C005BEE8       file_read_actor
 0006:C005BFFC       generic_file_aio_read
 0006:C005C610       sys_readahead
 0006:C005C6B0       mempool_kfree
 0006:C005C6B4       mempool_kmalloc
 0006:C005C6C4       mempool_kzalloc
 0006:C005C6D4       mempool_alloc_slab
 0006:C005C6E4       mempool_free_slab
 0006:C005C6F4       mempool_alloc_pages
 0006:C005C704       mempool_free_pages
 0006:C005C708       remove_element
 0006:C005C73C       free_pool
 0006:C005C77C       mempool_alloc
 0006:C005C858       add_element
 0006:C005C88C       mempool_create_node
 0006:C005C954       mempool_create
 0006:C005C96C       mempool_resize
 0006:C005CAD0       mempool_free
 0006:C005CB54       mempool_destroy
 0006:C005CB80       register_oom_notifier
 0006:C005CB90       unregister_oom_notifier
 0006:C005CBA0       __oom_kill_task
 0006:C005CC50       oom_kill_process.isra.11
 0006:C005CE00       badness
 0006:C005CF90       __out_of_memory
 0006:C005D104       try_set_zone_oom
 0006:C005D1AC       clear_zonelist_oom
 0006:C005D208       pagefault_out_of_memory
 0006:C005D280       out_of_memory
 0006:C005D314       sys_fadvise64_64
 0006:C005D4D0       probe_kernel_read
 0006:C005D554       probe_kernel_write
 0006:C005D5D8       bad_page
 0006:C005D710       destroy_compound_page
 0006:C005D7B4       nr_free_zone_pages
 0006:C005D81C       nr_free_buffer_pages
 0006:C005D824       move_freepages_block
 0006:C005D964       si_meminfo
 0006:C005D9B0       calculate_totalreserve_pages
 0006:C005DA2C       setup_per_zone_lowmem_reserve
 0006:C005DB00       build_zonelists_node.constprop.46
 0006:C005DB60       build_zonelists.constprop.45
 0006:C005DBC8       free_pages_bulk.isra.29.constprop.49
 0006:C005DDAC       drain_pages.constprop.47
 0006:C005DE04       prep_compound_page
 0006:C005DE54       drain_local_pages
 0006:C005DE58       drain_all_pages
 0006:C005DE6C       split_page
 0006:C005DEA4       zone_watermark_ok
 0006:C005DF38       nr_free_pagecache_pages
 0006:C005DF40       show_free_areas
 0006:C005E1EC       build_all_zonelists
 0006:C005E2A8       calculate_zone_inactive_ratio
 0006:C005E2D4       lowmem_reserve_ratio_sysctl_handler
 0006:C005E2FC       percpu_pagelist_fraction_sysctl_handler
 0006:C005E398       get_pageblock_flags_group
 0006:C005E424       __free_pages_ok
 0006:C005E75C       free_compound_page
 0006:C005E770       free_hot_cold_page
 0006:C005E940       free_hot_page
 0006:C005E948       __free_pages
 0006:C005E984       free_pages
 0006:C005E9B0       free_pages_exact
 0006:C005E9EC       free_cold_page
 0006:C005E9F4       __pagevec_free
 0006:C005EA24       set_pageblock_flags_group
 0006:C005EAF8       set_pageblock_migratetype
 0006:C005EB18       __rmqueue
 0006:C005EDE8       rmqueue_bulk.constprop.48
 0006:C005EEA4       get_page_from_freelist
 0006:C005F29C       __alloc_pages_nodemask
 0006:C005F7AC       __get_free_pages
 0006:C005F7E4       alloc_pages_exact
 0006:C005F880       get_zeroed_page
 0006:C005F8C0       setup_per_zone_wmarks
 0006:C005FA74       min_free_kbytes_sysctl_handler
 0006:C005FAA8       set_migratetype_isolate
 0006:C005FB20       unset_migratetype_isolate
 0006:C005FB7C       bdi_set_max_ratio
 0006:C005FBCC       bdi_writeout_inc
 0006:C005FBF8       laptop_timer_fn
 0006:C005FC08       wb_kupdate
 0006:C005FD38       laptop_flush
 0006:C005FD3C       test_set_page_writeback
 0006:C005FE80       mapping_tagged
 0006:C005FE88       __writepage
 0006:C005FEDC       set_page_dirty
 0006:C005FF64       set_page_dirty_lock
 0006:C005FFAC       clear_page_dirty_for_io
 0006:C00600F8       write_cache_pages
 0006:C0060460       generic_writepages
 0006:C0060488       write_one_page
 0006:C00605A4       wb_timer_fn
 0006:C00605E0       dirty_background_ratio_handler
 0006:C0060628       dirty_background_bytes_handler
 0006:C0060670       task_dirty_inc
 0006:C0060698       bdi_set_min_ratio
 0006:C00606E8       determine_dirtyable_memory
 0006:C0060708       calc_period_shift
 0006:C0060760       update_completion_period
 0006:C0060790       dirty_ratio_handler
 0006:C0060800       dirty_bytes_handler
 0006:C0060870       get_dirty_limits
 0006:C0060A98       balance_dirty_pages_ratelimited_nr
 0006:C0060C9C       background_writeout
 0006:C0060D6C       set_page_dirty_balance
 0006:C0060DC0       throttle_vm_writeout
 0006:C0060E30       wakeup_pdflush
 0006:C0060E54       dirty_writeback_centisecs_handler
 0006:C0060EBC       laptop_io_completion
 0006:C0060EE4       laptop_sync_completion
 0006:C0060EF0       writeback_set_ratelimit
 0006:C0060F3C       do_writepages
 0006:C0060F90       __set_page_dirty_no_writeback
 0006:C0060FBC       account_page_dirtied
 0006:C006103C       __set_page_dirty_nobuffers
 0006:C0061174       redirty_page_for_writepage
 0006:C0061188       test_clear_page_writeback
 0006:C00612B8       start_one_pdflush_thread
 0006:C0061304       pdflush
 0006:C00614D8       pdflush_operation
 0006:C0061564       file_ra_state_init
 0006:C0061580       __do_page_cache_readahead
 0006:C006175C       get_init_ra_size
 0006:C006178C       read_cache_pages_invalidate_page
 0006:C00617F8       read_cache_pages
 0006:C00618CC       max_sane_readahead
 0006:C00618F0       force_page_cache_readahead
 0006:C006198C       ra_submit
 0006:C00619B4       ondemand_readahead
 0006:C0061B74       page_cache_sync_readahead
 0006:C0061BA0       page_cache_async_readahead
 0006:C0061C34       put_compound_page
 0006:C0061C68       put_page
 0006:C0061D9C       put_pages_list
 0006:C0061DE4       pagevec_lookup
 0006:C0061E08       pagevec_lookup_tag
 0006:C0061E38       activate_page
 0006:C0061FD0       mark_page_accessed
 0006:C0062054       add_page_to_unevictable_list
 0006:C0062104       lru_add_drain_all
 0006:C0062110       release_pages
 0006:C00622F4       ____pagevec_lru_add
 0006:C0062464       __lru_cache_add
 0006:C00624BC       lru_cache_add_lru
 0006:C0062504       pagevec_move_tail.constprop.9
 0006:C00625F4       drain_cpu_pagevecs.isra.8
 0006:C006264C       lru_add_drain
 0006:C0062650       lru_add_drain_per_cpu
 0006:C0062654       __pagevec_release
 0006:C0062678       rotate_reclaimable_page
 0006:C0062718       pagevec_strip
 0006:C006278C       invalidate_mapping_pages
 0006:C00628EC       invalidate_inode_pages2_range
 0006:C0062B94       invalidate_inode_pages2
 0006:C0062BA0       cancel_dirty_page
 0006:C0062C4C       do_invalidatepage
 0006:C0062C6C       truncate_complete_page.part.7
 0006:C0062CE8       truncate_inode_pages_range
 0006:C0063068       truncate_inode_pages
 0006:C0063084       clear_active_flags
 0006:C0063104       register_shrinker
 0006:C006314C       unregister_shrinker
 0006:C0063198       move_active_pages_to_lru
 0006:C0063310       read_scan_unevictable_node
 0006:C006332C       __remove_mapping
 0006:C006341C       shrink_slab
 0006:C0063574       remove_mapping
 0006:C00635A4       __isolate_lru_page
 0006:C0063684       isolate_pages_global
 0006:C00638B8       isolate_lru_page
 0006:C00639F8       wakeup_kswapd
 0006:C0063A68       global_lru_pages
 0006:C0063A90       kswapd_run
 0006:C0063B38       page_evictable
 0006:C0063C3C       putback_lru_page
 0006:C0063D54       shrink_page_list
 0006:C0064510       shrink_active_list.isra.21
 0006:C00647B8       shrink_zone
 0006:C0064FD4       try_to_free_pages
 0006:C0065290       kswapd
 0006:C0065790       check_move_unevictable_page
 0006:C0065900       scan_zone_unevictable_pages
 0006:C00659AC       write_scan_unevictable_node
 0006:C0065A08       scan_mapping_unevictable_pages
 0006:C0065B3C       scan_unevictable_handler
 0006:C0065BB0       scan_unevictable_register_node
 0006:C0065BBC       scan_unevictable_unregister_node
 0006:C0065BC8       shmem_dir_map
 0006:C0065C00       shmem_swp_map
 0006:C0065C38       shmem_free_blocks
 0006:C0065C70       shmem_recalc_inode
 0006:C0065CCC       shmem_swp_set
 0006:C0065D28       shmem_mmap
 0006:C0065D6C       shmem_free_swp
 0006:C0065DB4       shmem_truncate_range
 0006:C00664A4       shmem_truncate
 0006:C00664C4       shmem_get_sb
 0006:C00664D4       shmem_delete_inode
 0006:C00665F4       shmem_destroy_inode
 0006:C0066608       shmem_alloc_inode
 0006:C006662C       shmem_put_super
 0006:C0066648       init_once
 0006:C0066650       shmem_swp_entry
 0006:C0066788       shmem_swp_alloc
 0006:C006691C       shmem_getpage
 0006:C0066FD8       shmem_fault
 0006:C0067048       shmem_notify_change
 0006:C006712C       shmem_writepage
 0006:C0067340       shmem_get_inode.constprop.21
 0006:C00674E4       shmem_fill_super
 0006:C0067608       shmem_file_setup
 0006:C00677CC       shmem_unuse
 0006:C0067BA0       shmem_lock
 0006:C0067C68       shmem_zero_setup
 0006:C0067CC8       vma_prio_tree_add
 0006:C0067D84       vma_prio_tree_insert
 0006:C0067DC0       vma_prio_tree_remove
 0006:C0067EA4       vma_prio_tree_next
 0006:C0067F18       kstrdup
 0006:C0067F68       kmemdup
 0006:C0067F9C       kstrndup
 0006:C0067FE8       memdup_user
 0006:C0068074       __krealloc
 0006:C00680EC       krealloc
 0006:C006812C       kzfree
 0006:C006815C       strndup_user
 0006:C0068224       get_user_pages_fast
 0006:C0068298       arch_pick_mmap_layout
 0006:C00682BC       first_online_pgdat
 0006:C00682C8       next_online_pgdat
 0006:C00682D0       next_zone
 0006:C00682E8       next_zones_zonelist
 0006:C0068320       frag_stop
 0006:C0068324       walk_zones_in_node
 0006:C0068378       frag_show
 0006:C0068390       zoneinfo_show
 0006:C00683A8       vmstat_next
 0006:C00683D4       zoneinfo_open
 0006:C00683E4       vmstat_open
 0006:C00683F4       pagetypeinfo_open
 0006:C0068404       fragmentation_open
 0006:C0068414       vmstat_show
 0006:C0068450       zoneinfo_show_print
 0006:C0068590       pagetypeinfo_showfree_print
 0006:C006863C       frag_show_print
 0006:C0068694       frag_next
 0006:C00686B4       frag_start
 0006:C00686F4       vmstat_stop
 0006:C0068710       pagetypeinfo_showblockcount_print
 0006:C006881C       sum_vm_events.isra.4
 0006:C006885C       all_vm_events
 0006:C0068860       vmstat_start
 0006:C00688FC       pagetypeinfo_show
 0006:C0068A08       vm_events_fold_cpu
 0006:C0068A2C       default_unplug_io_fn
 0006:C0068A30       read_ahead_kb_store
 0006:C0068A9C       max_ratio_store
 0006:C0068B10       max_ratio_show
 0006:C0068B44       min_ratio_show
 0006:C0068B78       read_ahead_kb_show
 0006:C0068BB0       min_ratio_store
 0006:C0068C24       bdi_register
 0006:C0068C88       bdi_register_dev
 0006:C0068CB8       bdi_unregister
 0006:C0068CE0       bdi_init
 0006:C0068D20       bdi_destroy
 0006:C0068D38       clear_bdi_congested
 0006:C0068D84       set_bdi_congested
 0006:C0068D9C       congestion_wait
 0006:C0068E28       start_isolate_page_range
 0006:C0068EDC       undo_isolate_page_range
 0006:C0068F6C       test_pages_isolated
 0006:C0069098       mminit_verify_zonelist
 0006:C0069154       sys_remap_file_pages
 0006:C006952C       sys_madvise
 0006:C0069A5C       follow_pfn
 0006:C0069ACC       print_bad_pte
 0006:C0069C94       __do_fault
 0006:C006A088       pgd_clear_bad
 0006:C006A0A0       pud_clear_bad
 0006:C006A0A4       pmd_clear_bad
 0006:C006A0D4       free_pgd_range
 0006:C006A23C       free_pgtables
 0006:C006A2E0       __pte_alloc
 0006:C006A41C       remap_pfn_range
 0006:C006A60C       __pte_alloc_kernel
 0006:C006A688       apply_to_page_range
 0006:C006A828       vm_normal_page
 0006:C006A8D4       do_wp_page.isra.51
 0006:C006AF60       copy_page_range
 0006:C006B2C8       unmap_vmas
 0006:C006B898       zap_page_range
 0006:C006B948       zap_vma_ptes
 0006:C006B98C       unmap_mapping_range_vma
 0006:C006BA40       unmap_mapping_range
 0006:C006BC78       vmtruncate
 0006:C006BDA4       follow_page
 0006:C006BEF0       get_locked_pte
 0006:C006BF64       insert_page.isra.53
 0006:C006C034       vm_insert_page
 0006:C006C094       insert_pfn
 0006:C006C104       vm_insert_pfn
 0006:C006C1D8       vm_insert_mixed
 0006:C006C278       vmtruncate_range
 0006:C006C358       handle_mm_fault
 0006:C006C89C       __get_user_pages
 0006:C006CB38       get_user_pages
 0006:C006CB70       __pmd_alloc
 0006:C006CB88       make_pages_present
 0006:C006CC54       get_gate_vma
 0006:C006CC5C       in_gate_area_no_task
 0006:C006CC64       access_process_vm
 0006:C006CDA4       print_vma_addr
 0006:C006CE94       mincore_page
 0006:C006CEC8       sys_mincore
 0006:C006D19C       can_do_mlock
 0006:C006D1DC       __clear_page_mlock
 0006:C006D280       mlock_vma_page
 0006:C006D33C       __mlock_vma_pages_range
 0006:C006D434       mlock_vma_pages_range
 0006:C006D4CC       munlock_vma_pages_range
 0006:C006D640       mlock_fixup
 0006:C006D7CC       do_mlock
 0006:C006D8C4       do_mlockall
 0006:C006D950       sys_mlock
 0006:C006DA14       sys_munlock
 0006:C006DA80       sys_mlockall
 0006:C006DB34       sys_munlockall
 0006:C006DB78       user_shm_lock
 0006:C006DBF8       user_shm_unlock
 0006:C006DC14       account_locked_memory
 0006:C006DC80       refund_locked_memory
 0006:C006DCC4       vm_get_page_prot
 0006:C006DCD8       find_vma_prepare
 0006:C006DD4C       can_vma_merge_before
 0006:C006DDD4       can_vma_merge_after
 0006:C006DE68       find_vma
 0006:C006DEE4       special_mapping_close
 0006:C006DEE8       special_mapping_fault
 0006:C006DF64       get_unmapped_area
 0006:C006DFDC       __remove_shared_vm_struct
 0006:C006E05C       __vma_link_file
 0006:C006E0F4       remove_vma
 0006:C006E15C       unmap_region
 0006:C006E254       arch_unmap_area
 0006:C006E274       vma_link
 0006:C006E308       __vm_enough_memory
 0006:C006E428       unlink_file_vma
 0006:C006E43C       __vma_link_rb
 0006:C006E460       vma_adjust
 0006:C006E804       vma_merge
 0006:C006E9F0       vm_stat_account
 0006:C006EA40       vma_wants_writenotify
 0006:C006EAD0       arch_get_unmapped_area_topdown
 0006:C006EC50       arch_unmap_area_topdown
 0006:C006EC70       find_vma_prev
 0006:C006ECD0       find_mergeable_anon_vma
 0006:C006EDD8       split_vma
 0006:C006EF04       do_munmap
 0006:C006F160       sys_munmap
 0006:C006F1B0       exit_mmap
 0006:C006F2EC       insert_vm_struct
 0006:C006F3E8       copy_vma
 0006:C006F54C       may_expand_vm
 0006:C006F57C       mmap_region
 0006:C006F950       do_mmap_pgoff
 0006:C006FC7C       expand_downwards
 0006:C006FDD8       expand_stack_downwards
 0006:C006FDDC       expand_stack
 0006:C006FDE0       find_extend_vma
 0006:C006FE5C       do_brk
 0006:C00700EC       sys_brk
 0006:C00701F0       install_special_mapping
 0006:C00702A0       mm_drop_all_locks
 0006:C00703A0       mm_take_all_locks
 0006:C00704D8       mprotect_fixup
 0006:C0070868       sys_mprotect
 0006:C0070A20       move_page_tables
 0006:C0070C34       do_mremap
 0006:C0071258       sys_mremap
 0006:C00712C4       sys_msync
 0006:C0071474       anon_vma_ctor
 0006:C0071480       __page_set_anon_rmap
 0006:C0071510       try_to_mlock_page
 0006:C0071560       anon_vma_prepare
 0006:C00715F4       __anon_vma_merge
 0006:C0071644       __anon_vma_link
 0006:C0071668       anon_vma_link
 0006:C007168C       anon_vma_unlink
 0006:C00716DC       page_address_in_vma
 0006:C0071750       page_check_address
 0006:C00717EC       page_referenced_one
 0006:C0071944       page_referenced_file.isra.10
 0006:C00719FC       page_mkclean
 0006:C0071BC0       page_mapped_in_vma
 0006:C0071C1C       page_referenced
 0006:C0071D4C       page_add_anon_rmap
 0006:C0071D78       page_add_new_anon_rmap
 0006:C0071DE4       page_add_file_rmap
 0006:C0071E54       page_remove_rmap
 0006:C0071EE4       try_to_unmap_one
 0006:C0072110       try_to_unmap_anon
 0006:C00721F0       try_to_unmap_file
 0006:C0072734       try_to_unmap
 0006:C0072794       try_to_munlock
 0006:C00727B0       vmalloc_to_page
 0006:C0072814       vmalloc_to_pfn
 0006:C0072838       __find_vmap_area
 0006:C0072874       addr_to_vb_idx
 0006:C0072898       find_vm_area
 0006:C00728BC       f
 0006:C00728C4       s_start_0
 0006:C0072914       s_next_0
 0006:C0072930       s_stop_0
 0006:C0072934       rcu_free_va
 0006:C007293C       rcu_free_vb
 0006:C0072944       remap_vmalloc_range
 0006:C00729F4       vmalloc_open
 0006:C0072A2C       s_show_0
 0006:C0072B64       vunmap_page_range
 0006:C0072C8C       __free_vmap_area
 0006:C0072D0C       __purge_vmap_area_lazy.isra.20
 0006:C0072E60       vm_unmap_aliases
 0006:C0072F50       free_unmap_vmap_area_noflush
 0006:C0072FBC       free_unmap_vmap_area
 0006:C0072FF4       vm_unmap_ram
 0006:C0073194       __insert_vmap_area
 0006:C0073260       alloc_vmap_area.isra.23
 0006:C0073468       __get_vm_area_node.isra.24
 0006:C00735C8       __get_vm_area
 0006:C00735E0       vmap_page_range_noflush
 0006:C0073764       vm_map_ram
 0006:C0073A64       map_vm_area
 0006:C0073AD8       map_kernel_range_noflush
 0006:C0073AE0       unmap_kernel_range_noflush
 0006:C0073AE8       unmap_kernel_range
 0006:C0073B34       __get_vm_area_caller
 0006:C0073B54       get_vm_area
 0006:C0073B88       get_vm_area_caller
 0006:C0073BC0       get_vm_area_node
 0006:C0073BF0       remove_vm_area
 0006:C0073C58       __vunmap
 0006:C0073D28       vfree
 0006:C0073D6C       vunmap
 0006:C0073DA8       vmap
 0006:C0073E0C       __vmalloc_area_node
 0006:C0073F20       __vmalloc_node
 0006:C0073FB8       __vmalloc
 0006:C0073FD0       vmalloc
 0006:C0073FF8       vmalloc_user
 0006:C0074040       vmalloc_node
 0006:C0074068       vmalloc_32
 0006:C0074090       vmalloc_32_user
 0006:C00740D8       free_vm_area
 0006:C007410C       __vmalloc_area
 0006:C0074124       vmalloc_exec
 0006:C0074150       vread
 0006:C00741F4       vwrite
 0006:C0074298       vmalloc_sync_all
 0006:C007429C       alloc_vm_area
 0006:C00742FC       walk_page_range
 0006:C0074524       end_swap_bio_read
 0006:C00745D0       end_swap_bio_write
 0006:C0074668       get_swap_bio
 0006:C00746F4       swap_writepage
 0006:C0074798       swap_readpage
 0006:C00747F4       __add_to_swap_cache
 0006:C0074908       show_swap_cache_info
 0006:C0074984       add_to_swap_cache
 0006:C00749B0       __delete_from_swap_cache
 0006:C0074A5C       add_to_swap
 0006:C0074AD8       delete_from_swap_cache
 0006:C0074B08       free_page_and_swap_cache
 0006:C0074B60       free_pages_and_swap_cache
 0006:C0074C04       lookup_swap_cache
 0006:C0074C40       read_swap_cache_async
 0006:C0074D68       swapin_readahead
 0006:C0074DF0       swap_next
 0006:C0074E54       wait_for_discard
 0006:C0074E64       discard_swap_cluster
 0006:C0074F50       swap_info_get
 0006:C0075008       __swap_duplicate
 0006:C0075154       swap_start
 0006:C00751CC       swap_stop
 0006:C00751D8       destroy_swap_extents
 0006:C007521C       swaps_open
 0006:C007522C       swap_show
 0006:C00752E4       swap_entry_free
 0006:C00753B0       sys_swapon
 0006:C0075E1C       swap_unplug_io_fn
 0006:C0075EB8       swap_free
 0006:C0075EDC       unuse_mm
 0006:C0076140       swapcache_free
 0006:C0076164       reuse_swap_page
 0006:C00761F4       try_to_free_swap
 0006:C0076274       __try_to_reclaim_swap
 0006:C00762FC       get_swap_page
 0006:C00767A0       get_swap_page_of_type
 0006:C0076BC4       free_swap_and_cache
 0006:C0076CA4       map_swap_page
 0006:C0076D18       sys_swapoff
 0006:C00776B4       si_swapinfo
 0006:C0077720       swap_duplicate
 0006:C0077728       swapcache_prepare
 0006:C0077730       get_swap_info_struct
 0006:C0077744       valid_swaphandles
 0006:C0077854       grab_swap_token
 0006:C00778E8       __put_swap_token
 0006:C0077904       dmam_pool_match
 0006:C0077918       show_pools
 0006:C00779FC       dma_pool_create
 0006:C0077B60       dma_pool_destroy
 0006:C0077C7C       dmam_pool_release
 0006:C0077C84       dmam_pool_create
 0006:C0077D08       dma_pool_free
 0006:C0077E0C       dmam_pool_destroy
 0006:C0077E54       dma_pool_alloc
 0006:C0078000       kmem_cache_size
 0006:C0078008       kmem_cache_name
 0006:C0078010       ksize
 0006:C00780A0       s_stop_1
 0006:C00780AC       kmem_freepages
 0006:C00781D8       slabinfo_open
 0006:C00781E8       s_show_1
 0006:C007842C       s_next_1
 0006:C007843C       s_start_1
 0006:C00784C0       free_block
 0006:C00785F8       drain_array.isra.42
 0006:C00786B8       cache_flusharray
 0006:C0078748       kmem_cache_free
 0006:C00787A0       slab_destroy
 0006:C0078804       drain_freelist
 0006:C007889C       cache_reap
 0006:C007899C       __cache_shrink
 0006:C0078A34       kmem_cache_shrink
 0006:C0078A9C       kmem_rcu_free
 0006:C0078AD0       kfree
 0006:C0078B7C       __kmem_cache_destroy
 0006:C0078BBC       kmem_cache_destroy
 0006:C0078CAC       cache_alloc_refill
 0006:C007917C       kmem_cache_alloc
 0006:C0079210       __kmalloc
 0006:C00792E4       alloc_arraycache.isra.28
 0006:C0079314       do_tune_cpucache
 0006:C0079548       enable_cpucache
 0006:C00795C8       slabinfo_write
 0006:C0079750       cache_estimate
 0006:C00797E8       kmem_cache_create
 0006:C0079C64       slab_is_available
 0006:C0079C80       kmem_ptr_validate
 0006:C0079D30       __put_unused_fd
 0006:C0079D64       put_unused_fd
 0006:C0079D80       generic_file_open
 0006:C0079DAC       nonseekable_open
 0006:C0079DC0       vfs_statfs
 0006:C0079E38       vfs_statfs_native
 0006:C0079F38       vfs_statfs64
 0006:C0079FEC       chown_common
 0006:C007A070       filp_close
 0006:C007A0E0       sys_close
 0006:C007A188       fd_install
 0006:C007A1D4       __dentry_open.isra.11
 0006:C007A440       lookup_instantiate_filp
 0006:C007A4EC       dentry_open
 0006:C007A56C       sys_statfs
 0006:C007A604       sys_statfs64
 0006:C007A6B0       sys_fstatfs
 0006:C007A738       sys_fstatfs64
 0006:C007A7D8       do_truncate
 0006:C007A86C       do_sys_truncate
 0006:C007AA18       do_sys_ftruncate
 0006:C007AB68       sys_truncate
 0006:C007AB74       sys_ftruncate
 0006:C007AB94       sys_truncate64
 0006:C007AB98       sys_ftruncate64
 0006:C007ABB0       do_fallocate
 0006:C007AC98       sys_fallocate
 0006:C007ACE8       sys_faccessat
 0006:C007AE80       sys_access
 0006:C007AE94       sys_chdir
 0006:C007AEFC       sys_fchdir
 0006:C007AF68       sys_chroot
 0006:C007AFE4       sys_fchmod
 0006:C007B080       sys_fchmodat
 0006:C007B124       sys_chmod
 0006:C007B138       sys_chown
 0006:C007B1A4       sys_fchownat
 0006:C007B21C       sys_lchown
 0006:C007B288       sys_fchown
 0006:C007B2DC       nameidata_to_filp
 0006:C007B324       do_sys_open
 0006:C007B404       sys_open
 0006:C007B428       sys_openat
 0006:C007B42C       sys_creat
 0006:C007B43C       sys_vhangup
 0006:C007B464       generic_file_llseek_unlocked
 0006:C007B504       no_llseek
 0006:C007B510       default_llseek
 0006:C007B590       vfs_llseek
 0006:C007B5EC       iov_shorten
 0006:C007B630       generic_file_llseek
 0006:C007B690       wait_on_retry_sync_kiocb
 0006:C007B6EC       do_sync_read
 0006:C007B7D8       do_sync_write
 0006:C007B8C4       sys_lseek
 0006:C007B934       sys_llseek
 0006:C007B9F8       rw_verify_area
 0006:C007BAB8       vfs_read
 0006:C007BBD0       vfs_write
 0006:C007BCEC       do_sendfile
 0006:C007BE9C       sys_read
 0006:C007BF00       sys_write
 0006:C007BF64       sys_pread64
 0006:C007BFDC       sys_pwrite64
 0006:C007C054       do_sync_readv_writev
 0006:C007C13C       do_loop_readv_writev
 0006:C007C1A8       rw_copy_check_uvector
 0006:C007C29C       do_readv_writev
 0006:C007C41C       vfs_readv
 0006:C007C480       vfs_writev
 0006:C007C4E4       sys_readv
 0006:C007C548       sys_writev
 0006:C007C5AC       sys_preadv
 0006:C007C630       sys_pwritev
 0006:C007C6B4       sys_sendfile
 0006:C007C738       sys_sendfile64
 0006:C007C800       file_free_rcu
 0006:C007C860       get_max_files
 0006:C007C870       fget
 0006:C007C8EC       get_empty_filp
 0006:C007C9F8       drop_file_write_access
 0006:C007CA50       init_file
 0006:C007CAF8       alloc_file
 0006:C007CB38       proc_nr_files
 0006:C007CB5C       fget_light
 0006:C007CC0C       file_move
 0006:C007CC38       file_kill
 0006:C007CC58       __fput
 0006:C007CDE8       fput
 0006:C007CE0C       put_filp
 0006:C007CE64       fs_may_remount_ro
 0006:C007CEC0       mark_files_ro
 0006:C007CF6C       ns_test_super
 0006:C007CF80       set_bdev_super
 0006:C007CF94       test_bdev_super
 0006:C007CFA8       compare_single
 0006:C007CFB0       lock_super
 0006:C007CFE0       unlock_super
 0006:C007D010       generic_shutdown_super
 0006:C007D10C       set_anon_super
 0006:C007D1AC       ns_set_super
 0006:C007D1B8       kill_anon_super
 0006:C007D1F0       kill_litter_super
 0006:C007D214       kill_block_super
 0006:C007D244       __put_super
 0006:C007D288       deactivate_super
 0006:C007D2E0       deactivate_locked_super
 0006:C007D33C       drop_super
 0006:C007D358       sget
 0006:C007D64C       get_sb_ns
 0006:C007D6DC       get_sb_nodev
 0006:C007D758       get_sb_bdev
 0006:C007D8A8       vfs_kern_mount
 0006:C007D958       kern_mount_data
 0006:C007D968       do_kern_mount
 0006:C007DA4C       __put_super_and_need_restart
 0006:C007DA94       get_super
 0006:C007DB2C       sync_supers
 0006:C007DBD0       user_get_super
 0006:C007DC58       sys_ustat
 0006:C007DD24       do_remount_sb
 0006:C007DE04       do_emergency_remount
 0006:C007DEA8       get_sb_single
 0006:C007DF4C       emergency_remount
 0006:C007DF94       cdev_purge
 0006:C007DFC8       exact_match
 0006:C007DFD0       cdev_default_release
 0006:C007DFD4       __unregister_chrdev_region
 0006:C007E05C       unregister_chrdev_region
 0006:C007E0A4       cdev_dynamic_release
 0006:C007E0BC       __register_chrdev_region
 0006:C007E228       register_chrdev_region
 0006:C007E2C0       alloc_chrdev_region
 0006:C007E2E8       cdev_index
 0006:C007E324       cdev_get
 0006:C007E380       exact_lock
 0006:C007E39C       cdev_add
 0006:C007E3E0       cdev_del
 0006:C007E40C       unregister_chrdev
 0006:C007E440       cdev_alloc
 0006:C007E484       register_chrdev
 0006:C007E574       cdev_init
 0006:C007E5AC       base_probe
 0006:C007E5F8       chrdev_show
 0006:C007E658       cdev_put
 0006:C007E678       chrdev_open
 0006:C007E7C4       cd_forget
 0006:C007E7EC       generic_fillattr
 0006:C007E888       vfs_getattr
 0006:C007E8C0       inode_sub_bytes
 0006:C007E930       inode_get_bytes
 0006:C007E958       inode_set_bytes
 0006:C007E978       vfs_fstat
 0006:C007E9B4       vfs_fstatat
 0006:C007EA08       vfs_stat
 0006:C007EA20       vfs_lstat
 0006:C007EA38       cp_new_stat
 0006:C007EBE0       cp_new_stat64
 0006:C007ED18       sys_newstat
 0006:C007ED48       sys_newlstat
 0006:C007ED78       sys_newfstat
 0006:C007EDA8       sys_readlinkat
 0006:C007EE28       sys_readlink
 0006:C007EE4C       sys_stat64
 0006:C007EE7C       sys_lstat64
 0006:C007EEAC       sys_fstat64
 0006:C007EEDC       sys_fstatat64
 0006:C007EF0C       __inode_add_bytes
 0006:C007EF64       inode_add_bytes
 0006:C007EF68       unregister_binfmt
 0006:C007EF8C       set_binfmt
 0006:C007F008       get_arg_page
 0006:C007F0A8       setup_arg_pages
 0006:C007F318       open_exec
 0006:C007F3C8       kernel_read
 0006:C007F440       install_exec_creds
 0006:C007F474       prepare_binprm
 0006:C007F574       search_binary_handler
 0006:C007F7A8       zap_process
 0006:C007F824       __register_binfmt
 0006:C007F874       remove_arg_zero
 0006:C007F948       copy_strings
 0006:C007FBA0       copy_strings_kernel
 0006:C007FC00       count.constprop.32
 0006:C007FC58       sys_uselib
 0006:C007FDAC       bprm_mm_init
 0006:C007FEFC       get_task_comm
 0006:C007FF18       set_task_comm
 0006:C007FF24       prepare_bprm_creds
 0006:C007FF78       free_bprm
 0006:C007FFB8       check_unsafe_exec
 0006:C0080050       do_execve
 0006:C0080290       set_dumpable
 0006:C008031C       flush_old_exec
 0006:C00808E4       get_dumpable
 0006:C00808F8       do_coredump
 0006:C00810F8       generic_pipe_buf_unmap
 0006:C0081128       generic_pipe_buf_confirm
 0006:C0081130       bad_pipe_r
 0006:C0081138       bad_pipe_w
 0006:C0081140       pipe_poll
 0006:C00811D8       pipefs_delete_dentry
 0006:C00811EC       pipe_unlock
 0006:C0081200       pipe_read_open
 0006:C0081240       pipe_ioctl
 0006:C00812C0       pipe_write_open
 0006:C0081300       pipe_rdwr_open
 0006:C0081368       iov_fault_in_pages_read
 0006:C00813F8       generic_pipe_buf_get
 0006:C0081424       generic_pipe_buf_steal
 0006:C008147C       anon_pipe_buf_release
 0006:C00814B4       pipe_read_fasync
 0006:C0081504       pipe_write_fasync
 0006:C0081554       pipe_rdwr_fasync
 0006:C00815DC       pipe_iov_copy_from_user
 0006:C008169C       pipefs_dname
 0006:C00816C0       pipefs_get_sb
 0006:C00816D8       generic_pipe_buf_map
 0006:C0081728       pipe_lock_nested.isra.8
 0006:C0081738       pipe_lock
 0006:C0081740       pipe_double_lock
 0006:C008178C       pipe_wait
 0006:C008180C       pipe_read
 0006:C0081C10       pipe_write
 0006:C0082040       generic_pipe_buf_release
 0006:C0082048       alloc_pipe_info
 0006:C0082094       __free_pipe_info
 0006:C00820EC       free_pipe_info
 0006:C0082108       pipe_release
 0006:C008219C       pipe_read_release
 0006:C00821A8       pipe_write_release
 0006:C00821B4       pipe_rdwr_release
 0006:C00821C8       create_write_pipe
 0006:C0082358       free_write_pipe
 0006:C0082380       create_read_pipe
 0006:C00823FC       do_pipe_flags
 0006:C00824C0       sys_pipe2
 0006:C0082538       sys_pipe
 0006:C0082540       get_write_access
 0006:C0082574       getname
 0006:C0082640       generic_permission
 0006:C0082764       inode_permission
 0006:C00827C8       file_permission
 0006:C00827D4       path_put
 0006:C0082800       follow_mount
 0006:C0082894       unlock_rename
 0006:C00828D4       __lookup_hash
 0006:C00829FC       vfs_link
 0006:C0082B18       vfs_readlink
 0006:C0082B8C       generic_readlink
 0006:C0082C1C       page_put_link
 0006:C0082C28       __page_symlink
 0006:C0082D24       page_symlink
 0006:C0082D3C       path_get
 0006:C0082DA4       path_init
 0006:C0082EC4       __lookup_one_len.isra.29
 0006:C0082F2C       lookup_one_len
 0006:C0082FBC       vfs_create
 0006:C0083064       vfs_mkdir
 0006:C0083104       vfs_symlink
 0006:C008319C       vfs_mknod
 0006:C008325C       may_delete
 0006:C0083398       follow_up
 0006:C0083444       path_put_conditional.isra.36
 0006:C008347C       follow_down
 0006:C0083504       __follow_mount
 0006:C00835AC       do_lookup
 0006:C0083730       __link_path_walk
 0006:C00843DC       path_walk
 0006:C008446C       vfs_path_lookup
 0006:C00844D4       do_path_lookup
 0006:C0084520       path_lookup
 0006:C0084544       kern_path
 0006:C0084584       user_path_parent
 0006:C00845E8       vfs_follow_link
 0006:C0084730       user_path_at
 0006:C00847BC       lookup_hash
 0006:C00847F0       lookup_create
 0006:C0084888       lock_rename
 0006:C0084914       dentry_unhash
 0006:C008499C       vfs_rename
 0006:C0084D24       vfs_rmdir
 0006:C0084DD0       do_rmdir
 0006:C0084EB4       vfs_unlink
 0006:C0084F68       do_unlinkat
 0006:C00850A8       page_getlink.constprop.46
 0006:C008511C       page_readlink
 0006:C0085170       page_follow_link_light
 0006:C00851A0       deny_write_access
 0006:C00851DC       release_open_intent
 0006:C00851F4       lookup_one_noperm
 0006:C0085238       may_open
 0006:C00853FC       do_filp_open
 0006:C0085BC0       filp_open
 0006:C0085BF0       sys_mknodat
 0006:C0085DB4       sys_mknod
 0006:C0085DD8       sys_mkdirat
 0006:C0085EA4       sys_mkdir
 0006:C0085EB8       sys_rmdir
 0006:C0085EC4       sys_unlinkat
 0006:C0085EE4       sys_unlink
 0006:C0085EF0       sys_symlinkat
 0006:C0085FC4       sys_symlink
 0006:C0085FD0       sys_linkat
 0006:C00860CC       sys_link
 0006:C00860F8       sys_renameat
 0006:C00862C0       sys_rename
 0006:C00862D8       f_modown
 0006:C0086360       __f_setown
 0006:C0086370       f_setown
 0006:C00863AC       fasync_helper
 0006:C00864A8       set_close_on_exec
 0006:C00864E8       sys_dup3
 0006:C0086620       sys_dup2
 0006:C0086678       sys_dup
 0006:C00866B4       f_delown
 0006:C00866C4       f_getown
 0006:C00866E4       do_fcntl
 0006:C0086A00       sys_fcntl
 0006:C0086A48       sys_fcntl64
 0006:C0086AC8       send_sigio
 0006:C0086BFC       __kill_fasync
 0006:C0086C6C       kill_fasync
 0006:C0086C7C       send_sigurg
 0006:C0086D28       vfs_ioctl
 0006:C0086D98       fiemap_check_flags
 0006:C0086DB4       fiemap_fill_next_extent
 0006:C0086EA0       __generic_block_fiemap
 0006:C0087128       generic_block_fiemap
 0006:C0087184       ioctl_preallocate
 0006:C0087248       do_vfs_ioctl
 0006:C008775C       sys_ioctl
 0006:C00877B4       vfs_readdir
 0006:C0087854       filldir
 0006:C0087998       filldir64
 0006:C0087AE4       fillonedir
 0006:C0087BD8       sys_old_readdir
 0006:C0087C2C       sys_getdents
 0006:C0087CD8       sys_getdents64
 0006:C0087D88       poll_initwait
 0006:C0087DC8       __pollwait
 0006:C0087EA8       poll_schedule_timeout
 0006:C0087EF8       pollwake
 0006:C0087F70       estimate_accuracy
 0006:C0088038       poll_freewait
 0006:C00880BC       poll_select_set_timeout
 0006:C0088130       do_select
 0006:C0088594       core_sys_select
 0006:C008886C       sys_select
 0006:C0088A48       do_sys_poll
 0006:C0088DB4       do_restart_poll
 0006:C0088DFC       sys_poll
 0006:C0088EB8       wake_up_partner
 0006:C0088ECC       wait_for_partner
 0006:C0088F18       fifo_open
 0006:C0089170       __d_instantiate
 0006:C00891D8       d_genocide
 0006:C0089268       dentry_iput
 0006:C0089314       dentry_lru_del_init
 0006:C0089360       dget_locked
 0006:C0089388       __d_find_alias
 0006:C0089424       d_find_alias
 0006:C0089444       __d_free
 0006:C0089498       d_free
 0006:C00894E8       d_kill
 0006:C008954C       dput
 0006:C00896A8       d_prune_aliases
 0006:C0089744       d_callback
 0006:C008974C       __shrink_dcache_sb
 0006:C00899D8       shrink_dcache_sb
 0006:C00899E4       shrink_dcache_parent
 0006:C0089AF0       shrink_dcache_for_umount_subtree
 0006:C0089D18       switch_names
 0006:C0089DC4       d_move_locked
 0006:C0089FB0       d_move
 0006:C0089FB4       prepend
 0006:C0089FF8       d_alloc
 0006:C008A170       d_obtain_alias
 0006:C008A24C       d_delete
 0006:C008A2D8       shrink_dcache_memory
 0006:C008A404       have_submounts
 0006:C008A484       d_instantiate
 0006:C008A4B4       d_alloc_root
 0006:C008A4FC       d_invalidate
 0006:C008A594       d_validate
 0006:C008A644       __d_instantiate_unique
 0006:C008A6FC       d_instantiate_unique
 0006:C008A75C       _d_rehash
 0006:C008A7CC       d_rehash
 0006:C008A7D0       d_splice_alias
 0006:C008A878       shrink_dcache_for_umount
 0006:C008A8D8       d_alloc_name
 0006:C008A93C       __d_lookup
 0006:C008AA3C       d_lookup
 0006:C008AA88       d_hash_and_lookup
 0006:C008AB0C       d_add_ci
 0006:C008AC38       find_inode_number
 0006:C008AC64       d_ancestor
 0006:C008AC90       d_materialise_unique
 0006:C008AF2C       __d_path
 0006:C008B0A8       d_path
 0006:C008B140       dynamic_dname
 0006:C008B1B4       dentry_path
 0006:C008B2AC       sys_getcwd
 0006:C008B3F0       is_subdir
 0006:C008B44C       hash
 0006:C008B480       inode_add_to_lists
 0006:C008B50C       __insert_inode_hash
 0006:C008B548       remove_inode_hash
 0006:C008B574       bmap
 0006:C008B598       inode_needs_sync
 0006:C008B5EC       inode_init_always
 0006:C008B70C       inode_init_once
 0006:C008B780       init_once_0
 0006:C008B784       clear_inode
 0006:C008B86C       alloc_inode
 0006:C008B900       new_inode
 0006:C008B980       inode_wait
 0006:C008B990       __wait_on_freeing_inode
 0006:C008BA18       find_inode_fast
 0006:C008BA70       iunique
 0006:C008BAD4       find_inode
 0006:C008BB44       file_update_time
 0006:C008BC20       init_special_inode
 0006:C008BC88       touch_atime
 0006:C008BDCC       __destroy_inode
 0006:C008BDFC       iput
 0006:C008BE78       unlock_new_inode
 0006:C008BEC0       destroy_inode
 0006:C008BF04       dispose_list
 0006:C008BFDC       invalidate_inodes
 0006:C008C0D4       generic_delete_inode
 0006:C008C1F0       generic_drop_inode
 0006:C008C3C4       __iget
 0006:C008C460       igrab
 0006:C008C484       ifind
 0006:C008C4D0       ilookup5_nowait
 0006:C008C514       ilookup5
 0006:C008C558       ifind_fast
 0006:C008C598       ilookup
 0006:C008C5C8       iget5_locked
 0006:C008C71C       iget_locked
 0006:C008C83C       insert_inode_locked
 0006:C008C928       insert_inode_locked4
 0006:C008CA20       shrink_icache_memory
 0006:C008CC50       inode_change_ok
 0006:C008CDEC       inode_setattr
 0006:C008CF14       notify_change
 0006:C008D18C       bad_file_llseek
 0006:C008D198       bad_file_read
 0006:C008D1A0       bad_file_write
 0006:C008D1A8       bad_file_aio_read
 0006:C008D1B0       bad_file_aio_write
 0006:C008D1B8       bad_file_readdir
 0006:C008D1C0       bad_file_poll
 0006:C008D1C8       bad_file_ioctl
 0006:C008D1D0       bad_file_unlocked_ioctl
 0006:C008D1D8       bad_file_compat_ioctl
 0006:C008D1E0       bad_file_mmap
 0006:C008D1E8       bad_file_open
 0006:C008D1F0       bad_file_flush
 0006:C008D1F8       bad_file_release
 0006:C008D200       bad_file_fsync
 0006:C008D208       bad_file_aio_fsync
 0006:C008D210       bad_file_fasync
 0006:C008D218       bad_file_lock
 0006:C008D220       bad_file_sendpage
 0006:C008D228       bad_file_get_unmapped_area
 0006:C008D230       bad_file_check_flags
 0006:C008D238       bad_file_flock
 0006:C008D240       bad_file_splice_write
 0006:C008D248       bad_file_splice_read
 0006:C008D250       bad_inode_create
 0006:C008D258       bad_inode_lookup
 0006:C008D260       bad_inode_link
 0006:C008D268       bad_inode_unlink
 0006:C008D270       bad_inode_symlink
 0006:C008D278       bad_inode_mkdir
 0006:C008D280       bad_inode_rmdir
 0006:C008D288       bad_inode_mknod
 0006:C008D290       bad_inode_rename
 0006:C008D298       bad_inode_readlink
 0006:C008D2A0       bad_inode_permission
 0006:C008D2A8       bad_inode_getattr
 0006:C008D2B0       bad_inode_setattr
 0006:C008D2B8       bad_inode_setxattr
 0006:C008D2C0       bad_inode_getxattr
 0006:C008D2C8       bad_inode_listxattr
 0006:C008D2D0       bad_inode_removexattr
 0006:C008D2D8       is_bad_inode
 0006:C008D2F4       make_bad_inode
 0006:C008D34C       iget_failed
 0006:C008D36C       alloc_fdtable
 0006:C008D46C       free_fdtable_work
 0006:C008D4CC       free_fdtable_rcu
 0006:C008D550       expand_files
 0006:C008D740       dup_fd
 0006:C008D9E8       alloc_fd
 0006:C008DAD4       get_unused_fd
 0006:C008DAE0       unregister_filesystem
 0006:C008DB28       find_filesystem
 0006:C008DB88       __get_fs_type
 0006:C008DBD8       filesystems_proc_open
 0006:C008DBEC       filesystems_proc_show
 0006:C008DC4C       register_filesystem
 0006:C008DCC8       get_filesystem
 0006:C008DCF0       put_filesystem
 0006:C008DCF8       get_fs_type
 0006:C008DD90       sys_sysfs
 0006:C008DEFC       mnt_drop_write
 0006:C008DF0C       detach_mnt
 0006:C008DF6C       next_mnt
 0006:C008DFA4       mnt_pin
 0006:C008DFB4       mnt_unpin
 0006:C008DFE4       may_umount_tree
 0006:C008E024       mnt_free_id
 0006:C008E050       mnt_alloc_group_id
 0006:C008E0A4       generic_show_options
 0006:C008E0EC       replace_mount_options
 0006:C008E110       show_sb_opts
 0006:C008E154       show_mnt_opts
 0006:C008E198       m_next_0
 0006:C008E1AC       m_stop_0
 0006:C008E1B8       m_start_0
 0006:C008E1E4       may_umount
 0006:C008E1FC       touch_mnt_namespace
 0006:C008E230       commit_tree
 0006:C008E320       alloc_mnt_ns
 0006:C008E38C       create_mnt_ns
 0006:C008E3C8       __mnt_is_readonly
 0006:C008E3E4       mnt_want_write
 0006:C008E424       mnt_clone_write
 0006:C008E448       mnt_want_write_file
 0006:C008E498       simple_set_mnt
 0006:C008E4E4       save_mount_options
 0006:C008E520       show_type
 0006:C008E578       show_vfsmnt
 0006:C008E670       show_vfsstat
 0006:C008E768       show_mountinfo
 0006:C008E9A4       mnt_release_group_id
 0006:C008E9E0       cleanup_group_ids
 0006:C008EA30       invent_group_ids
 0006:C008EAA8       alloc_vfsmnt
 0006:C008EBDC       free_vfsmnt
 0006:C008EC0C       mntput_no_expire
 0006:C008EC9C       clone_mnt
 0006:C008EE54       __lookup_mnt
 0006:C008EEC0       lookup_mnt
 0006:C008EEF4       mnt_set_mountpoint
 0006:C008EF68       attach_mnt
 0006:C008EFDC       attach_recursive_mnt
 0006:C008F118       graft_tree
 0006:C008F1EC       do_add_mount
 0006:C008F314       release_mounts
 0006:C008F39C       umount_tree
 0006:C008F4D8       mark_mounts_for_expiry
 0006:C008F5D4       put_mnt_ns
 0006:C008F640       sys_umount
 0006:C008F910       sys_oldumount
 0006:C008F918       copy_tree
 0006:C008FA9C       collect_mounts
 0006:C008FAD4       drop_collected_mounts
 0006:C008FB1C       copy_mount_options
 0006:C008FC0C       do_mount
 0006:C0090284       copy_mnt_ns
 0006:C0090428       sys_mount
 0006:C00904F4       sys_pivot_root
 0006:C0090788       single_start
 0006:C009079C       single_next
 0006:C00907B4       single_stop
 0006:C00907B8       seq_putc
 0006:C00907E0       seq_list_start
 0006:C0090834       seq_list_next
 0006:C0090858       seq_open
 0006:C00908E0       traverse
 0006:C0090AB0       seq_release
 0006:C0090AD0       single_open
 0006:C0090B54       single_release
 0006:C0090B78       seq_release_private
 0006:C0090BA8       __seq_open_private
 0006:C0090BFC       seq_open_private
 0006:C0090C14       seq_lseek
 0006:C0090D0C       seq_read
 0006:C0091118       seq_escape
 0006:C00911D0       mangle_path
 0006:C0091264       seq_printf
 0006:C00912D4       seq_path
 0006:C0091354       seq_bitmap
 0006:C00913B8       seq_bitmap_list
 0006:C009141C       seq_puts
 0006:C009147C       seq_write
 0006:C00914C8       seq_list_start_head
 0006:C00914DC       seq_path_root
 0006:C0091560       seq_dentry
 0006:C00915E0       xattr_getsecurity
 0006:C00915E8       vfs_listxattr
 0006:C0091608       xattr_resolve_name
 0006:C0091678       generic_getxattr
 0006:C00916CC       generic_listxattr
 0006:C0091780       generic_setxattr
 0006:C00917E8       generic_removexattr
 0006:C009183C       xattr_permission
 0006:C0091968       vfs_getxattr
 0006:C00919C4       vfs_setxattr
 0006:C0091AA8       vfs_removexattr
 0006:C0091B7C       removexattr
 0006:C0091BE4       setxattr
 0006:C0091CB4       getxattr
 0006:C0091DC8       listxattr
 0006:C0091E88       sys_setxattr
 0006:C0091F08       sys_lsetxattr
 0006:C0091F88       sys_fsetxattr
 0006:C0091FF4       sys_getxattr
 0006:C0092050       sys_lgetxattr
 0006:C00920AC       sys_fgetxattr
 0006:C00920F8       sys_listxattr
 0006:C009214C       sys_llistxattr
 0006:C00921A0       sys_flistxattr
 0006:C00921E4       sys_removexattr
 0006:C0092248       sys_lremovexattr
 0006:C00922AC       sys_fremovexattr
 0006:C0092300       simple_statfs
 0006:C0092324       simple_delete_dentry
 0006:C009232C       simple_sync_file
 0006:C0092334       dcache_readdir
 0006:C00924F0       generic_read_dir
 0006:C00924F8       simple_empty
 0006:C0092544       simple_getattr
 0006:C0092578       dcache_dir_open
 0006:C00925A4       dcache_dir_close
 0006:C00925B8       dcache_dir_lseek
 0006:C00926E8       simple_unlink
 0006:C009273C       simple_rmdir
 0006:C0092790       simple_rename
 0006:C0092854       get_sb_pseudo
 0006:C00929A0       simple_readpage
 0006:C0092A20       simple_fill_super
 0006:C0092BBC       simple_release_fs
 0006:C0092BEC       simple_pin_fs
 0006:C0092C74       simple_read_from_buffer
 0006:C0092D2C       simple_transaction_read
 0006:C0092D64       memory_read_from_buffer
 0006:C0092DE4       simple_transaction_release
 0006:C0092DFC       simple_attr_open
 0006:C0092E78       simple_attr_release
 0006:C0092E8C       simple_attr_read
 0006:C0092F40       simple_attr_write
 0006:C0093028       generic_fh_to_dentry
 0006:C0093070       generic_fh_to_parent
 0006:C00930C4       simple_fsync
 0006:C0093138       simple_lookup
 0006:C009317C       simple_link
 0006:C0093224       simple_transaction_set
 0006:C0093254       simple_write_end
 0006:C0093344       simple_transaction_get
 0006:C0093408       simple_prepare_write
 0006:C00934CC       simple_write_begin
 0006:C0093520       redirty_tail
 0006:C0093584       requeue_io
 0006:C00935B8       block_dump___mark_inode_dirty
 0006:C0093658       __mark_inode_dirty
 0006:C009373C       writeback_single_inode
 0006:C00939C8       sync_inode
 0006:C00939CC       sb_has_dirty_inodes
 0006:C0093A08       write_inode_now
 0006:C0093AA8       generic_osync_inode
 0006:C0093B7C       generic_sync_sb_inodes
 0006:C0093EEC       writeback_in_progress
 0006:C0093EF8       writeback_inodes
 0006:C0093FA0       sync_inodes_sb
 0006:C0094020       propagation_next
 0006:C009407C       get_dominating_id
 0006:C0094114       change_mnt_propagation
 0006:C00942CC       propagate_mnt
 0006:C0094448       propagate_mount_busy
 0006:C0094500       propagate_umount
 0006:C00945B4       drop_caches_sysctl_handler
 0006:C0094708       pipe_to_sendpage
 0006:C0094780       splice_from_pipe_feed
 0006:C00948B4       splice_from_pipe_begin
 0006:C00948C4       wakeup_pipe_writers
 0006:C0094900       splice_from_pipe_end
 0006:C0094910       splice_from_pipe_next
 0006:C00949C0       __splice_from_pipe
 0006:C0094A24       spd_release_page
 0006:C0094A30       page_cache_pipe_buf_release
 0006:C0094A50       page_cache_pipe_buf_confirm
 0006:C0094AC8       page_cache_pipe_buf_steal
 0006:C0094BBC       user_page_pipe_buf_steal
 0006:C0094BDC       pipe_to_file
 0006:C0094D34       generic_file_splice_write
 0006:C0094E9C       do_splice_to
 0006:C0094F14       do_splice_from
 0006:C0094F98       direct_splice_actor
 0006:C0094FC0       splice_direct_to_actor
 0006:C009513C       pipe_to_user
 0006:C0095294       ipipe_prep.part.5
 0006:C0095328       opipe_prep.part.6
 0006:C00953E8       write_pipe_buf
 0006:C00954C4       splice_to_pipe
 0006:C00956F8       __generic_file_splice_read
 0006:C0095B24       generic_file_splice_read
 0006:C0095B90       default_file_splice_read
 0006:C0095E08       vmsplice_to_pipe
 0006:C0096020       splice_from_pipe
 0006:C0096090       generic_splice_sendpage
 0006:C00960B4       default_file_splice_write
 0006:C00960F4       do_splice_direct
 0006:C0096160       sys_vmsplice
 0006:C00962FC       sys_splice
 0006:C0096860       sys_tee
 0006:C0096B20       __sync_filesystem
 0006:C0096B5C       sync_filesystems
 0006:C0096C28       do_sync_work
 0006:C0096C58       vfs_fsync
 0006:C0096CF4       do_fsync
 0006:C0096D2C       do_sync_mapping_range
 0006:C0096DD4       sync_filesystem
 0006:C0096E2C       sys_sync
 0006:C0096E68       emergency_sync
 0006:C0096EB0       file_fsync
 0006:C0096F04       sys_fsync
 0006:C0096F0C       sys_fdatasync
 0006:C0096F14       sys_sync_file_range
 0006:C009701C       sys_sync_file_range2
 0006:C009703C       utimes_common
 0006:C0097190       do_utimes
 0006:C0097274       sys_utime
 0006:C00972E0       sys_utimensat
 0006:C0097388       sys_futimesat
 0006:C009745C       sys_utimes
 0006:C0097470       fsstack_copy_inode_size
 0006:C0097484       fsstack_copy_attr_all
 0006:C0097514       current_umask
 0006:C0097530       set_fs_root
 0006:C0097570       set_fs_pwd
 0006:C00975B0       chroot_fs_refs
 0006:C0097688       free_fs_struct
 0006:C00976B8       exit_fs
 0006:C00976E8       copy_fs_struct
 0006:C009775C       unshare_fs_struct
 0006:C00977B8       daemonize_fs_struct
 0006:C0097804       init_buffer
 0006:C0097810       generic_block_bmap
 0006:C009785C       sync_buffer
 0006:C00978A8       __lock_buffer
 0006:C00978DC       unlock_buffer
 0006:C00978FC       __end_buffer_read_notouch
 0006:C0097934       end_buffer_read_sync
 0006:C009795C       end_buffer_read_nobh
 0006:C0097960       __wait_on_buffer
 0006:C0097980       buffer_io_error
 0006:C00979B4       block_sync_page
 0006:C0097A04       block_is_partially_uptodate
 0006:C0097AE0       attach_nobh_buffers
 0006:C0097B8C       do_thaw_all
 0006:C0097C48       __remove_assoc_queue
 0006:C0097CC0       invalidate_inode_buffers
 0006:C0097CF4       __set_page_dirty
 0006:C0097D94       __set_page_dirty_buffers
 0006:C0097E84       free_more_memory
 0006:C0097ED8       __find_get_block_slow
 0006:C0098004       drop_buffers
 0006:C00980E4       init_buffer_head
 0006:C0098104       generic_cont_expand_simple
 0006:C00981F4       end_bio_bh_io_sync
 0006:C0098278       recalc_bh_state
 0006:C00982C0       alloc_buffer_head
 0006:C009830C       bh_uptodate_or_lock
 0006:C0098360       quiet_error
 0006:C0098388       end_buffer_write_sync
 0006:C0098444       end_buffer_async_write
 0006:C00985C0       end_buffer_async_read
 0006:C0098714       init_page_buffers.isra.14
 0006:C00987C4       set_bh_page
 0006:C009880C       mark_buffer_dirty
 0006:C00988EC       __block_commit_write
 0006:C00989F0       block_commit_write
 0006:C0098A1C       mark_buffer_dirty_inode
 0006:C0098AA0       page_zero_new_buffers
 0006:C0098C1C       block_write_end
 0006:C0098C88       generic_write_end
 0006:C0098D10       __brelse
 0006:C0098D54       invalidate_bh_lrus
 0006:C0098D9C       invalidate_bdev
 0006:C0098DCC       __bforget
 0006:C0098E18       unmap_underlying_metadata
 0006:C0098E84       __find_get_block
 0006:C0099064       block_invalidatepage
 0006:C00991C4       submit_bh
 0006:C009936C       ll_rw_block
 0006:C00994F4       sync_mapping_buffers
 0006:C009974C       sync_dirty_buffer
 0006:C0099868       bh_submit_read
 0006:C0099910       free_buffer_head
 0006:C0099964       alloc_page_buffers
 0006:C0099A2C       create_empty_buffers
 0006:C0099B20       __block_prepare_write
 0006:C0099F68       block_write_begin
 0006:C009A078       cont_write_begin
 0006:C009A3C4       block_read_full_page
 0006:C009A6FC       block_truncate_page
 0006:C009A984       nobh_truncate_page
 0006:C009ABCC       nobh_write_begin
 0006:C009B02C       nobh_write_end
 0006:C009B158       block_prepare_write
 0006:C009B1AC       block_page_mkwrite
 0006:C009B2A4       try_to_free_buffers
 0006:C009B340       __getblk
 0006:C009B5D0       __breadahead
 0006:C009B614       __bread
 0006:C009B6E4       mark_buffer_async_write_endio
 0006:C009B704       mark_buffer_async_write
 0006:C009B710       __block_write_full_page
 0006:C009BB64       nobh_writepage
 0006:C009BC4C       block_write_full_page_endio
 0006:C009BD24       block_write_full_page
 0006:C009BD30       inode_has_buffers
 0006:C009BD44       emergency_thaw_all
 0006:C009BD8C       write_boundary_block
 0006:C009BDF0       remove_inode_buffers
 0006:C009BE3C       sys_bdflush
 0006:C009BEB8       bio_phys_segments
 0006:C009BED8       bio_get_nr_vecs
 0006:C009BF14       bio_endio
 0006:C009BF58       bio_sector_offset
 0006:C009C010       bio_split
 0006:C009C144       bio_init
 0006:C009C17C       bio_kmalloc_destructor
 0006:C009C180       bio_free_map_data
 0006:C009C1A4       bio_kmalloc
 0006:C009C1FC       zero_fill_bio
 0006:C009C26C       __bio_clone
 0006:C009C2D0       __bio_copy_iov
 0006:C009C498       bio_put
 0006:C009C4E8       bio_map_kern_endio
 0006:C009C4EC       bio_uncopy_user
 0006:C009C54C       bio_copy_kern_endio
 0006:C009C600       bio_unmap_user
 0006:C009C65C       bio_pair_release
 0006:C009C6A0       bio_pair_end_2
 0006:C009C6B4       bio_pair_end_1
 0006:C009C6C0       __bio_add_page.part.9
 0006:C009C8C4       bio_add_page
 0006:C009C924       bioset_free
 0006:C009C9F0       bioset_create
 0006:C009CBE8       bio_add_pc_page
 0006:C009CC28       bio_map_kern
 0006:C009CD24       bvec_nr_vecs
 0006:C009CD3C       bvec_free_bs
 0006:C009CD8C       bio_free
 0006:C009CDE0       bio_fs_destructor
 0006:C009CDF0       bvec_alloc_bs
 0006:C009CECC       bio_alloc_bioset
 0006:C009CF98       bio_alloc
 0006:C009CFC0       bio_clone
 0006:C009D004       bio_copy_user_iov
 0006:C009D310       bio_copy_user
 0006:C009D340       bio_copy_kern
 0006:C009D3F8       bio_map_user_iov
 0006:C009D63C       bio_map_user
 0006:C009D66C       bio_set_pages_dirty
 0006:C009D6B8       bio_dirty_fn
 0006:C009D738       bio_check_pages_dirty
 0006:C009D7D8       I_BDEV
 0006:C009D7E0       bdev_clear_inode
 0006:C009D840       bdev_test
 0006:C009D858       bdev_set
 0006:C009D868       bd_release
 0006:C009D89C       bd_set_size
 0006:C009D924       block_llseek
 0006:C009D9C8       thaw_bdev
 0006:C009DAD8       bd_get_sb
 0006:C009DAF4       bdev_destroy_inode
 0006:C009DB14       bdev_alloc_inode
 0006:C009DB38       init_once_1
 0006:C009DBCC       bdget
 0006:C009DCC0       blkdev_direct_IO
 0006:C009DD18       blkdev_releasepage
 0006:C009DD54       blkdev_write_end
 0006:C009DDA0       blkdev_write_begin
 0006:C009DDE4       blkdev_readpage
 0006:C009DDF4       blkdev_writepage
 0006:C009DE04       bdput
 0006:C009DE0C       del_symlink
 0006:C009DE20       bd_release_from_disk
 0006:C009DF20       block_ioctl
 0006:C009DF5C       ioctl_by_bdev
 0006:C009DFCC       __invalidate_device
 0006:C009E00C       flush_disk
 0006:C009E098       check_disk_size_change
 0006:C009E10C       revalidate_disk
 0006:C009E174       check_disk_change
 0006:C009E1C8       blkdev_get_blocks
 0006:C009E294       bd_claim
 0006:C009E308       kill_bdev
 0006:C009E340       bd_acquire
 0006:C009E3DC       lookup_bdev
 0006:C009E46C       blkdev_get_block
 0006:C009E504       bd_claim_by_disk
 0006:C009E6E0       __sync_blockdev
 0006:C009E700       sync_blockdev
 0006:C009E708       set_blocksize
 0006:C009E7AC       sb_set_blocksize
 0006:C009E7F8       sb_min_blocksize
 0006:C009E82C       fsync_bdev
 0006:C009E864       freeze_bdev
 0006:C009E954       __blkdev_put
 0006:C009EA70       __blkdev_get
 0006:C009ED80       blkdev_get
 0006:C009ED88       open_by_devnum
 0006:C009EDC0       blkdev_put
 0006:C009EDC8       blkdev_close
 0006:C009EE00       blkdev_open
 0006:C009EEB8       open_bdev_exclusive
 0006:C009EF34       close_bdev_exclusive
 0006:C009EF54       block_fsync
 0006:C009EF64       bdgrab
 0006:C009EF84       nr_blockdev_pages
 0006:C009EFC8       bd_forget
 0006:C009F028       dio_bio_complete
 0006:C009F0D0       dio_bio_end_io
 0006:C009F118       dio_bio_add_page
 0006:C009F1A8       dio_bio_submit
 0006:C009F20C       dio_complete
 0006:C009F2D8       dio_bio_end_aio
 0006:C009F360       dio_get_page
 0006:C009F478       dio_new_bio
 0006:C009F578       dio_send_cur_page
 0006:C009F638       submit_page_section
 0006:C009F73C       dio_zero_block
 0006:C009F7C8       __blockdev_direct_IO
 0006:C00A02FC       mpage_alloc
 0006:C00A0374       mpage_end_io_write
 0006:C00A041C       mpage_end_io_read
 0006:C00A04C8       do_mpage_readpage
 0006:C00A0B20       mpage_readpages
 0006:C00A0C28       __mpage_writepage
 0006:C00A1258       mpage_writepage
 0006:C00A12B8       mpage_readpage
 0006:C00A132C       mpage_writepages
 0006:C00A13A8       set_task_ioprio
 0006:C00A145C       sys_ioprio_set
 0006:C00A164C       ioprio_best
 0006:C00A1690       sys_ioprio_get
 0006:C00A1850       __fsnotify_inode_delete
 0006:C00A1854       fsnotify
 0006:C00A198C       __fsnotify_update_child_dentry_flags
 0006:C00A1A20       __fsnotify_parent
 0006:C00A1B00       fsnotify_get_cookie
 0006:C00A1B20       fsnotify_notify_queue_is_empty
 0006:C00A1B58       fsnotify_get_event
 0006:C00A1B74       fsnotify_put_event
 0006:C00A1BF8       fsnotify_alloc_event_holder
 0006:C00A1C0C       fsnotify_destroy_event_holder
 0006:C00A1C20       fsnotify_remove_priv_from_event
 0006:C00A1C80       fsnotify_add_notify_event
 0006:C00A1E7C       fsnotify_remove_notify_event
 0006:C00A1EE8       fsnotify_peek_notify_event
 0006:C00A1F18       fsnotify_flush_notify
 0006:C00A1F90       fsnotify_create_event
 0006:C00A20F0       __fsnotify_evict_group
 0006:C00A2144       fsnotify_recalc_global_mask
 0006:C00A2198       fsnotify_recalc_group_mask
 0006:C00A21E4       fsnotify_final_destroy_group
 0006:C00A2214       fsnotify_evict_group
 0006:C00A2240       fsnotify_put_group
 0006:C00A22B4       fsnotify_obtain_group
 0006:C00A246C       fsnotify_recalc_inode_mask_locked
 0006:C00A249C       fsnotify_get_mark
 0006:C00A24B8       fsnotify_put_mark
 0006:C00A24E0       fsnotify_recalc_inode_mask
 0006:C00A24F8       fsnotify_destroy_mark_by_entry
 0006:C00A2620       fsnotify_clear_marks_by_group
 0006:C00A26D8       fsnotify_clear_marks_by_inode
 0006:C00A2788       fsnotify_find_mark_entry
 0006:C00A27D0       fsnotify_init_mark
 0006:C00A2808       fsnotify_add_mark
 0006:C00A28D4       fsnotify_unmount_inodes
 0006:C00A29BC       dnotify_recalc_inode_mask
 0006:C00A29FC       dnotify_handle_event
 0006:C00A2A98       dnotify_should_send_event
 0006:C00A2AEC       dnotify_free_mark
 0006:C00A2B24       dnotify_flush
 0006:C00A2BF0       fcntl_dirnotify
 0006:C00A2E7C       inotify_free_event_priv
 0006:C00A2E90       inotify_freeing_mark
 0006:C00A2E94       inotify_free_group_priv
 0006:C00A2EC4       inotify_handle_event
 0006:C00A2F5C       inotify_should_send_event
 0006:C00A2F98       idr_callback
 0006:C00A3008       inotify_fasync
 0006:C00A3028       inotify_release
 0006:C00A3064       inotify_ioctl
 0006:C00A30F4       inotify_poll
 0006:C00A3148       inotify_read
 0006:C00A33E8       inotify_free_mark
 0006:C00A33FC       inotify_get_sb
 0006:C00A3414       inotify_remove_from_idr
 0006:C00A34A0       inotify_ignored_and_remove_idr
 0006:C00A355C       sys_inotify_init1
 0006:C00A3728       sys_inotify_init
 0006:C00A3730       sys_inotify_add_watch
 0006:C00A39CC       sys_inotify_rm_watch
 0006:C00A3A54       ep_read_events_proc
 0006:C00A3AD0       ep_send_events_proc
 0006:C00A3BC4       ep_poll_wakeup_proc
 0006:C00A3BE4       ep_ptable_queue_proc
 0006:C00A3C70       ep_unregister_pollwait.isra.4
 0006:C00A3CD0       ep_remove
 0006:C00A3D74       ep_call_nested.constprop.5
 0006:C00A3E3C       ep_eventpoll_poll
 0006:C00A3EA0       ep_poll_safewake
 0006:C00A3ECC       ep_scan_ready_list
 0006:C00A4014       ep_poll_readyevents_proc
 0006:C00A4024       ep_poll_callback
 0006:C00A40E4       ep_free
 0006:C00A4170       ep_eventpoll_release
 0006:C00A4194       eventpoll_release_file
 0006:C00A4200       sys_epoll_create1
 0006:C00A42F4       sys_epoll_create
 0006:C00A430C       sys_epoll_ctl
 0006:C00A4784       sys_epoll_wait
 0006:C00A49A4       anon_inodefs_delete_dentry
 0006:C00A49B8       anon_set_page_dirty
 0006:C00A49C0       anon_inode_getfd
 0006:C00A4B30       anon_inodefs_get_sb
 0006:C00A4B48       signalfd_release
 0006:C00A4B5C       signalfd_poll
 0006:C00A4BE0       signalfd_read
 0006:C00A4F8C       sys_signalfd4
 0006:C00A50F4       sys_signalfd
 0006:C00A50FC       timerfd_get_remaining
 0006:C00A5164       timerfd_poll
 0006:C00A51AC       timerfd_release
 0006:C00A51CC       timerfd_read
 0006:C00A53C4       timerfd_fget
 0006:C00A5404       timerfd_tmrproc
 0006:C00A5440       sys_timerfd_create
 0006:C00A54F4       sys_timerfd_settime
 0006:C00A5700       sys_timerfd_gettime
 0006:C00A5850       eventfd_poll
 0006:C00A58CC       eventfd_signal
 0006:C00A5940       eventfd_ctx_get
 0006:C00A5954       eventfd_ctx_fileget
 0006:C00A5988       eventfd_ctx_put
 0006:C00A5994       eventfd_free
 0006:C00A5998       eventfd_fget
 0006:C00A59D8       eventfd_release
 0006:C00A5A04       eventfd_ctx_fdget
 0006:C00A5A38       eventfd_read
 0006:C00A5BE8       eventfd_write
 0006:C00A5DD0       sys_eventfd2
 0006:C00A5E80       sys_eventfd
 0006:C00A5E88       aio_cancel_all
 0006:C00A5F18       aio_read_evt
 0006:C00A6008       aio_fdsync
 0006:C00A602C       aio_fsync
 0006:C00A6050       wait_on_sync_kiocb
 0006:C00A60A8       aio_rw_vect_retry
 0006:C00A6248       wait_for_all_aios
 0006:C00A62EC       aio_free_ring
 0006:C00A6378       timeout_func
 0006:C00A6388       aio_queue_work
 0006:C00A63B4       __aio_get_req
 0006:C00A64DC       lookup_ioctx
 0006:C00A656C       ctx_rcu_free
 0006:C00A65B8       __put_ioctx
 0006:C00A6658       aio_fput_routine
 0006:C00A6784       io_destroy
 0006:C00A6860       __aio_put_req
 0006:C00A69D8       aio_put_req
 0006:C00A69F4       aio_complete
 0006:C00A6BA8       aio_run_iocb
 0006:C00A6CB8       __aio_run_iocbs
 0006:C00A6D4C       aio_kick_handler
 0006:C00A6ECC       kick_iocb
 0006:C00A6F98       aio_wake_function
 0006:C00A6FC8       exit_aio
 0006:C00A7084       sys_io_setup
 0006:C00A7464       sys_io_destroy
 0006:C00A7488       sys_io_submit
 0006:C00A7910       sys_io_cancel
 0006:C00A7AB8       sys_io_getevents
 0006:C00A7E58       locks_release_private
 0006:C00A7EB0       locks_copy_private
 0006:C00A7F10       __locks_copy_lock
 0006:C00A7F58       locks_copy_lock
 0006:C00A7F9C       flock64_to_posix_lock
 0006:C00A80C8       lease_mylease_callback
 0006:C00A80E0       posix_same_owner
 0006:C00A8140       __locks_delete_block
 0006:C00A8180       locks_insert_lock
 0006:C00A81E8       posix_unblock_lock
 0006:C00A8210       vfs_cancel_lock
 0006:C00A8240       locks_stop
 0006:C00A8244       lock_may_read
 0006:C00A82D0       lock_may_write
 0006:C00A8354       locks_init_lock
 0006:C00A83C4       init_once_2
 0006:C00A83C8       locks_alloc_lock
 0006:C00A83DC       locks_wake_up_blocks
 0006:C00A8440       lease_break_callback
 0006:C00A8454       lease_release_private_callback
 0006:C00A8480       locks_open
 0006:C00A8490       lock_get_status
 0006:C00A872C       locks_show
 0006:C00A879C       locks_next
 0006:C00A87AC       locks_start
 0006:C00A87C4       flock_to_posix_lock
 0006:C00A88C4       locks_insert_block
 0006:C00A893C       locks_free_lock
 0006:C00A89B0       locks_delete_lock
 0006:C00A8A3C       flock_lock_file_wait
 0006:C00A8CBC       lease_get_mtime
 0006:C00A8D1C       posix_locks_conflict
 0006:C00A8D94       posix_test_lock
 0006:C00A8E08       vfs_test_lock
 0006:C00A8E4C       __posix_lock_file
 0006:C00A92DC       posix_lock_file
 0006:C00A92E8       vfs_lock_file
 0006:C00A932C       locks_remove_posix
 0006:C00A93D0       do_lock_file_wait
 0006:C00A94BC       posix_lock_file_wait
 0006:C00A95A0       locks_mandatory_area
 0006:C00A971C       lease_modify
 0006:C00A9760       time_out_leases
 0006:C00A97D8       generic_setlease
 0006:C00A9A14       vfs_setlease
 0006:C00A9A58       lease_init
 0006:C00A9AC8       __break_lease
 0006:C00A9D84       locks_mandatory_locked
 0006:C00A9DD0       fcntl_getlease
 0006:C00A9E2C       fcntl_setlease
 0006:C00A9F1C       sys_flock
 0006:C00AA03C       fcntl_getlk
 0006:C00AA190       fcntl_setlk
 0006:C00AA354       fcntl_getlk64
 0006:C00AA48C       fcntl_setlk64
 0006:C00AA650       locks_remove_flock
 0006:C00AA76C       sys_nfsservctl
 0006:C00AA97C       load_script
 0006:C00AAB80       dump_write
 0006:C00AABA8       notesize
 0006:C00AABD8       fill_prstatus
 0006:C00AACCC       vma_dump_size
 0006:C00AAE10       padzero
 0006:C00AAE68       load_elf_library
 0006:C00AB0BC       load_elf_binary
 0006:C00AC1E0       alignfile
 0006:C00AC274       writenote
 0006:C00AC35C       elf_core_dump
 0006:C00ACDAC       get_vmalloc_info
 0006:C00ACE70       m_start_1
 0006:C00ACF88       do_maps_open
 0006:C00ACFF0       maps_open
 0006:C00ACFFC       smaps_open
 0006:C00AD008       smaps_pte_range
 0006:C00AD144       clear_refs_pte_range
 0006:C00AD1F0       clear_refs_write
 0006:C00AD394       pagemap_read
 0006:C00AD5F8       add_to_pagemap.isra.3
 0006:C00AD640       pagemap_pte_hole
 0006:C00AD67C       pagemap_pte_range
 0006:C00AD79C       m_next_1
 0006:C00AD818       m_stop_1
 0006:C00AD87C       show_map_vma
 0006:C00ADA48       show_map
 0006:C00ADA94       show_smap
 0006:C00ADBCC       task_mem
 0006:C00ADCA8       task_vsize
 0006:C00ADCB4       task_statm
 0006:C00ADD18       init_once_3
 0006:C00ADD20       __pde_users_dec
 0006:C00ADD4C       proc_reg_mmap
 0006:C00ADDA0       proc_reg_unlocked_ioctl
 0006:C00ADE3C       proc_reg_poll
 0006:C00ADE94       proc_reg_write
 0006:C00ADEE8       proc_reg_read
 0006:C00ADF3C       proc_reg_llseek
 0006:C00ADFAC       proc_reg_release
 0006:C00AE0C8       proc_reg_open
 0006:C00AE198       proc_alloc_inode
 0006:C00AE20C       proc_destroy_inode
 0006:C00AE220       de_get
 0006:C00AE23C       de_put
 0006:C00AE280       proc_delete_inode
 0006:C00AE2CC       pde_users_dec
 0006:C00AE2D0       proc_get_inode
 0006:C00AE3A8       proc_fill_super
 0006:C00AE45C       proc_test_super
 0006:C00AE470       proc_kill_sb
 0006:C00AE474       proc_set_super
 0006:C00AE480       proc_get_sb
 0006:C00AE5A4       proc_root_readdir
 0006:C00AE5EC       proc_root_getattr
 0006:C00AE620       proc_root_lookup
 0006:C00AE650       pid_ns_prepare_proc
 0006:C00AE670       pid_ns_release_proc
 0006:C00AE688       mounts_poll
 0006:C00AE6CC       mem_open
 0006:C00AE6EC       mem_lseek
 0006:C00AE728       pid_delete_dentry
 0006:C00AE740       name_to_int
 0006:C00AE7AC       proc_self_follow_link
 0006:C00AE814       proc_self_readlink
 0006:C00AE878       proc_base_instantiate
 0006:C00AE95C       proc_oom_score
 0006:C00AE998       proc_pid_wchan
 0006:C00AEA04       mounts_release
 0006:C00AEA34       proc_setattr
 0006:C00AEA74       proc_pid_cmdline
 0006:C00AEB40       sched_open
 0006:C00AEB70       proc_single_open
 0006:C00AEBA0       get_nr_threads
 0006:C00AEBD0       proc_pid_auxv
 0006:C00AEC24       proc_pid_limits
 0006:C00AED5C       proc_pid_personality
 0006:C00AED78       task_dumpable
 0006:C00AED9C       proc_pid_make_inode
 0006:C00AEE3C       proc_fill_cache
 0006:C00AEF80       proc_fd_permission
 0006:C00AEFBC       pid_getattr
 0006:C00AF030       proc_lookupfd_common
 0006:C00AF0C0       proc_lookupfd
 0006:C00AF0CC       proc_lookupfdinfo
 0006:C00AF0D8       proc_fd_access_allowed
 0006:C00AF130       proc_pid_follow_link
 0006:C00AF178       proc_pid_readlink
 0006:C00AF260       proc_single_show
 0006:C00AF2E4       proc_coredump_filter_write
 0006:C00AF450       proc_coredump_filter_read
 0006:C00AF50C       oom_adjust_read
 0006:C00AF5A0       oom_adjust_write
 0006:C00AF718       mounts_open_common
 0006:C00AF850       mountstats_open
 0006:C00AF85C       mountinfo_open
 0006:C00AF868       mounts_open
 0006:C00AF874       proc_info_read
 0006:C00AF93C       environ_read
 0006:C00AFACC       sched_show
 0006:C00AFB30       sched_write
 0006:C00AFB90       proc_fd_info
 0006:C00AFC7C       proc_fdinfo_read
 0006:C00AFCD4       proc_fd_link
 0006:C00AFCDC       tid_fd_revalidate
 0006:C00AFE04       proc_fdinfo_instantiate
 0006:C00AFE78       proc_fd_instantiate
 0006:C00AFF78       pid_revalidate
 0006:C00B0054       proc_pid_instantiate
 0006:C00B0114       proc_pident_instantiate
 0006:C00B01AC       proc_pident_lookup
 0006:C00B026C       proc_tid_base_lookup
 0006:C00B027C       proc_tgid_base_lookup
 0006:C00B028C       proc_readfd_common
 0006:C00B046C       proc_readfdinfo
 0006:C00B0478       proc_readfd
 0006:C00B0484       proc_task_readdir
 0006:C00B07C4       proc_pident_readdir
 0006:C00B0974       proc_tid_base_readdir
 0006:C00B0994       proc_tgid_base_readdir
 0006:C00B09B4       proc_task_getattr
 0006:C00B0A28       next_tgid
 0006:C00B0AF4       proc_base_revalidate
 0006:C00B0B80       check_mem_permission
 0006:C00B0BEC       mem_read
 0006:C00B0D90       proc_root_link
 0006:C00B0E08       proc_cwd_link
 0006:C00B0E80       proc_task_instantiate
 0006:C00B0F40       proc_task_lookup
 0006:C00B1028       mm_for_maps
 0006:C00B10A8       added_exe_file_vma
 0006:C00B10B8       removed_exe_file_vma
 0006:C00B10F0       set_mm_exe_file
 0006:C00B1138       get_mm_exe_file
 0006:C00B1180       proc_exe_link
 0006:C00B121C       dup_mm_exe_file
 0006:C00B1230       proc_flush_task
 0006:C00B1400       proc_pid_lookup
 0006:C00B1530       proc_pid_readdir
 0006:C00B170C       proc_file_lseek
 0006:C00B175C       proc_follow_link
 0006:C00B177C       proc_delete_dentry
 0006:C00B1784       proc_notify_change
 0006:C00B17D0       proc_file_write
 0006:C00B1828       proc_file_read
 0006:C00B1AB0       proc_getattr
 0006:C00B1AE0       proc_register
 0006:C00B1C50       xlate_proc_name
 0006:C00B1CE4       __proc_create
 0006:C00B1DC8       proc_net_mkdir
 0006:C00B1E20       proc_lookup_de
 0006:C00B1EC4       proc_lookup
 0006:C00B1ED8       proc_readdir_de
 0006:C00B2060       proc_readdir
 0006:C00B208C       proc_symlink
 0006:C00B2138       proc_mkdir_mode
 0006:C00B218C       proc_mkdir
 0006:C00B219C       create_proc_entry
 0006:C00B2224       proc_create_data
 0006:C00B22B8       free_proc_entry
 0006:C00B2300       remove_proc_entry
 0006:C00B24B0       collect_sigign_sigcatch
 0006:C00B2518       render_sigset_t
 0006:C00B25D8       render_cap_t
 0006:C00B2634       do_task_stat
 0006:C00B2BE8       proc_pid_status
 0006:C00B30A8       proc_tid_stat
 0006:C00B30C0       proc_tgid_stat
 0006:C00B30D8       proc_pid_statm
 0006:C00B3178       tty_drivers_open
 0006:C00B3188       show_tty_range
 0006:C00B330C       show_tty_driver
 0006:C00B349C       t_next
 0006:C00B34AC       t_stop
 0006:C00B34B8       t_start
 0006:C00B34E0       proc_tty_register_driver
 0006:C00B3534       proc_tty_unregister_driver
 0006:C00B3568       cmdline_proc_open
 0006:C00B357C       cmdline_proc_show
 0006:C00B35A0       cpuinfo_open
 0006:C00B35B0       devinfo_start
 0006:C00B35D8       devinfo_next
 0006:C00B360C       devinfo_stop
 0006:C00B3610       devinfo_open
 0006:C00B3620       devinfo_show
 0006:C00B3680       int_seq_start
 0006:C00B36AC       int_seq_next
 0006:C00B36E4       int_seq_stop
 0006:C00B36E8       interrupts_open
 0006:C00B36F8       loadavg_proc_open
 0006:C00B370C       loadavg_proc_show
 0006:C00B37D8       meminfo_proc_open
 0006:C00B37EC       arch_report_meminfo
 0006:C00B37F0       meminfo_proc_show
 0006:C00B3A74       show_stat
 0006:C00B3E4C       stat_open
 0006:C00B3EB4       uptime_proc_open
 0006:C00B3EC8       uptime_proc_show
 0006:C00B3F4C       version_proc_open
 0006:C00B3F60       version_proc_show
 0006:C00B3FA4       softirqs_open
 0006:C00B3FB8       show_softirqs
 0006:C00B4050       proc_sys_revalidate
 0006:C00B4068       proc_sys_delete
 0006:C00B4080       find_in_table
 0006:C00B40F0       proc_sys_make_inode
 0006:C00B419C       proc_sys_setattr
 0006:C00B41DC       scan
 0006:C00B4364       grab_header
 0006:C00B4378       proc_sys_readdir
 0006:C00B4524       proc_sys_lookup
 0006:C00B4638       proc_sys_call_handler
 0006:C00B46E8       proc_sys_write
 0006:C00B4700       proc_sys_read
 0006:C00B4718       proc_sys_permission
 0006:C00B4790       proc_sys_getattr
 0006:C00B47EC       proc_sys_compare
 0006:C00B4844       seq_open_net
 0006:C00B4884       single_open_net
 0006:C00B48BC       seq_release_net
 0006:C00B48CC       single_release_net
 0006:C00B48D0       get_proc_task_net
 0006:C00B48F8       proc_tgid_net_getattr
 0006:C00B4934       proc_tgid_net_lookup
 0006:C00B4968       proc_tgid_net_readdir
 0006:C00B49AC       proc_net_fops_create
 0006:C00B49D4       proc_net_remove
 0006:C00B49E4       kmsg_release
 0006:C00B4A00       kmsg_open
 0006:C00B4A10       kmsg_poll
 0006:C00B4A50       kmsg_read
 0006:C00B4A9C       kpagecount_read
 0006:C00B4B94       kpageflags_read
 0006:C00B5164       whole_disk_show
 0006:C00B516C       __bdevname
 0006:C00B51A8       part_size_show
 0006:C00B51CC       part_alignment_offset_show
 0006:C00B51F0       part_start_show
 0006:C00B5214       part_partition_show
 0006:C00B522C       part_stat_show
 0006:C00B5300       part_release
 0006:C00B5308       delete_partition_rcu_cb
 0006:C00B5338       read_dev_sector
 0006:C00B53B8       disk_name
 0006:C00B543C       bdevname
 0006:C00B5450       delete_partition
 0006:C00B54AC       add_partition
 0006:C00B56B8       register_disk
 0006:C00B5804       rescan_partitions
 0006:C00B5BAC       del_gendisk
 0006:C00B5C78       parse_solaris_x86
 0006:C00B5C7C       parse_freebsd
 0006:C00B5C80       parse_netbsd
 0006:C00B5C84       parse_openbsd
 0006:C00B5C88       parse_unixware
 0006:C00B5C8C       parse_minix
 0006:C00B5C90       msdos_partition
 0006:C00B6398       sysfs_setattr
 0006:C00B653C       sysfs_get_inode
 0006:C00B6738       sysfs_delete_inode
 0006:C00B678C       sysfs_hash_and_remove
 0006:C00B67F4       sysfs_notify_dirent
 0006:C00B6840       sysfs_notify
 0006:C00B68B0       sysfs_release
 0006:C00B6940       sysfs_poll
 0006:C00B69C4       sysfs_open_file
 0006:C00B6BEC       sysfs_write_file
 0006:C00B6D2C       sysfs_read_file
 0006:C00B6E54       sysfs_chmod_file
 0006:C00B7004       sysfs_remove_file
 0006:C00B7010       sysfs_remove_file_from_group
 0006:C00B70A4       sysfs_schedule_callback_work
 0006:C00B7114       sysfs_schedule_callback
 0006:C00B7298       sysfs_printk_last_file
 0006:C00B72AC       sysfs_add_file_mode
 0006:C00B7338       sysfs_add_file
 0006:C00B7340       sysfs_create_file
 0006:C00B737C       sysfs_add_file_to_group
 0006:C00B7420       sysfs_ilookup_test
 0006:C00B7438       sysfs_put_active
 0006:C00B7468       sysfs_pathname
 0006:C00B74A8       sysfs_readdir
 0006:C00B7644       sysfs_get_active.part.2
 0006:C00B7690       sysfs_link_sibling
 0006:C00B76E8       sysfs_get_dentry
 0006:C00B77A4       sysfs_get_active_two
 0006:C00B7800       sysfs_put_active_two
 0006:C00B781C       release_sysfs_dirent
 0006:C00B78CC       sysfs_d_iput
 0006:C00B790C       sysfs_new_dirent
 0006:C00B79FC       sysfs_addrm_start
 0006:C00B7A9C       sysfs_remove_one
 0006:C00B7B3C       sysfs_addrm_finish
 0006:C00B7D48       remove_dir
 0006:C00B7D78       sysfs_find_dirent
 0006:C00B7DAC       __sysfs_add_one
 0006:C00B7E50       sysfs_add_one
 0006:C00B7EE0       create_dir
 0006:C00B7F78       sysfs_get_dirent
 0006:C00B7FE4       sysfs_lookup
 0006:C00B8090       sysfs_create_subdir
 0006:C00B80A4       sysfs_create_dir
 0006:C00B80FC       sysfs_remove_subdir
 0006:C00B8100       sysfs_remove_dir
 0006:C00B816C       sysfs_rename_dir
 0006:C00B828C       sysfs_move_dir
 0006:C00B84DC       sysfs_do_create_link
 0006:C00B8628       sysfs_create_link
 0006:C00B8630       sysfs_remove_link
 0006:C00B8644       sysfs_put_link
 0006:C00B8660       sysfs_follow_link
 0006:C00B87D0       sysfs_create_link_nowarn
 0006:C00B87D8       sysfs_get_sb
 0006:C00B87E8       sysfs_fill_super
 0006:C00B88AC       sysfs_get
 0006:C00B88F0       sysfs_put
 0006:C00B8918       release
 0006:C00B8978       mmap
 0006:C00B8A40       bin_access
 0006:C00B8AD4       bin_page_mkwrite
 0006:C00B8B50       bin_fault
 0006:C00B8BC4       bin_vma_close
 0006:C00B8C20       bin_vma_open
 0006:C00B8C7C       open
 0006:C00B8DAC       write
 0006:C00B8EE4       read
 0006:C00B9074       sysfs_remove_bin_file
 0006:C00B9080       sysfs_create_bin_file
 0006:C00B90B8       unmap_bin_file
 0006:C00B9138       internal_create_group
 0006:C00B92D4       sysfs_create_group
 0006:C00B92E0       sysfs_update_group
 0006:C00B92EC       sysfs_remove_group
 0006:C00B93EC       devpts_kill_sb
 0006:C00B9408       devpts_get_sb
 0006:C00B9418       devpts_show_options
 0006:C00B9480       devpts_fill_super
 0006:C00B95A0       devpts_remount
 0006:C00B96B4       devpts_new_index
 0006:C00B9760       devpts_kill_index
 0006:C00B97A4       devpts_pty_new
 0006:C00B9950       devpts_get_tty
 0006:C00B99B0       devpts_pty_kill
 0006:C00B9A4C       goal_in_my_reservation
 0006:C00B9AC0       ext2_try_to_allocate
 0006:C00B9CEC       __rsv_window_dump.constprop.7
 0006:C00B9DD0       ext2_get_group_desc
 0006:C00B9E5C       read_block_bitmap
 0006:C00B9FCC       ext2_rsv_window_add
 0006:C00BA05C       ext2_try_to_allocate_with_rsv
 0006:C00BA46C       ext2_init_block_alloc_info
 0006:C00BA4CC       ext2_discard_reservation
 0006:C00BA508       ext2_free_blocks
 0006:C00BA7CC       ext2_new_blocks
 0006:C00BACD8       ext2_new_block
 0006:C00BACF8       ext2_count_free_blocks
 0006:C00BAD44       ext2_bg_has_super
 0006:C00BADBC       ext2_bg_num_gdb
 0006:C00BADD8       ext2_get_page
 0006:C00BB058       ext2_readdir
 0006:C00BB344       ext2_commit_chunk
 0006:C00BB400       ext2_find_entry
 0006:C00BB5F0       ext2_dotdot
 0006:C00BB650       ext2_inode_by_name
 0006:C00BB680       ext2_set_link
 0006:C00BB7E8       ext2_add_link
 0006:C00BBB40       ext2_delete_entry
 0006:C00BBD0C       ext2_make_empty
 0006:C00BBED4       ext2_empty_dir
 0006:C00BC038       ext2_release_file
 0006:C00BC070       read_inode_bitmap
 0006:C00BC0E0       ext2_free_inode
 0006:C00BC250       ext2_count_free_inodes
 0006:C00BC29C       ext2_new_inode
 0006:C00BCB68       ext2_count_dirs
 0006:C00BCBB4       ext2_block_to_path
 0006:C00BCCC4       ext2_get_branch
 0006:C00BCDBC       ext2_direct_IO
 0006:C00BCE18       ext2_bmap
 0006:C00BCE34       ext2_readpages
 0006:C00BCE4C       ext2_writepages
 0006:C00BCE58       ext2_readpage
 0006:C00BCE68       ext2_writepage
 0006:C00BCE78       ext2_nobh_write_begin
 0006:C00BCEB4       ext2_nobh_writepage
 0006:C00BCEC4       ext2_free_branches
 0006:C00BD030       ext2_get_inode
 0006:C00BD144       ext2_get_block
 0006:C00BD880       ext2_fiemap
 0006:C00BD8A8       __ext2_write_begin
 0006:C00BD8E4       ext2_write_begin
 0006:C00BD8FC       ext2_set_inode_flags
 0006:C00BD958       ext2_get_inode_flags
 0006:C00BD9B8       ext2_iget
 0006:C00BDD0C       ext2_write_inode
 0006:C00BE000       ext2_sync_inode
 0006:C00BE038       ext2_truncate
 0006:C00BE4CC       ext2_delete_inode
 0006:C00BE554       ext2_setattr
 0006:C00BE580       ext2_ioctl
 0006:C00BE8E8       ext2_unlink
 0006:C00BE950       ext2_rmdir
 0006:C00BE9CC       ext2_rename
 0006:C00BEC10       ext2_create
 0006:C00BECD4       ext2_mknod
 0006:C00BED6C       ext2_link
 0006:C00BEE18       ext2_mkdir
 0006:C00BEF58       ext2_symlink
 0006:C00BF090       ext2_lookup
 0006:C00BF110       ext2_get_parent
 0006:C00BF16C       ext2_sync_super
 0006:C00BF1B8       ext2_get_sb
 0006:C00BF1DC       ext2_fh_to_parent
 0006:C00BF1F8       ext2_fh_to_dentry
 0006:C00BF214       ext2_show_options
 0006:C00BF414       ext2_clear_inode
 0006:C00BF440       ext2_statfs
 0006:C00BF588       ext2_destroy_inode
 0006:C00BF59C       ext2_alloc_inode
 0006:C00BF5D8       parse_options
 0006:C00BF808       init_once_4
 0006:C00BF834       ext2_sync_fs
 0006:C00BF8A4       ext2_write_super
 0006:C00BF8C0       ext2_setup_super
 0006:C00BF9F8       ext2_put_super
 0006:C00BFA9C       ext2_nfs_get_inode
 0006:C00BFB34       ext2_error
 0006:C00BFBF4       ext2_warning
 0006:C00BFC40       ext2_fill_super
 0006:C00C06B4       ext2_remount
 0006:C00C0820       ext2_update_dynamic_rev
 0006:C00C086C       ext2_follow_link
 0006:C00C0888       cramfs_iget5_test
 0006:C00C08D0       cramfs_iget5_set
 0006:C00C0904       cramfs_remount
 0006:C00C0918       cramfs_statfs
 0006:C00C09A4       cramfs_get_sb
 0006:C00C09C8       cramfs_put_super
 0006:C00C09E4       cramfs_drop_inode
 0006:C00C09F8       cramfs_read
 0006:C00C0BB4       cramfs_readdir
 0006:C00C0D58       get_cramfs_inode
 0006:C00C0EB0       cramfs_fill_super
 0006:C00C10D8       cramfs_lookup
 0006:C00C1228       cramfs_readpage
 0006:C00C13B4       cramfs_uncompress_block
 0006:C00C1464       cramfs_uncompress_init
 0006:C00C14C0       cramfs_uncompress_exit
 0006:C00C14F4       ramfs_get_sb
 0006:C00C1504       rootfs_get_sb
 0006:C00C1518       ramfs_kill_sb
 0006:C00C1534       ramfs_get_inode
 0006:C00C1684       ramfs_mknod
 0006:C00C1744       ramfs_mkdir
 0006:C00C176C       ramfs_create
 0006:C00C1778       ramfs_symlink
 0006:C00C1854       ramfs_fill_super
 0006:C00C19AC       count_free
 0006:C00C1AF8       minix_free_block
 0006:C00C1BCC       minix_new_block
 0006:C00C1C88       minix_count_free_blocks
 0006:C00C1CB8       minix_V1_raw_inode
 0006:C00C1D54       minix_V2_raw_inode
 0006:C00C1E14       minix_free_inode
 0006:C00C1F4C       minix_new_inode
 0006:C00C20F0       minix_count_free_inodes
 0006:C00C2108       get_block
 0006:C00C245C       alloc_branch
 0006:C00C25D0       free_branches
 0006:C00C269C       block_to_path
 0006:C00C2770       V1_minix_get_block
 0006:C00C2AC4       V1_minix_truncate
 0006:C00C2E88       V1_minix_blocks
 0006:C00C2F00       get_block_0
 0006:C00C324C       alloc_branch_0
 0006:C00C33BC       free_branches_0
 0006:C00C3480       block_to_path_0
 0006:C00C3594       V2_minix_get_block
 0006:C00C38E4       V2_minix_truncate
 0006:C00C3C94       V2_minix_blocks
 0006:C00C3D0C       minix_unlink
 0006:C00C3D74       minix_rmdir
 0006:C00C3DE4       minix_rename
 0006:C00C3FF4       add_nondir
 0006:C00C4044       minix_mknod
 0006:C00C40B8       minix_create
 0006:C00C40C0       minix_link
 0006:C00C413C       minix_mkdir
 0006:C00C426C       minix_symlink
 0006:C00C4320       minix_lookup
 0006:C00C439C       minix_get_block
 0006:C00C43C0       minix_bmap
 0006:C00C43DC       minix_readpage
 0006:C00C43EC       minix_writepage
 0006:C00C43FC       minix_getattr
 0006:C00C4478       minix_get_sb
 0006:C00C449C       minix_remount
 0006:C00C4550       minix_put_super
 0006:C00C4608       minix_statfs
 0006:C00C46B4       minix_write_inode
 0006:C00C48D8       minix_destroy_inode
 0006:C00C48EC       minix_alloc_inode
 0006:C00C4910       init_once_5
 0006:C00C4918       __minix_write_begin
 0006:C00C4954       minix_write_begin
 0006:C00C496C       minix_set_inode
 0006:C00C49EC       minix_iget
 0006:C00C4B84       minix_fill_super
 0006:C00C5054       minix_truncate
 0006:C00C5088       minix_delete_inode
 0006:C00C50C0       dir_get_page
 0006:C00C5104       dir_commit_chunk
 0006:C00C51A0       minix_readdir
 0006:C00C5388       minix_find_entry
 0006:C00C5508       minix_add_link
 0006:C00C57F4       minix_delete_entry
 0006:C00C590C       minix_make_empty
 0006:C00C5A90       minix_empty_dir
 0006:C00C5BD0       minix_set_link
 0006:C00C5CEC       minix_dotdot
 0006:C00C5D40       minix_inode_by_name
 0006:C00C5D70       nfs_server_list_stop
 0006:C00C5D74       nfs_volume_list_stop
 0006:C00C5D78       nfs_free_client
 0006:C00C5DF8       nfs_alloc_server
 0006:C00C5E90       nfs_start_lockd
 0006:C00C5F28       nfs_destroy_server
 0006:C00C5F3C       nfs_init_server_rpcclient
 0006:C00C6040       nfs_probe_fsinfo
 0006:C00C6480       nfs_volume_list_open
 0006:C00C64B8       nfs_server_list_open
 0006:C00C64F0       nfs_volume_list_show
 0006:C00C65D4       nfs_server_list_show
 0006:C00C665C       nfs_volume_list_next
 0006:C00C666C       nfs_server_list_next
 0006:C00C667C       nfs_volume_list_start
 0006:C00C668C       nfs_server_list_start
 0006:C00C669C       nfs_put_client
 0006:C00C673C       nfs_find_client
 0006:C00C67D4       nfs_find_client_next
 0006:C00C6874       nfs_mark_client_ready
 0006:C00C6890       nfs4_check_client_ready
 0006:C00C6898       nfs_free_server
 0006:C00C6974       nfs_create_server
 0006:C00C7364       nfs_clone_server
 0006:C00C755C       nfs_fs_proc_exit
 0006:C00C759C       nfs_is_exclusive_create
 0006:C00C75E8       nfs_fsync_dir
 0006:C00C7644       nfs_mknod
 0006:C00C7704       nfs_mkdir
 0006:C00C77C0       nfs_create
 0006:C00C7890       nfs_opendir
 0006:C00C78F4       nfs_readdir_filler
 0006:C00C7A80       nfs_do_filldir
 0006:C00C7F00       nfs_readdir
 0006:C00C860C       nfs_llseek_dir
 0006:C00C86D4       nfs_lookup
 0006:C00C8820       nfs_link
 0006:C00C8908       nfs_sillyrename
 0006:C00C8AD8       nfs_dentry_handle_enoent
 0006:C00C8AF4       nfs_rmdir
 0006:C00C8B80       nfs_symlink
 0006:C00C8DD4       nfs_dentry_iput
 0006:C00C8E1C       nfs_check_verifier
 0006:C00C8E94       nfs_lookup_revalidate
 0006:C00C91C4       nfs_access_free_entry
 0006:C00C91FC       __nfs_access_zap_cache
 0006:C00C9284       nfs_do_access
 0006:C00C95A0       nfs_permission
 0006:C00C9708       nfs_dentry_delete
 0006:C00C9784       nfs_unlink
 0006:C00C9908       nfs_rename
 0006:C00C9B5C       nfs_force_lookup_revalidate
 0006:C00C9B6C       nfs_instantiate
 0006:C00C9CF8       nfs_access_cache_shrinker
 0006:C00C9EA8       nfs_access_zap_cache
 0006:C00C9EE8       nfs_may_open
 0006:C00C9F0C       nfs_check_flags
 0006:C00C9F20       nfs_release_page
 0006:C00C9F60       nfs_file_splice_read
 0006:C00C9FF0       nfs_do_fsync
 0006:C00CA04C       nfs_file_fsync
 0006:C00CA0B4       nfs_file_flush
 0006:C00CA128       nfs_file_release
 0006:C00CA18C       nfs_file_mmap
 0006:C00CA1FC       nfs_vm_page_mkwrite
 0006:C00CA324       nfs_revalidate_file_size
 0006:C00CA388       nfs_file_read
 0006:C00CA480       nfs_file_llseek
 0006:C00CA518       nfs_launder_page
 0006:C00CA568       nfs_write_end
 0006:C00CA794       nfs_write_begin
 0006:C00CA88C       nfs_need_sync_write
 0006:C00CA8CC       nfs_file_splice_write
 0006:C00CA990       nfs_file_write
 0006:C00CAAE8       nfs_setlease
 0006:C00CAB28       do_vfs_lock
 0006:C00CABA8       do_unlk
 0006:C00CAC08       do_setlk
 0006:C00CAC90       nfs_flock
 0006:C00CAD40       nfs_lock
 0006:C00CAEC4       nfs_file_open
 0006:C00CAF40       nfs_invalidate_page
 0006:C00CAF90       nfs_get_root
 0006:C00CB0E8       nfs_inode_attrs_need_update
 0006:C00CB198       nfs_zap_caches_locked
 0006:C00CB21C       nfs_init_locked
 0006:C00CB24C       init_once_6
 0006:C00CB2C8       nfs_find_actor
 0006:C00CB33C       __put_nfs_open_context
 0006:C00CB3CC       nfs_invalidate_mapping_nolock
 0006:C00CB46C       nfs_wait_bit_killable
 0006:C00CB4B4       nfs_compat_user_ino64
 0006:C00CB4E4       nfs_write_inode
 0006:C00CB538       nfs_sync_mapping
 0006:C00CB590       nfs_zap_caches
 0006:C00CB594       nfs_zap_mapping
 0006:C00CB5AC       nfs_zap_acl_cache
 0006:C00CB5E4       nfs_clear_inode
 0006:C00CB630       nfs_invalidate_atime
 0006:C00CB640       nfs_setattr_update_inode
 0006:C00CB7B8       get_nfs_open_context
 0006:C00CB7D8       put_nfs_open_context
 0006:C00CB7E0       nfs_find_open_context
 0006:C00CB844       nfs_open
 0006:C00CB9A8       nfs_release
 0006:C00CBA04       nfs_attribute_timeout
 0006:C00CBA3C       nfs_inc_attr_generation_counter
 0006:C00CBA5C       nfs_refresh_inode_locked
 0006:C00CC28C       nfs_post_op_update_inode_locked
 0006:C00CC2D0       nfs_fattr_init
 0006:C00CC2FC       nfs_refresh_inode
 0006:C00CC320       nfs_fhget
 0006:C00CC72C       nfs_setattr
 0006:C00CC830       __nfs_revalidate_inode
 0006:C00CC9BC       nfs_revalidate_inode
 0006:C00CCA04       nfs_close_context
 0006:C00CCA54       nfs_getattr
 0006:C00CCB20       nfs_revalidate_mapping_nolock
 0006:C00CCB90       nfs_revalidate_mapping
 0006:C00CCC34       nfs_post_op_update_inode
 0006:C00CCC38       nfs_post_op_update_inode_force_wcc
 0006:C00CCD24       nfs_alloc_inode
 0006:C00CCD54       nfs_destroy_inode
 0006:C00CCD68       nfs_kill_super
 0006:C00CCD90       nfs_statfs
 0006:C00CCEC4       nfs_set_super
 0006:C00CCEF4       nfs_show_mount_options
 0006:C00CD29C       nfs_show_stats
 0006:C00CD558       nfs_show_options
 0006:C00CD5A0       nfs_umount_begin
 0006:C00CD5CC       nfs_compare_super
 0006:C00CD770       nfs_verify_server_address
 0006:C00CD7C4       nfs_xdev_get_sb
 0006:C00CDA94       nfs_sb_active
 0006:C00CDAD4       nfs_sb_deactive
 0006:C00CDAFC       nfs_parse_ip_address
 0006:C00CDBBC       nfs_parse_mount_options
 0006:C00CE744       nfs_get_sb
 0006:C00CF0AC       nfs_remount
 0006:C00CF328       xdr_decode_fattr
 0006:C00CF548       nfs_xdr_fhandle
 0006:C00CF584       nfs_xdr_sattrargs
 0006:C00CF778       nfs_xdr_readdirargs
 0006:C00CF818       nfs_xdr_readargs
 0006:C00CF8D0       nfs_xdr_readlinkargs
 0006:C00CF948       nfs_xdr_writeargs
 0006:C00CF9E0       nfs_xdr_diropargs
 0006:C00CFA2C       nfs_xdr_removeargs
 0006:C00CFA7C       nfs_xdr_createargs
 0006:C00CFC80       nfs_xdr_renameargs
 0006:C00CFD00       nfs_xdr_linkargs
 0006:C00CFD70       nfs_xdr_symlinkargs
 0006:C00CFFCC       nfs_decode_dirent
 0006:C00D0094       nfs_stat_to_errno
 0006:C00D0108       nfs_xdr_statfsres
 0006:C00D01A0       nfs_xdr_readdirres
 0006:C00D0390       nfs_xdr_stat
 0006:C00D03AC       nfs_xdr_readres
 0006:C00D04D0       nfs_xdr_readlinkres
 0006:C00D0644       nfs_xdr_diropres
 0006:C00D069C       nfs_xdr_attrstat
 0006:C00D06DC       nfs_xdr_writeres
 0006:C00D06F0       nfs_direct_commit_result
 0006:C00D070C       nfs_direct_read_result
 0006:C00D0710       nfs_direct_release_pages
 0006:C00D073C       nfs_direct_req_free
 0006:C00D076C       nfs_direct_write_result
 0006:C00D0770       nfs_direct_wait
 0006:C00D07AC       nfs_direct_complete
 0006:C00D07F0       nfs_direct_read_release
 0006:C00D08B4       nfs_direct_write_complete
 0006:C00D0C24       nfs_direct_write_release
 0006:C00D0D20       nfs_direct_commit_release
 0006:C00D0DD8       nfs_direct_IO
 0006:C00D0E20       nfs_file_direct_read
 0006:C00D13B4       nfs_file_direct_write
 0006:C00D19EC       nfs_destroy_directcache
 0006:C00D19FC       nfs_pageio_doio
 0006:C00D1A74       nfs_create_request
 0006:C00D1BB0       nfs_set_page_tag_locked
 0006:C00D1C10       nfs_clear_request
 0006:C00D1C38       nfs_free_request
 0006:C00D1C6C       nfs_release_request
 0006:C00D1C7C       nfs_unlock_request
 0006:C00D1CD8       nfs_clear_page_tag_locked
 0006:C00D1D18       nfs_wait_on_request
 0006:C00D1D44       nfs_pageio_init
 0006:C00D1D78       nfs_pageio_add_request
 0006:C00D1E88       nfs_pageio_complete
 0006:C00D1E8C       nfs_pageio_cond_complete
 0006:C00D1EB0       nfs_scan_list
 0006:C00D1FB4       nfs_destroy_nfspagecache
 0006:C00D1FC4       nfs_proc_unlink_setup
 0006:C00D1FD4       nfs_proc_unlink_done
 0006:C00D1FFC       nfs_proc_pathconf
 0006:C00D200C       nfs_proc_read_setup
 0006:C00D201C       nfs_proc_write_setup
 0006:C00D2034       nfs_lock_check_bounds
 0006:C00D20A8       nfs_proc_lock
 0006:C00D20C0       nfs_proc_commit_setup
 0006:C00D20D8       nfs_proc_fsinfo
 0006:C00D21B8       nfs_proc_statfs
 0006:C00D229C       nfs_proc_readdir
 0006:C00D2360       nfs_proc_rmdir
 0006:C00D2434       nfs_proc_link
 0006:C00D252C       nfs_proc_rename
 0006:C00D263C       nfs_proc_remove
 0006:C00D2720       nfs_proc_readlink
 0006:C00D27D4       nfs_proc_lookup
 0006:C00D28A0       nfs_proc_getattr
 0006:C00D2934       nfs_proc_get_root
 0006:C00D2AE8       nfs_proc_mknod
 0006:C00D2CBC       nfs_proc_mkdir
 0006:C00D2DD0       nfs_proc_symlink
 0006:C00D2EF4       nfs_proc_create
 0006:C00D3008       nfs_proc_setattr
 0006:C00D30FC       nfs_write_done
 0006:C00D3120       nfs_read_done
 0006:C00D3180       nfs_readpage_truncate_uninitialised_page
 0006:C00D32BC       nfs_return_empty_page
 0006:C00D333C       nfs_read_rpcsetup
 0006:C00D34E0       nfs_readpage_release
 0006:C00D3574       readpage_async_filler
 0006:C00D36A8       nfs_readpage_retry.part.6
 0006:C00D3708       nfs_readdata_alloc
 0006:C00D37A4       nfs_pagein_one
 0006:C00D38A0       nfs_readdata_free
 0006:C00D38D8       nfs_pagein_multi
 0006:C00D3A5C       nfs_readpage_release_full
 0006:C00D3AAC       nfs_readpage_release_partial
 0006:C00D3B3C       nfs_readpage_async
 0006:C00D3C8C       nfs_readpage_result
 0006:C00D3D74       nfs_readpage_result_partial
 0006:C00D3DCC       nfs_readpage_result_full
 0006:C00D3ED4       nfs_readpage
 0006:C00D3FDC       nfs_readpages
 0006:C00D4134       nfs_destroy_readpagecache
 0006:C00D4154       nfs_follow_link
 0006:C00D41D4       nfs_symlink_filler
 0006:C00D4254       nfs_async_unlink_done
 0006:C00D428C       nfs_free_unlinkdata
 0006:C00D42B8       nfs_dec_sillycount
 0006:C00D42E8       nfs_do_call_unlink
 0006:C00D4458       nfs_async_unlink_release
 0006:C00D4480       nfs_block_sillyrename
 0006:C00D4540       nfs_unblock_sillyrename
 0006:C00D45FC       nfs_async_unlink
 0006:C00D4680       nfs_complete_unlink
 0006:C00D47A4       nfs_context_set_write_error
 0006:C00D47C4       nfs_clear_request_commit
 0006:C00D4860       nfs_pageio_init_write
 0006:C00D4894       nfs_commit_done
 0006:C00D48F0       nfs_set_pageerror
 0006:C00D4914       nfs_mark_request_commit
 0006:C00D49D4       nfs_end_page_writeback
 0006:C00D4A30       nfs_write_rpcsetup
 0006:C00D4C28       nfs_page_find_request_locked
 0006:C00D4C58       nfs_inode_remove_request
 0006:C00D4CEC       nfs_scan_commit
 0006:C00D4D38       nfs_redirty_request
 0006:C00D4D5C       nfs_do_writepage.isra.4
 0006:C00D4E98       nfs_writepages_callback
 0006:C00D4EBC       nfs_writepage_locked
 0006:C00D4F28       nfs_commitdata_alloc
 0006:C00D4F6C       nfs_commit_list.isra.5
 0006:C00D51C4       nfs_commit_free
 0006:C00D51FC       nfs_writedata_alloc
 0006:C00D5298       nfs_flush_one
 0006:C00D5384       nfs_writedata_free
 0006:C00D53BC       nfs_writedata_release
 0006:C00D53D8       nfs_writeback_release_full
 0006:C00D555C       nfs_flush_multi
 0006:C00D56D0       nfs_writeback_release_partial
 0006:C00D58C8       nfs_writepage
 0006:C00D58E8       nfs_writepages
 0006:C00D59E8       nfs_writeback_done
 0006:C00D5BD8       nfs_writeback_done_full
 0006:C00D5BDC       nfs_writeback_done_partial
 0006:C00D5C6C       nfs_commitdata_release
 0006:C00D5C88       nfs_commit_release
 0006:C00D5DE0       nfs_commit_inode
 0006:C00D5E28       nfs_sync_mapping_wait
 0006:C00D600C       nfs_write_mapping
 0006:C00D60A0       nfs_wb_all
 0006:C00D60AC       nfs_wb_nocommit
 0006:C00D60B8       nfs_wb_page_cancel
 0006:C00D61D4       nfs_wb_page
 0006:C00D62B4       nfs_flush_incompatible
 0006:C00D631C       nfs_updatepage
 0006:C00D676C       nfs_destroy_writepagecache
 0006:C00D6794       nfs_expire_automounts
 0006:C00D67C4       nfs_path
 0006:C00D68AC       nfs_follow_mountpoint
 0006:C00D6C38       nfs_release_automount_timer
 0006:C00D6C7C       mnt_enc_dirpath
 0006:C00D6CE4       mnt_dec_mountres3
 0006:C00D6EBC       mnt_dec_mountres
 0006:C00D6F94       nfs_mount
 0006:C00D7148       nfs3_forget_cached_acls
 0006:C00D714C       nfs3_proc_unlink_setup
 0006:C00D715C       nfs3_proc_read_setup
 0006:C00D716C       nfs3_proc_write_setup
 0006:C00D717C       nfs3_proc_commit_setup
 0006:C00D718C       nfs3_proc_lock
 0006:C00D71A4       nfs3_alloc_createdata
 0006:C00D7204       nfs3_async_handle_jukebox
 0006:C00D7258       nfs3_commit_done
 0006:C00D7288       nfs3_read_done
 0006:C00D72C0       nfs3_proc_unlink_done
 0006:C00D72F8       nfs3_write_done
 0006:C00D7338       nfs3_rpc_wrapper.constprop.6
 0006:C00D739C       nfs3_proc_setattr
 0006:C00D7494       nfs3_do_create
 0006:C00D74EC       nfs3_proc_mknod
 0006:C00D7610       nfs3_proc_mkdir
 0006:C00D76D0       nfs3_proc_symlink
 0006:C00D77A4       nfs3_proc_create
 0006:C00D7968       nfs3_proc_remove
 0006:C00D7A48       nfs3_proc_rename
 0006:C00D7B54       nfs3_proc_link
 0006:C00D7C4C       nfs3_proc_rmdir
 0006:C00D7D18       do_proc_get_root
 0006:C00D7E10       nfs3_proc_get_root
 0006:C00D7E58       nfs3_proc_getattr
 0006:C00D7EE8       nfs3_proc_lookup
 0006:C00D801C       nfs3_proc_access
 0006:C00D818C       nfs3_proc_readlink
 0006:C00D8258       nfs3_proc_readdir
 0006:C00D8378       nfs3_proc_statfs
 0006:C00D8408       do_proc_fsinfo
 0006:C00D8498       nfs3_proc_fsinfo
 0006:C00D84E0       nfs3_proc_pathconf
 0006:C00D8570       xdr_decode_fattr_0
 0006:C00D87F4       nfs3_xdr_commitres
 0006:C00D891C       nfs3_xdr_pathconfres
 0006:C00D89AC       nfs3_xdr_fsinfores
 0006:C00D8AF4       nfs3_xdr_fsstatres
 0006:C00D8CA8       nfs3_xdr_linkres
 0006:C00D8DD4       nfs3_xdr_renameres
 0006:C00D8FBC       nfs3_xdr_createres
 0006:C00D9188       nfs3_xdr_writeres
 0006:C00D92F0       nfs3_xdr_accessres
 0006:C00D9368       nfs3_xdr_lookupres
 0006:C00D9430       nfs3_xdr_wccstat
 0006:C00D953C       nfs3_xdr_removeres
 0006:C00D9544       nfs3_xdr_attrstat
 0006:C00D9584       nfs3_xdr_fhandle
 0006:C00D95B4       nfs3_xdr_diropargs
 0006:C00D95F4       nfs3_xdr_removeargs
 0006:C00D9638       nfs3_xdr_mkdirargs
 0006:C00D9834       nfs3_xdr_renameargs
 0006:C00D9890       nfs3_xdr_linkargs
 0006:C00D98E4       nfs3_xdr_commitargs
 0006:C00D996C       nfs3_xdr_mknodargs
 0006:C00D9BD8       nfs3_xdr_createargs
 0006:C00D9E0C       nfs3_xdr_accessargs
 0006:C00D9E5C       nfs3_xdr_sattrargs
 0006:C00DA0B0       nfs3_xdr_readdirres
 0006:C00DA37C       nfs3_xdr_readres
 0006:C00DA50C       nfs3_xdr_readlinkres
 0006:C00DA6B0       nfs3_xdr_readdirargs
 0006:C00DA79C       nfs3_xdr_readargs
 0006:C00DA860       nfs3_xdr_readlinkargs
 0006:C00DA8CC       nfs3_xdr_symlinkargs
 0006:C00DAB00       nfs3_xdr_writeargs
 0006:C00DABC4       nfs3_decode_dirent
 0006:C00DADDC       nfs_register_sysctl
 0006:C00DAE08       nfs_unregister_sysctl
 0006:C00DAE28       exportfs_encode_fh
 0006:C00DAEEC       exportfs_get_name
 0006:C00DB074       reconnect_path
 0006:C00DB29C       filldir_one
 0006:C00DB2F8       find_acceptable_alias.part.1
 0006:C00DB3A0       exportfs_decode_fh
 0006:C00DB590       nfsd
 0006:C00DB6E4       nfsd_last_thread
 0006:C00DB73C       nfsd_vers
 0006:C00DB7D8       nfsd_minorversion
 0006:C00DB854       nfsd_nrthreads
 0006:C00DB88C       nfsd_reset_versions
 0006:C00DB8D4       nfsd_create_serv
 0006:C00DBA14       nfsd_nrpools
 0006:C00DBA2C       nfsd_get_nrthreads
 0006:C00DBA9C       nfsd_set_nrthreads
 0006:C00DBC2C       nfsd_svc
 0006:C00DBD68       nfsd_dispatch
 0006:C00DBF40       nfsd_pool_stats_open
 0006:C00DBF60       nfsd_get_sb
 0006:C00DBF70       nfsd_fill_super
 0006:C00DBF84       exports_open
 0006:C00DBF94       write_maxblksize
 0006:C00DC088       write_pool_threads
 0006:C00DC234       write_svc
 0006:C00DC25C       write_threads
 0006:C00DC310       write_unlock_fs
 0006:C00DC388       write_unlock_ip
 0006:C00DC488       write_filehandle
 0006:C00DC5F8       write_getfs
 0006:C00DC6A0       write_getfd
 0006:C00DC774       write_unexport
 0006:C00DC78C       write_export
 0006:C00DC7A4       write_del
 0006:C00DC7BC       write_add
 0006:C00DC7D4       nfsctl_transaction_write
 0006:C00DC84C       nfsctl_transaction_read
 0006:C00DC894       write_ports
 0006:C00DCB48       write_versions
 0006:C00DCD90       nfsd_proc_null
 0006:C00DCD98       nfsd_proc_statfs
 0006:C00DCDFC       nfsd_proc_readdir
 0006:C00DCEE4       nfsd_proc_rmdir
 0006:C00DCF58       nfsd_proc_remove
 0006:C00DCFD0       nfsd_proc_symlink
 0006:C00DD088       nfsd_proc_link
 0006:C00DD12C       nfsd_proc_rename
 0006:C00DD1E8       nfsd_proc_readlink
 0006:C00DD254       nfserrno
 0006:C00DD2A4       nfsd_return_dirop.part.1
 0006:C00DD2C8       nfsd_proc_lookup
 0006:C00DD368       nfsd_proc_mkdir
 0006:C00DD444       nfsd_proc_create
 0006:C00DD8DC       nfsd_return_attrs.part.2
 0006:C00DD900       nfsd_proc_write
 0006:C00DD9F0       nfsd_proc_getattr
 0006:C00DDA90       nfsd_proc_setattr
 0006:C00DDB48       nfsd_proc_read
 0006:C00DDC98       nfsd_acceptable
 0006:C00DDDB4       nfsd_setuser_and_check_port
 0006:C00DDE24       _fh_update
 0006:C00DDE98       fh_update
 0006:C00DDF68       fh_put
 0006:C00DE004       fh_compose
 0006:C00DE514       SVCFH_fmt
 0006:C00DE570       fh_verify
 0006:C00DEB50       fsid_source
 0006:C00DEBDC       nfsd_sync
 0006:C00DEC94       nfsd_direct_splice_actor
 0006:C00DECA0       nfsd_splice_actor
 0006:C00DED9C       nfsd_vfs_read
 0006:C00DF130       nfsd_buffered_filldir
 0006:C00DF19C       nfsd_vfs_write.isra.9
 0006:C00DF4A8       nfsd_cross_mnt
 0006:C00DF5E8       nfsd_lookup_dentry
 0006:C00DFA20       nfsd_lookup
 0006:C00DFAD4       nfsd_open
 0006:C00DFC44       nfsd_close
 0006:C00DFC48       nfsd_sync_dir
 0006:C00DFCAC       nfsd_commit
 0006:C00DFD4C       nfsd_readlink
 0006:C00DFE20       nfsd_symlink
 0006:C00E00C8       nfsd_link
 0006:C00E0354       nfsd_rename
 0006:C00E065C       nfsd_unlink
 0006:C00E0884       nfsd_readdir
 0006:C00E0A6C       nfsd_statfs
 0006:C00E0AA4       nfsd_permission
 0006:C00E0BA8       nfsd_setattr
 0006:C00E0FFC       nfsd_create_setattr
 0006:C00E1058       nfsd_create
 0006:C00E1470       nfsd_create_v3
 0006:C00E1874       nfsd_access
 0006:C00E1978       nfsd_read
 0006:C00E1A38       nfsd_write
 0006:C00E1B18       nfsd_racache_shutdown
 0006:C00E1B80       nfsd_racache_init
 0006:C00E1C64       expkey_match
 0006:C00E1CBC       expkey_init
 0006:C00E1D00       expkey_update
 0006:C00E1D18       svc_export_match
 0006:C00E1D58       export_update
 0006:C00E1DF4       e_next
 0006:C00E1E9C       expkey_alloc
 0006:C00E1EB0       svc_export_alloc
 0006:C00E1EC4       show_expflags
 0006:C00E1F54       nfsd4_fslocs_free
 0006:C00E1F9C       svc_export_put
 0006:C00E1FD4       expkey_put
 0006:C00E2014       svc_export_lookup
 0006:C00E2050       svc_expkey_lookup
 0006:C00E20E4       svc_export_update
 0006:C00E2130       svc_expkey_update
 0006:C00E21CC       svc_export_request
 0006:C00E2234       exp_set_key
 0006:C00E22F0       expkey_parse
 0006:C00E260C       expkey_request
 0006:C00E2694       exp_get_by_name
 0006:C00E26FC       exp_find_key
 0006:C00E2780       exp_find
 0006:C00E27EC       svc_export_init
 0006:C00E2888       expkey_show
 0006:C00E2964       check_export
 0006:C00E2A1C       svc_export_parse
 0006:C00E2E18       exp_fsid_unhash.part.9
 0006:C00E2E90       exp_verify_string.constprop.10
 0006:C00E2ED8       exp_do_unexport
 0006:C00E2FF4       svc_export_show
 0006:C00E32EC       e_show
 0006:C00E3398       exp_readlock
 0006:C00E33A4       e_start
 0006:C00E3450       exp_readunlock
 0006:C00E345C       e_stop
 0006:C00E3460       exp_export
 0006:C00E3840       exp_unexport
 0006:C00E395C       exp_rootfh
 0006:C00E3B30       check_nfsd_access
 0006:C00E3BA8       rqst_exp_get_by_name
 0006:C00E3C68       rqst_exp_find
 0006:C00E3D30       rqst_exp_parent
 0006:C00E3DF0       exp_pseudoroot
 0006:C00E3E8C       exp_addclient
 0006:C00E3F48       exp_delclient
 0006:C00E3FA0       nfsd_export_init
 0006:C00E3FFC       nfsd_export_flush
 0006:C00E4030       nfsd_export_shutdown
 0006:C00E40A4       nfsexp_flags
 0006:C00E40E8       nfsd_setuser
 0006:C00E4380       nlm_fclose
 0006:C00E4384       nlm_fopen
 0006:C00E4428       nfsd_lockd_init
 0006:C00E4464       nfsd_lockd_shutdown
 0006:C00E4478       nfsd_reply_cache_shutdown
 0006:C00E4504       nfsd_reply_cache_init
 0006:C00E45BC       nfsd_cache_lookup
 0006:C00E497C       nfsd_cache_update
 0006:C00E4A9C       decode_fh
 0006:C00E4AE4       decode_sattr
 0006:C00E4C60       decode_filename
 0006:C00E4CAC       encode_fattr.isra.0
 0006:C00E4F84       nfs2svc_decode_fh
 0006:C00E4F88       nfs2svc_encode_fattr
 0006:C00E4FC4       nfssvc_decode_void
 0006:C00E4FF0       nfssvc_decode_fhandle
 0006:C00E5040       nfssvc_decode_sattrargs
 0006:C00E50A0       nfssvc_decode_diropargs
 0006:C00E5100       nfssvc_decode_readargs
 0006:C00E51F0       nfssvc_decode_writeargs
 0006:C00E52F4       nfssvc_decode_createargs
 0006:C00E5360       nfssvc_decode_renameargs
 0006:C00E53E4       nfssvc_decode_readlinkargs
 0006:C00E546C       nfssvc_decode_linkargs
 0006:C00E54DC       nfssvc_decode_symlinkargs
 0006:C00E5584       nfssvc_decode_readdirargs
 0006:C00E5648       nfssvc_encode_void
 0006:C00E5664       nfssvc_encode_attrstat
 0006:C00E5698       nfssvc_encode_diropres
 0006:C00E56E8       nfssvc_encode_readlinkres
 0006:C00E574C       nfssvc_encode_readres
 0006:C00E57C8       nfssvc_encode_readdirres
 0006:C00E5828       nfssvc_encode_statfsres
 0006:C00E58B0       nfssvc_encode_entry
 0006:C00E597C       nfssvc_release_fhandle
 0006:C00E5990       nfsd_proc_open
 0006:C00E59A4       nfsd_proc_show
 0006:C00E5AE4       nfsd_stat_init
 0006:C00E5AF8       nfsd_stat_shutdown
 0006:C00E5B04       nfsd3_proc_null
 0006:C00E5B0C       nfsd3_proc_pathconf
 0006:C00E5BD4       nfsd3_proc_fsinfo
 0006:C00E5CA8       nfsd3_proc_fsstat
 0006:C00E5D10       nfsd3_proc_readdir
 0006:C00E5E54       nfsd3_proc_readdirplus
 0006:C00E6050       nfsd3_proc_link
 0006:C00E6164       nfsd3_proc_rename
 0006:C00E628C       nfsd3_proc_rmdir
 0006:C00E633C       nfsd3_proc_remove
 0006:C00E63F0       nfsd3_proc_mknod
 0006:C00E6520       nfsd3_proc_mkdir
 0006:C00E6600       nfsd3_proc_symlink
 0006:C00E66E4       nfsd3_proc_create
 0006:C00E6814       nfsd3_proc_write
 0006:C00E6924       nfsd3_proc_read
 0006:C00E6A6C       nfsd3_proc_readlink
 0006:C00E6B10       nfsd3_proc_access
 0006:C00E6BB8       nfsd3_proc_lookup
 0006:C00E6C78       nfsd3_proc_setattr
 0006:C00E6D20       nfsd3_proc_getattr
 0006:C00E6DDC       nfsd3_proc_commit
 0006:C00E6EA4       decode_sattr3
 0006:C00E70AC       decode_fh_0
 0006:C00E7118       encode_time3
 0006:C00E7150       encode_fh
 0006:C00E71A4       decode_filename_0
 0006:C00E71F0       compose_entry_fh
 0006:C00E7348       encode_entry_baggage.isra.0
 0006:C00E73B0       encode_fattr3.isra.1
 0006:C00E764C       encode_post_op_attr.isra.2
 0006:C00E76D0       encode_wcc_data.isra.4
 0006:C00E7784       encode_entryplus_baggage.isra.6
 0006:C00E77B8       encode_entry.isra.7
 0006:C00E7B04       nfs3svc_decode_fh
 0006:C00E7B08       nfs3svc_encode_post_op_attr
 0006:C00E7B14       fill_post_wcc
 0006:C00E7B70       nfs3svc_decode_fhandle
 0006:C00E7BC0       nfs3svc_decode_sattrargs
 0006:C00E7C5C       nfs3svc_decode_diropargs
 0006:C00E7CBC       nfs3svc_decode_accessargs
 0006:C00E7D24       nfs3svc_decode_readargs
 0006:C00E7E44       nfs3svc_decode_writeargs
 0006:C00E7FBC       nfs3svc_decode_createargs
 0006:C00E8068       nfs3svc_decode_mkdirargs
 0006:C00E80D4       nfs3svc_decode_symlinkargs
 0006:C00E8260       nfs3svc_decode_mknodargs
 0006:C00E8340       nfs3svc_decode_renameargs
 0006:C00E83C4       nfs3svc_decode_readlinkargs
 0006:C00E844C       nfs3svc_decode_linkargs
 0006:C00E84BC       nfs3svc_decode_readdirargs
 0006:C00E85B8       nfs3svc_decode_readdirplusargs
 0006:C00E86E8       nfs3svc_decode_commitargs
 0006:C00E8790       nfs3svc_encode_voidres
 0006:C00E87AC       nfs3svc_encode_attrstat
 0006:C00E8808       nfs3svc_encode_wccstat
 0006:C00E8838       nfs3svc_encode_diropres
 0006:C00E888C       nfs3svc_encode_accessres
 0006:C00E88E8       nfs3svc_encode_readlinkres
 0006:C00E898C       nfs3svc_encode_readres
 0006:C00E8A60       nfs3svc_encode_writeres
 0006:C00E8B10       nfs3svc_encode_createres
 0006:C00E8B70       nfs3svc_encode_renameres
 0006:C00E8BAC       nfs3svc_encode_linkres
 0006:C00E8BE8       nfs3svc_encode_readdirres
 0006:C00E8CB0       nfs3svc_encode_entry
 0006:C00E8CC4       nfs3svc_encode_entry_plus
 0006:C00E8CD8       nfs3svc_encode_fsstatres
 0006:C00E8E84       nfs3svc_encode_fsinfores
 0006:C00E8FBC       nfs3svc_encode_pathconfres
 0006:C00E9084       nfs3svc_encode_commitres
 0006:C00E9108       nfs3svc_release_fhandle
 0006:C00E911C       nfs3svc_release_fhandle2
 0006:C00E913C       nlmclnt_init
 0006:C00E9198       nlmclnt_done
 0006:C00E91A8       reclaimer
 0006:C00E937C       nlmclnt_prepare_block
 0006:C00E93E4       nlmclnt_finish_block
 0006:C00E9410       nlmclnt_block
 0006:C00E94F0       nlmclnt_grant
 0006:C00E95EC       nlmclnt_recovery
 0006:C00E965C       __nlm_find_lockowner
 0006:C00E96AC       nlmclnt_locks_release_private
 0006:C00E971C       nlm_stat_to_errno
 0006:C00E97BC       nlmclnt_unlock_callback
 0006:C00E985C       nlmclnt_cancel_callback
 0006:C00E9984       nlmclnt_call
 0006:C00E9C18       do_vfs_lock_0
 0006:C00E9C64       __nlm_async_call
 0006:C00E9D14       nlmclnt_async_call
 0006:C00E9D94       nlmclnt_locks_copy_lock
 0006:C00E9DE8       nlmclnt_next_cookie
 0006:C00E9E2C       nlmclnt_setlockargs
 0006:C00E9EE4       nlm_alloc_call
 0006:C00E9F80       nlm_release_call
 0006:C00E9FD4       nlmclnt_rpc_release
 0006:C00E9FD8       nlmclnt_proc
 0006:C00EA5AC       nlm_async_call
 0006:C00EA608       nlm_async_reply
 0006:C00EA65C       nlmclnt_reclaim
 0006:C00EA710       nlm_gc_hosts
 0006:C00EA8DC       nlm_bind_host
 0006:C00EAA78       nlm_rebind_host
 0006:C00EAAE4       nlm_get_host
 0006:C00EAB4C       nlm_lookup_host
 0006:C00EAF64       nlmclnt_lookup_host
 0006:C00EB038       nlmsvc_lookup_host
 0006:C00EB18C       nlm_release_host
 0006:C00EB25C       nlm_host_rebooted
 0006:C00EB320       nlm_shutdown_hosts
 0006:C00EB470       grace_ender
 0006:C00EB47C       set_grace_period
 0006:C00EB4E8       lockd
 0006:C00EB6A8       param_set_grace_period
 0006:C00EB6FC       param_set_timeout
 0006:C00EB750       param_set_port
 0006:C00EB7A0       lockd_authenticate
 0006:C00EB7EC       lockd_down
 0006:C00EB890       create_lockd_listener.constprop.4
 0006:C00EB8E0       lockd_up
 0006:C00EBA8C       nlmsvc_same_owner
 0006:C00EBAB4       nlmsvc_insert_block
 0006:C00EBB94       nlmsvc_release_block
 0006:C00EBBA8       nlmsvc_unlink_block
 0006:C00EBC20       nlmsvc_grant_release
 0006:C00EBC28       nlmsvc_free_block
 0006:C00EBCCC       nlmsvc_lookup_block
 0006:C00EBE44       nlmsvc_defer_lock_rqst
 0006:C00EBEE0       nlmsvc_notify_blocked
 0006:C00EBFC8       nlmsvc_grant_callback
 0006:C00EC030       nlmsvc_grant_deferred
 0006:C00EC18C       nlmsvc_create_block.isra.2
 0006:C00EC334       nlmsvc_traverse_blocks
 0006:C00EC3D4       nlmsvc_lock
 0006:C00EC63C       nlmsvc_testlock
 0006:C00EC868       nlmsvc_cancel_blocked
 0006:C00EC940       nlmsvc_unlock
 0006:C00EC9D8       nlmsvc_grant_reply
 0006:C00ECAC8       nlmsvc_retry_blocked
 0006:C00ECD14       nlmsvc_share_file
 0006:C00ECDFC       nlmsvc_unshare_file
 0006:C00ECE6C       nlmsvc_traverse_shares
 0006:C00ECEB8       cast_to_nlm
 0006:C00ECF1C       nlmsvc_retrieve_args
 0006:C00ECFF4       nlmsvc_proc_free_all
 0006:C00ED028       nlmsvc_proc_null
 0006:C00ED054       nlmsvc_proc_share
 0006:C00ED16C       nlmsvc_proc_granted_res
 0006:C00ED1C4       nlmsvc_callback_release
 0006:C00ED1C8       nlmsvc_callback
 0006:C00ED254       nlmsvc_proc_granted_msg
 0006:C00ED29C       nlmsvc_proc_unlock_msg
 0006:C00ED2E4       nlmsvc_proc_cancel_msg
 0006:C00ED32C       nlmsvc_proc_lock_msg
 0006:C00ED374       nlmsvc_proc_test_msg
 0006:C00ED3BC       nlmsvc_proc_granted
 0006:C00ED454       nlmsvc_proc_lock
 0006:C00ED57C       nlmsvc_proc_nm_lock
 0006:C00ED5C8       nlmsvc_proc_test
 0006:C00ED6E8       nlmsvc_callback_exit
 0006:C00ED718       nlmsvc_proc_unshare
 0006:C00ED828       nlmsvc_proc_sm_notify
 0006:C00ED8C0       nlmsvc_proc_unlock
 0006:C00ED9D0       nlmsvc_proc_cancel
 0006:C00EDAE0       nlmsvc_always_match
 0006:C00EDAE8       nlmsvc_mark_host
 0006:C00EDAFC       nlmsvc_same_host
 0006:C00EDB0C       nlmsvc_match_sb
 0006:C00EDB28       nlmsvc_match_ip
 0006:C00EDB60       nlm_traverse_files
 0006:C00EDD74       nlmsvc_unlock_all_by_sb
 0006:C00EDD9C       nlmsvc_unlock_all_by_ip
 0006:C00EDDC0       nlmsvc_is_client
 0006:C00EDDF4       nlm_lookup_file
 0006:C00EE058       nlm_release_file
 0006:C00EE19C       nlmsvc_mark_resources
 0006:C00EE1D8       nlmsvc_free_host_resources
 0006:C00EE240       nlmsvc_invalidate_all
 0006:C00EE254       nsm_mon_unmon
 0006:C00EE3C4       xdr_dec_stat
 0006:C00EE43C       xdr_dec_stat_res
 0006:C00EE4D0       encode_nsm_string
 0006:C00EE520       encode_my_id
 0006:C00EE5C0       xdr_enc_mon
 0006:C00EE638       xdr_enc_unmon
 0006:C00EE67C       nsm_monitor
 0006:C00EE76C       nsm_unmonitor
 0006:C00EE7FC       nsm_get_handle
 0006:C00EEB70       nsm_reboot_lookup
 0006:C00EEC48       nsm_release
 0006:C00EECBC       nlmclt_encode_res
 0006:C00EED2C       nlm_decode_cookie
 0006:C00EEDC0       nlmclt_decode_res
 0006:C00EEDEC       nlm_decode_fh
 0006:C00EEE70       nlm_decode_lock
 0006:C00EEF64       nlmclt_decode_testres
 0006:C00EF070       nlm_encode_testres
 0006:C00EF1D8       nlmclt_encode_testres
 0006:C00EF20C       nlm_encode_lock
 0006:C00EF368       nlmclt_encode_unlockargs
 0006:C00EF3E8       nlmclt_encode_cancargs
 0006:C00EF498       nlmclt_encode_lockargs
 0006:C00EF578       nlmclt_encode_testargs
 0006:C00EF614       nlmsvc_decode_testargs
 0006:C00EF694       nlmsvc_encode_testres
 0006:C00EF6CC       nlmsvc_decode_lockargs
 0006:C00EF7A0       nlmsvc_decode_cancargs
 0006:C00EF838       nlmsvc_decode_unlockargs
 0006:C00EF89C       nlmsvc_decode_shareargs
 0006:C00EF97C       nlmsvc_encode_shareres
 0006:C00EFA00       nlmsvc_encode_res
 0006:C00EFA7C       nlmsvc_decode_notify
 0006:C00EFAEC       nlmsvc_decode_reboot
 0006:C00EFB74       nlmsvc_decode_res
 0006:C00EFBCC       nlmsvc_decode_void
 0006:C00EFBF8       nlmsvc_encode_void
 0006:C00EFC14       nlmdbg_cookie2a
 0006:C00EFC80       locks_start_grace
 0006:C00EFC9C       locks_end_grace
 0006:C00EFCB4       locks_in_grace
 0006:C00EFCCC       nlm4_decode_cookie
 0006:C00EFD60       nlm4clt_decode_res
 0006:C00EFD8C       nlm4_decode_fh
 0006:C00EFE20       nlm4_encode_cookie
 0006:C00EFE68       nlm4clt_encode_res
 0006:C00EFEAC       nlm4_decode_lock
 0006:C00EFFE4       nlm4clt_decode_testres
 0006:C00F012C       nlm4_encode_testres
 0006:C00F02E4       nlm4clt_encode_testres
 0006:C00F0318       nlm4_encode_lock
 0006:C00F0474       nlm4clt_encode_unlockargs
 0006:C00F04C4       nlm4clt_encode_cancargs
 0006:C00F0544       nlm4clt_encode_lockargs
 0006:C00F05F4       nlm4clt_encode_testargs
 0006:C00F0660       nlm4svc_decode_testargs
 0006:C00F06E0       nlm4svc_encode_testres
 0006:C00F0718       nlm4svc_decode_lockargs
 0006:C00F07EC       nlm4svc_decode_cancargs
 0006:C00F0884       nlm4svc_decode_unlockargs
 0006:C00F08E8       nlm4svc_decode_shareargs
 0006:C00F09C8       nlm4svc_encode_shareres
 0006:C00F0A18       nlm4svc_encode_res
 0006:C00F0A60       nlm4svc_decode_notify
 0006:C00F0AD0       nlm4svc_decode_reboot
 0006:C00F0B58       nlm4svc_decode_res
 0006:C00F0BB0       nlm4svc_decode_void
 0006:C00F0BDC       nlm4svc_encode_void
 0006:C00F0BF8       nlm4svc_retrieve_args
 0006:C00F0CD0       nlm4svc_proc_free_all
 0006:C00F0D04       nlm4svc_proc_null
 0006:C00F0D30       nlm4svc_proc_share
 0006:C00F0E40       nlm4svc_proc_granted_res
 0006:C00F0E98       nlm4svc_callback_release
 0006:C00F0E9C       nlm4svc_callback
 0006:C00F0F28       nlm4svc_proc_granted_msg
 0006:C00F0F70       nlm4svc_proc_unlock_msg
 0006:C00F0FB8       nlm4svc_proc_cancel_msg
 0006:C00F1000       nlm4svc_proc_lock_msg
 0006:C00F1048       nlm4svc_proc_test_msg
 0006:C00F1090       nlm4svc_proc_granted
 0006:C00F1128       nlm4svc_proc_lock
 0006:C00F1248       nlm4svc_proc_nm_lock
 0006:C00F1294       nlm4svc_proc_test
 0006:C00F13A8       nlm4svc_callback_exit
 0006:C00F13D8       nlm4svc_proc_unshare
 0006:C00F14E0       nlm4svc_proc_sm_notify
 0006:C00F1578       nlm4svc_proc_unlock
 0006:C00F1680       nlm4svc_proc_cancel
 0006:C00F1788       jffs2_compress
 0006:C00F18D8       jffs2_decompress
 0006:C00F19F8       jffs2_register_compressor
 0006:C00F1AA4       jffs2_unregister_compressor
 0006:C00F1AF0       jffs2_free_comprbuf
 0006:C00F1AFC       jffs2_compressors_exit
 0006:C00F1B10       jffs2_readdir
 0006:C00F1C88       jffs2_rmdir
 0006:C00F1D2C       jffs2_unlink
 0006:C00F1DA8       jffs2_rename
 0006:C00F2014       jffs2_link
 0006:C00F2114       jffs2_mknod
 0006:C00F25EC       jffs2_mkdir
 0006:C00F29E4       jffs2_symlink
 0006:C00F2EC0       jffs2_create
 0006:C00F2FF0       jffs2_lookup
 0006:C00F30F0       jffs2_fsync
 0006:C00F3110       jffs2_write_end
 0006:C00F33D4       jffs2_do_readpage_nolock
 0006:C00F34AC       jffs2_write_begin
 0006:C00F3718       jffs2_do_readpage_unlock
 0006:C00F3738       jffs2_readpage
 0006:C00F3778       jffs2_ioctl
 0006:C00F3780       jffs2_obsolete_node_frag
 0006:C00F37E0       jffs2_fragtree_insert
 0006:C00F3870       new_fragment.part.0
 0006:C00F3898       jffs2_add_fd_to_list
 0006:C00F3948       jffs2_set_inocache_state
 0006:C00F3960       jffs2_get_ino_cache
 0006:C00F398C       jffs2_add_ino_cache
 0006:C00F39DC       jffs2_del_ino_cache
 0006:C00F3A2C       jffs2_free_ino_caches
 0006:C00F3A70       jffs2_free_raw_node_refs
 0006:C00F3ADC       jffs2_lookup_node_frag
 0006:C00F3B38       jffs2_truncate_fragtree
 0006:C00F3C2C       jffs2_add_full_dnode_to_inode
 0006:C00F401C       jffs2_kill_fragtree
 0006:C00F40D0       __jffs2_ref_totlen
 0006:C00F4198       jffs2_link_node_ref
 0006:C00F434C       jffs2_scan_dirty_space
 0006:C00F4414       jffs2_destroy_slab_caches
 0006:C00F4494       jffs2_alloc_full_dirent
 0006:C00F44A0       jffs2_free_full_dirent
 0006:C00F44A4       jffs2_alloc_full_dnode
 0006:C00F44B8       jffs2_free_full_dnode
 0006:C00F44CC       jffs2_alloc_raw_dirent
 0006:C00F44E0       jffs2_free_raw_dirent
 0006:C00F44F4       jffs2_alloc_raw_inode
 0006:C00F4508       jffs2_free_raw_inode
 0006:C00F451C       jffs2_alloc_tmp_dnode_info
 0006:C00F4530       jffs2_free_tmp_dnode_info
 0006:C00F4544       jffs2_prealloc_raw_node_refs
 0006:C00F460C       jffs2_free_refblock
 0006:C00F4620       jffs2_alloc_node_frag
 0006:C00F4634       jffs2_free_node_frag
 0006:C00F4648       jffs2_alloc_inode_cache
 0006:C00F465C       jffs2_free_inode_cache
 0006:C00F4670       jffs2_read_dnode
 0006:C00F4A84       jffs2_read_inode_range
 0006:C00F4BD4       jffs2_add_physical_node_ref
 0006:C00F4D34       jffs2_complete_reservation
 0006:C00F4D4C       jffs2_mark_node_obsolete
 0006:C00F5234       jffs2_do_reserve_space.isra.0
 0006:C00F5564       jffs2_reserve_space
 0006:C00F56BC       jffs2_reserve_space_gc
 0006:C00F5704       jffs2_thread_should_wake
 0006:C00F579C       jffs2_kill_tn
 0006:C00F57C4       jffs2_free_tmp_dnode_info_list
 0006:C00F5854       eat_last
 0006:C00F58B4       check_tn_node
 0006:C00F5C24       jffs2_do_clear_inode
 0006:C00F5D24       jffs2_do_read_inode_internal
 0006:C00F7644       jffs2_do_read_inode
 0006:C00F7830       jffs2_do_crccheck_inode
 0006:C00F78C4       jffs2_do_new_inode
 0006:C00F79DC       jffs2_write_dnode
 0006:C00F7DC8       jffs2_write_dirent
 0006:C00F8214       jffs2_write_inode_range
 0006:C00F85E0       jffs2_do_create
 0006:C00F8894       jffs2_do_unlink
 0006:C00F8C18       jffs2_do_link
 0006:C00F8E44       count_list
 0006:C00F8E6C       rotate_list
 0006:C00F8EB0       jffs2_fill_scan_buf
 0006:C00F8EF4       file_dirty
 0006:C00F8F8C       jffs2_scan_classify_jeb
 0006:C00F905C       jffs2_scan_make_ino_cache
 0006:C00F90C8       jffs2_scan_medium
 0006:C00FA148       jffs2_rotate_lists
 0006:C00FA240       jffs2_garbage_collect_pristine
 0006:C00FA660       jffs2_garbage_collect_dirent.isra.5
 0006:C00FA7C0       jffs2_garbage_collect_pass
 0006:C00FBC04       jffs2_follow_link
 0006:C00FBC40       jffs2_build_remove_unlinked_inode
 0006:C00FBCF0       jffs2_do_mount_fs
 0006:C00FC24C       jffs2_erase_failed
 0006:C00FC350       jffs2_erase_callback
 0006:C00FC3E4       jffs2_free_jeb_node_refs
 0006:C00FC518       jffs2_erase_pending_blocks
 0006:C00FCBC0       jffs2_garbage_collect_thread
 0006:C00FCD14       jffs2_garbage_collect_trigger
 0006:C00FCD48       jffs2_start_garbage_collect_thread
 0006:C00FCDE4       jffs2_stop_garbage_collect_thread
 0006:C00FCE10       jffs2_do_setattr
 0006:C00FD4F0       jffs2_setattr
 0006:C00FD51C       jffs2_statfs
 0006:C00FD5AC       jffs2_clear_inode
 0006:C00FD5C0       jffs2_iget
 0006:C00FD8C8       jffs2_dirty_inode
 0006:C00FD944       jffs2_remount_fs
 0006:C00FD9C4       jffs2_new_inode
 0006:C00FDB90       jffs2_gc_release_inode
 0006:C00FDB98       jffs2_gc_fetch_inode
 0006:C00FDC94       jffs2_gc_fetch_page
 0006:C00FDCE4       jffs2_gc_release_page
 0006:C00FDCEC       jffs2_flash_cleanup
 0006:C00FDD60       jffs2_do_fill_super
 0006:C00FDF90       jffs2_flash_direct_writev
 0006:C00FE05C       jffs2_flash_direct_write
 0006:C00FE068       jffs2_kill_sb
 0006:C00FE09C       jffs2_get_sb
 0006:C00FE0C0       jffs2_nfs_get_inode
 0006:C00FE0C8       jffs2_fh_to_parent
 0006:C00FE0E4       jffs2_fh_to_dentry
 0006:C00FE100       jffs2_write_super
 0006:C00FE150       jffs2_sync_fs
 0006:C00FE180       jffs2_put_super
 0006:C00FE218       jffs2_destroy_inode
 0006:C00FE22C       jffs2_fill_super
 0006:C00FE2F8       jffs2_alloc_inode
 0006:C00FE31C       jffs2_i_init_once
 0006:C00FE344       jffs2_get_parent
 0006:C00FE3C4       __jffs2_dbg_acct_sanity_check_nolock
 0006:C00FE554       __jffs2_dbg_acct_sanity_check
 0006:C00FE558       jffs2_wbuf_pending_for_ino
 0006:C00FE5AC       jffs2_fill_wbuf
 0006:C00FE608       jffs2_block_refile
 0006:C00FE734       __jffs2_flush_wbuf
 0006:C00FF3C0       jffs2_flush_wbuf_gc
 0006:C00FF498       jffs2_flush_wbuf_pad
 0006:C00FF4EC       jffs2_flash_writev
 0006:C00FF8FC       jffs2_flash_write
 0006:C00FF960       jffs2_flash_read
 0006:C00FFB2C       jffs2_check_oob_empty
 0006:C00FFC24       jffs2_check_nand_cleanmarker
 0006:C00FFCF0       jffs2_write_nand_cleanmarker
 0006:C00FFDA0       jffs2_write_nand_badblock
 0006:C00FFE10       jffs2_nand_flash_setup
 0006:C00FFEDC       jffs2_nand_flash_cleanup
 0006:C00FFEF8       jffs2_dataflash_setup
 0006:C00FFFD4       jffs2_dataflash_cleanup
 0006:C00FFFDC       jffs2_nor_wbuf_flash_setup
 0006:C0100040       jffs2_nor_wbuf_flash_cleanup
 0006:C0100048       jffs2_ubivol_setup
 0006:C01000CC       jffs2_ubivol_cleanup
 0006:C01000D4       jffs2_rtime_compress
 0006:C01001A8       jffs2_rtime_decompress
 0006:C010025C       jffs2_rtime_init
 0006:C0100268       jffs2_rtime_exit
 0006:C0100274       jffs2_zlib_decompress
 0006:C010037C       free_workspaces
 0006:C010039C       jffs2_zlib_compress
 0006:C0100504       jffs2_zlib_exit
 0006:C010051C       romfs_dev_read
 0006:C01005CC       romfs_dev_strnlen
 0006:C0100680       romfs_dev_strcmp
 0006:C0100810       romfs_statfs
 0006:C0100890       romfs_remount
 0006:C01008A4       romfs_kill_sb
 0006:C01008B4       romfs_get_sb
 0006:C01008D8       romfs_destroy_inode
 0006:C01008EC       romfs_alloc_inode
 0006:C0100900       romfs_readdir
 0006:C0100A8C       romfs_iget
 0006:C0100C7C       romfs_fill_super
 0006:C0100E94       romfs_readpage
 0006:C0100FA8       romfs_lookup
 0006:C01010D4       romfs_i_init_once
 0006:C01010D8       ipc_immediate_free
 0006:C01010DC       sysvipc_proc_release
 0006:C01010E0       sysvipc_proc_show
 0006:C0101100       sysvipc_find_ipc
 0006:C01011AC       sysvipc_proc_next
 0006:C01011E0       sysvipc_proc_stop
 0006:C0101200       sysvipc_proc_start
 0006:C010126C       sysvipc_proc_open
 0006:C01012F4       ipc_do_vfree
 0006:C01012F8       ipc_schedule_free
 0006:C0101324       ipc_init_ids
 0006:C0101364       ipc_get_maxid
 0006:C01013DC       ipc_addid
 0006:C010148C       ipc_rmid
 0006:C01014DC       ipc_alloc
 0006:C01014F0       ipc_free
 0006:C0101500       ipc_rcu_alloc
 0006:C0101564       ipc_rcu_getref
 0006:C0101574       ipc_rcu_putref
 0006:C01015A8       ipcperms
 0006:C0101648       kernel_to_ipc64_perm
 0006:C0101684       ipc64_perm_to_ipc_perm
 0006:C0101728       ipc_lock
 0006:C0101778       ipc_lock_check
 0006:C01017A8       ipcget
 0006:C010196C       ipc_update_perm
 0006:C0101998       ipcctl_pre_down
 0006:C0101A1C       ipc_parse_version
 0006:C0101A38       store_msg
 0006:C0101B14       free_msg
 0006:C0101B40       load_msg
 0006:C0101C94       msg_security
 0006:C0101C9C       sysvipc_msg_proc_show
 0006:C0101D24       newque
 0006:C0101DDC       testmsg.isra.8
 0006:C0101E44       recompute_msgmni
 0006:C0101EBC       msg_init_ns
 0006:C0101F10       sys_msgget
 0006:C0101F70       sys_msgctl
 0006:C0102514       do_msgsnd
 0006:C01027E4       sys_msgsnd
 0006:C010282C       do_msgrcv
 0006:C0102B30       sys_msgrcv
 0006:C0102B80       sem_security
 0006:C0102B88       sem_more_checks
 0006:C0102BA0       lookup_undo
 0006:C0102BD8       sysvipc_sem_proc_show
 0006:C0102C40       newary
 0006:C0102D2C       free_un
 0006:C0102D34       try_atomic_semop.isra.9
 0006:C0102E78       update_queue
 0006:C0102F20       semctl_main.isra.10
 0006:C0103368       sem_init_ns
 0006:C0103398       sys_semget
 0006:C0103420       sys_semctl
 0006:C01038F8       sys_semtimedop
 0006:C0103E2C       sys_semop
 0006:C0103E34       copy_semundo
 0006:C0103EDC       exit_sem
 0006:C010404C       shm_fault
 0006:C0104060       shm_fsync
 0006:C0104088       shm_security
 0006:C0104090       shm_more_checks
 0006:C01040A8       sysvipc_shm_proc_show
 0006:C0104130       shm_get_unmapped_area
 0006:C010413C       shm_release
 0006:C0104158       shm_destroy
 0006:C01041A4       shm_close
 0006:C0104248       newseg
 0006:C01043D4       shm_open
 0006:C0104444       shm_mmap
 0006:C01044AC       shm_init_ns
 0006:C01044D4       is_file_shm_hugepages
 0006:C01044DC       sys_shmget
 0006:C0104544       sys_shmctl
 0006:C0104B70       do_shmat
 0006:C0104E78       sys_shmat
 0006:C0104E94       sys_shmdt
 0006:C0104FE8       ipcns_callback
 0006:C0105010       register_ipcns_notifier
 0006:C010505C       cond_register_ipcns_notifier
 0006:C01050A8       unregister_ipcns_notifier
 0006:C01050CC       ipcns_notify
 0006:C01050E0       get_ipc.isra.0
 0006:C010510C       sysctl_ipc_data
 0006:C0105254       proc_ipcauto_dointvec_minmax
 0006:C0105358       proc_ipc_dointvec
 0006:C01053DC       proc_ipc_doulongvec_minmax
 0006:C0105460       sysctl_ipc_registered_data
 0006:C01054C4       proc_ipc_callback_dointvec
 0006:C0105594       cap_netlink_recv
 0006:C01055B8       cap_netlink_send
 0006:C01055E4       cap_capable
 0006:C0105608       cap_settime
 0006:C0105624       cap_ptrace_may_access
 0006:C010569C       cap_ptrace_traceme
 0006:C0105724       cap_capget
 0006:C010575C       cap_capset
 0006:C010588C       cap_inode_need_killpriv
 0006:C0105894       cap_inode_killpriv
 0006:C010589C       get_vfs_caps_from_disk
 0006:C01058B4       cap_bprm_set_creds
 0006:C0105A74       cap_bprm_secureexec
 0006:C0105AE0       cap_inode_setxattr
 0006:C0105B40       cap_inode_removexattr
 0006:C0105BA0       cap_task_fix_setuid
 0006:C0105D98       cap_task_setscheduler
 0006:C0105DA0       cap_task_setioprio
 0006:C0105DA8       cap_task_setnice
 0006:C0105DB0       cap_task_prctl
 0006:C0105E98       cap_syslog
 0006:C0105EC8       cap_vm_enough_memory
 0006:C0105EEC       cap_file_mmap
 0006:C0105F40       mmap_min_addr_handler
 0006:C0105F78       crypto_mod_get
 0006:C0105FD0       crypto_mod_put
 0006:C0106014       crypto_larval_alloc
 0006:C010609C       crypto_shoot_alg
 0006:C01060CC       __crypto_alg_lookup
 0006:C01061B8       crypto_alg_lookup
 0006:C01061FC       crypto_larval_wait
 0006:C0106274       crypto_larval_lookup
 0006:C01063A0       crypto_larval_destroy
 0006:C01063E0       crypto_larval_kill
 0006:C010645C       crypto_probing_notify
 0006:C01064A8       crypto_alg_mod_lookup
 0006:C0106524       crypto_has_alg
 0006:C0106548       crypto_exit_ops
 0006:C01065AC       __crypto_alloc_tfm
 0006:C0106734       crypto_alloc_base
 0006:C01067C0       crypto_create_tfm
 0006:C0106870       crypto_alloc_tfm
 0006:C0106924       crypto_destroy_tfm
 0006:C0106978       cipher_crypt_unaligned
 0006:C01069E8       cipher_decrypt_unaligned
 0006:C0106A2C       cipher_encrypt_unaligned
 0006:C0106A70       setkey
 0006:C0106B4C       crypto_init_cipher_ops
 0006:C0106B94       crypto_exit_cipher_ops
 0006:C0106B98       init
 0006:C0106BB4       nosetkey
 0006:C0106BCC       setkey_0
 0006:C0106BE8       digest_async_nosetkey
 0006:C0106C00       digest_async_setkey
 0006:C0106C24       digest_async_init
 0006:C0106C40       update2
 0006:C0106DAC       update_0
 0006:C0106E08       digest_async_update
 0006:C0106E3C       final
 0006:C0106EAC       digest
 0006:C0106F34       digest_async_digest
 0006:C0106F68       digest_async_final
 0006:C0106F98       crypto_init_digest_ops
 0006:C0107010       crypto_exit_digest_ops
 0006:C0107014       crypto_init_digest_ops_async
 0006:C010708C       crypto_compress
 0006:C0107098       crypto_decompress
 0006:C01070A4       crypto_init_compress_ops
 0006:C01070C4       crypto_exit_compress_ops
 0006:C01070C8       elv_rq_merge_ok
 0006:C01071DC       elv_rb_find
 0006:C0107214       elv_queue_empty
 0006:C0107248       elv_unregister
 0006:C01072BC       elevator_find
 0006:C0107310       elevator_get
 0006:C01073D8       elv_attr_store
 0006:C0107448       elv_attr_show
 0006:C01074B0       elevator_exit
 0006:C01074F8       elevator_release
 0006:C0107520       elv_rb_add
 0006:C0107590       elv_abort_queue
 0006:C01075CC       elv_rb_former_request
 0006:C01075E4       elv_rb_latter_request
 0006:C01075FC       elv_rqhash_del.isra.13
 0006:C0107628       elv_dispatch_sort
 0006:C01076E4       elv_dispatch_add_tail
 0006:C0107748       elevator_alloc.isra.16
 0006:C01077F8       elv_rqhash_add
 0006:C0107870       elv_register
 0006:C0107928       elv_rb_del
 0006:C010797C       elevator_init
 0006:C0107A6C       elv_merge
 0006:C0107C14       elv_merged_request
 0006:C0107C80       elv_merge_requests
 0006:C0107CF8       elv_drain_elevator
 0006:C0107D64       elv_quiesce_start
 0006:C0107DB8       elv_quiesce_end
 0006:C0107DC8       elv_insert
 0006:C0107FBC       elv_requeue_request
 0006:C0108058       __elv_add_request
 0006:C010811C       elv_add_request
 0006:C0108134       elv_latter_request
 0006:C0108154       elv_former_request
 0006:C0108174       elv_set_request
 0006:C0108198       elv_put_request
 0006:C01081B4       elv_may_queue
 0006:C01081D4       elv_completed_request
 0006:C01082B8       elv_register_queue
 0006:C010833C       elv_unregister_queue
 0006:C0108368       elv_iosched_store
 0006:C01084C4       elv_iosched_show
 0006:C0108578       blk_get_backing_dev_info
 0006:C010858C       blk_unplug_work
 0006:C0108598       blk_unplug
 0006:C01085A8       blk_backing_dev_unplug
 0006:C01085B0       ioc_set_batching
 0006:C01085FC       blk_lld_busy
 0006:C0108614       blk_rq_init
 0006:C01086A8       blk_dump_rq_flags
 0006:C01087AC       blk_remove_plug
 0006:C01087FC       blk_stop_queue
 0006:C0108818       blk_sync_queue
 0006:C010883C       blk_cleanup_queue
 0006:C0108888       blk_alloc_queue_node
 0006:C010897C       blk_alloc_queue
 0006:C0108984       req_bio_endio
 0006:C0108A70       handle_bad_sector
 0006:C0108B04       blk_rq_unprep_clone
 0006:C0108B2C       blk_rq_prep_clone
 0006:C0108C40       kblockd_schedule_work
 0006:C0108C50       blk_plug_device
 0006:C0108CB8       blk_plug_device_unlocked
 0006:C0108CD0       generic_make_request
 0006:C0108F58       submit_bio
 0006:C0109034       __freed_request
 0006:C01090B0       freed_request
 0006:C0109104       __blk_put_request
 0006:C01091D4       blk_put_request
 0006:C01091F4       get_request.isra.26
 0006:C0109448       blk_requeue_request
 0006:C01094BC       blk_rq_check_limits
 0006:C0109540       blk_update_request
 0006:C01098AC       blk_update_bidi_request
 0006:C0109908       __blk_run_queue
 0006:C010997C       blk_start_queue
 0006:C01099B8       blk_run_queue
 0006:C01099D0       part_round_stats
 0006:C0109A70       drive_stat_acct
 0006:C0109B48       blk_insert_cloned_request
 0006:C0109BCC       blk_insert_request
 0006:C0109C38       blk_finish_request
 0006:C0109DFC       blk_end_bidi_request.part.32
 0006:C0109E18       blk_end_request_all
 0006:C0109E6C       blk_end_request
 0006:C0109E98       blk_end_request_cur
 0006:C0109EC8       __blk_end_request_all
 0006:C0109F14       __blk_end_request
 0006:C0109F44       __blk_end_request_cur
 0006:C0109F74       blk_queue_congestion_threshold
 0006:C0109FA4       blk_init_queue_node
 0006:C010A0C0       blk_init_queue
 0006:C010A0C8       __generic_unplug_device
 0006:C010A104       generic_unplug_device
 0006:C010A124       get_request_wait.isra.38
 0006:C010A20C       blk_get_request
 0006:C010A250       blk_make_request
 0006:C010A2B8       blk_unplug_timeout
 0006:C010A2C0       blk_put_queue
 0006:C010A2C8       blk_get_queue
 0006:C010A2F0       blk_dequeue_request
 0006:C010A38C       blk_start_request
 0006:C010A3BC       blk_peek_request
 0006:C010A564       blk_fetch_request
 0006:C010A580       blk_rq_bio_prep
 0006:C010A630       init_request_from_bio
 0006:C010A750       __make_request
 0006:C010AA90       blk_queue_free_tags
 0006:C010AAA0       blk_queue_find_tag
 0006:C010AAC4       init_tag_map
 0006:C010AB60       __blk_queue_init_tags
 0006:C010ABD0       blk_init_tags
 0006:C010ABDC       blk_queue_resize_tags
 0006:C010AC74       blk_queue_init_tags
 0006:C010AD38       blk_queue_end_tag
 0006:C010AE18       blk_queue_start_tag
 0006:C010AF30       blk_queue_invalidate_tags
 0006:C010AF64       __blk_free_tags
 0006:C010AFE8       blk_free_tags
 0006:C010B008       __blk_queue_free_tags
 0006:C010B038       queue_rq_affinity_store
 0006:C010B040       queue_var_store
 0006:C010B074       queue_iostats_store
 0006:C010B0AC       queue_nomerges_store
 0006:C010B0E4       queue_nonrot_store
 0006:C010B11C       queue_max_sectors_store
 0006:C010B178       queue_ra_store
 0006:C010B19C       queue_var_show
 0006:C010B1B0       queue_iostats_show
 0006:C010B1C0       queue_rq_affinity_show
 0006:C010B1D0       queue_nomerges_show
 0006:C010B1E0       queue_nonrot_show
 0006:C010B1F4       queue_io_opt_show
 0006:C010B1FC       queue_io_min_show
 0006:C010B204       queue_physical_block_size_show
 0006:C010B20C       queue_logical_block_size_show
 0006:C010B22C       queue_max_sectors_show
 0006:C010B238       queue_max_hw_sectors_show
 0006:C010B244       queue_ra_show
 0006:C010B250       queue_requests_show
 0006:C010B258       queue_requests_store
 0006:C010B3B0       queue_attr_store
 0006:C010B42C       queue_attr_show
 0006:C010B4A0       blk_release_queue
 0006:C010B4F8       blk_register_queue
 0006:C010B5A8       blk_unregister_queue
 0006:C010B610       queue_flush
 0006:C010B674       blkdev_issue_flush
 0006:C010B738       blkdev_issue_discard
 0006:C010B870       blkdev_discard_end_io
 0006:C010B8B4       bio_end_empty_barrier
 0006:C010B8FC       blk_queue_ordered
 0006:C010B968       blk_ordered_cur_seq
 0006:C010B990       blk_ordered_req_seq
 0006:C010BA24       blk_ordered_complete_seq
 0006:C010BA94       bar_end_io
 0006:C010BAC0       post_flush_end_io
 0006:C010BAEC       pre_flush_end_io
 0006:C010BB18       blk_do_ordered
 0006:C010BD64       blk_queue_prep_rq
 0006:C010BD6C       blk_queue_set_discard
 0006:C010BD74       blk_queue_merge_bvec
 0006:C010BD7C       blk_queue_softirq_done
 0006:C010BD84       blk_queue_rq_timeout
 0006:C010BD8C       blk_queue_rq_timed_out
 0006:C010BD94       blk_queue_lld_busy
 0006:C010BD9C       blk_set_default_limits
 0006:C010BDF0       blk_queue_bounce_limit
 0006:C010BE20       blk_queue_max_hw_sectors
 0006:C010BE34       blk_queue_logical_block_size
 0006:C010BE5C       blk_queue_physical_block_size
 0006:C010BE84       blk_queue_alignment_offset
 0006:C010BEA0       blk_limits_io_min
 0006:C010BEC4       blk_queue_io_min
 0006:C010BECC       blk_queue_io_opt
 0006:C010BED4       blk_queue_dma_pad
 0006:C010BEDC       blk_queue_update_dma_pad
 0006:C010BEEC       blk_queue_dma_alignment
 0006:C010BEF4       blk_queue_make_request
 0006:C010BF78       blk_queue_max_sectors
 0006:C010BFCC       blk_queue_max_phys_segments
 0006:C010C004       blk_queue_max_hw_segments
 0006:C010C03C       blk_queue_dma_drain
 0006:C010C0AC       blk_queue_max_segment_size
 0006:C010C0E0       blk_queue_segment_boundary
 0006:C010C120       blk_stack_limits
 0006:C010C364       disk_stack_limits
 0006:C010C458       blk_queue_stack_limits
 0006:C010C4DC       blk_queue_update_dma_alignment
 0006:C010C50C       put_io_context
 0006:C010C5B4       copy_io_context
 0006:C010C60C       exit_io_context
 0006:C010C68C       alloc_io_context
 0006:C010C714       current_io_context
 0006:C010C750       get_io_context
 0006:C010C7A8       __blk_rq_unmap_user
 0006:C010C7D8       blk_rq_unmap_user
 0006:C010C834       blk_rq_map_user_iov
 0006:C010C988       blk_rq_append_bio
 0006:C010C9E0       blk_rq_map_user
 0006:C010CBD8       blk_rq_map_kern
 0006:C010CCFC       blk_execute_rq_nowait
 0006:C010CD7C       blk_execute_rq
 0006:C010CE28       blk_end_sync_rq
 0006:C010CE50       __blk_recalc_rq_segments
 0006:C010CFCC       blk_recount_segments
 0006:C010CFFC       blk_rq_map_sg
 0006:C010D2A4       attempt_merge
 0006:C010D58C       blk_recalc_rq_segments
 0006:C010D5A8       ll_back_merge_fn
 0006:C010D674       ll_front_merge_fn
 0006:C010D740       attempt_back_merge
 0006:C010D768       attempt_front_merge
 0006:C010D790       blk_done_softirq
 0006:C010D804       __blk_complete_request
 0006:C010D870       blk_complete_request
 0006:C010D894       blk_delete_timer
 0006:C010D8B4       blk_add_timer
 0006:C010D970       blk_rq_timed_out
 0006:C010D9DC       blk_rq_timed_out_timer
 0006:C010DABC       blk_abort_request
 0006:C010DAF4       blk_abort_queue
 0006:C010DBAC       put_int
 0006:C010DBBC       __blkdev_driver_ioctl
 0006:C010DBF4       blk_ioc_discard_endio
 0006:C010DC3C       blkdev_ioctl
 0006:C010E4E4       disk_part_iter_init
 0006:C010E518       disk_map_sector_rcu
 0006:C010E5CC       exact_match_0
 0006:C010E5D4       block_nodename
 0006:C010E5F4       set_device_ro
 0006:C010E600       bdev_read_only
 0006:C010E610       disk_get_part
 0006:C010E658       disk_part_iter_exit
 0006:C010E680       disk_part_iter_next
 0006:C010E754       set_disk_ro
 0006:C010E794       disk_free_ptbl_rcu_cb
 0006:C010E798       register_blkdev
 0006:C010E8A4       unregister_blkdev
 0006:C010E93C       blk_register_region
 0006:C010E984       blk_unregister_region
 0006:C010E9A0       bdget_disk
 0006:C010E9D0       disk_seqf_next
 0006:C010E9F8       disk_seqf_start
 0006:C010EA74       disk_seqf_stop
 0006:C010EA98       blk_lookup_devt
 0006:C010EB40       disk_capability_show
 0006:C010EB58       disk_alignment_offset_show
 0006:C010EB88       disk_ro_show
 0006:C010EBA4       disk_removable_show
 0006:C010EBBC       disk_ext_range_show
 0006:C010EBE0       disk_range_show
 0006:C010EBF8       base_probe_0
 0006:C010EC44       partitions_open
 0006:C010EC54       diskstats_open
 0006:C010EC64       show_partition_start
 0006:C010ECC0       diskstats_show
 0006:C010EE0C       media_change_notify_thread
 0006:C010EE90       get_disk
 0006:C010EEFC       exact_lock_0
 0006:C010EF18       put_disk
 0006:C010EF28       invalidate_partition
 0006:C010EF5C       show_partition
 0006:C010F024       disk_release
 0006:C010F068       blkdev_show
 0006:C010F0C8       blk_alloc_devt
 0006:C010F18C       add_disk
 0006:C010F2C0       blk_free_devt
 0006:C010F30C       unlink_gendisk
 0006:C010F348       get_gendisk
 0006:C010F408       disk_expand_part_tbl
 0006:C010F4DC       alloc_disk_node
 0006:C010F584       alloc_disk
 0006:C010F58C       blk_verify_command
 0006:C010F5F8       sg_scsi_ioctl
 0006:C010F964       sg_io
 0006:C010FD4C       __blk_send_generic.constprop.6
 0006:C010FDC4       scsi_cmd_ioctl
 0006:C01101D0       bsg_poll
 0006:C0110258       bsg_unregister_queue
 0006:C01102C8       bsg_kref_release_function
 0006:C01102F0       bsg_register_queue
 0006:C0110454       bsg_get_done_cmd
 0006:C011057C       blk_complete_sgv4_hdr_rq
 0006:C01106CC       bsg_free_command
 0006:C0110718       bsg_release
 0006:C0110904       bsg_open
 0006:C0110B50       bsg_rq_end_io
 0006:C0110BCC       bsg_nodename
 0006:C0110BE4       bsg_map_hdr
 0006:C0110EAC       bsg_ioctl
 0006:C01110BC       bsg_write
 0006:C011132C       bsg_read
 0006:C011148C       noop_merged_requests
 0006:C01114A4       noop_add_request
 0006:C01114C4       noop_queue_empty
 0006:C01114E0       noop_former_request
 0006:C01114FC       noop_latter_request
 0006:C0111518       noop_init_queue
 0006:C0111540       noop_dispatch
 0006:C0111580       noop_exit_queue
 0006:C01115AC       as_queue_empty
 0006:C01115DC       as_read_batch_expire_store
 0006:C0111628       as_read_batch_expire_show
 0006:C0111654       est_time_show
 0006:C01116D8       as_put_io_context
 0006:C0111740       as_work_handler
 0006:C0111748       as_antic_timeout
 0006:C01117CC       as_update_iohist
 0006:C0111A38       as_can_break_anticipation
 0006:C0111C88       as_init_queue
 0006:C0111D5C       as_get_io_context
 0006:C0111E38       as_may_queue
 0006:C0111E7C       exit_as_io_context
 0006:C0111EBC       as_deactivate_request
 0006:C0111F20       as_activate_request
 0006:C0111F80       as_merge
 0006:C0111FF0       free_as_io_context
 0006:C011203C       as_trim
 0006:C0112068       as_fifo_expired
 0006:C01120D0       as_choose_req.part.7
 0006:C0112260       as_exit_queue
 0006:C01122C8       as_antic_stop
 0006:C0112308       as_antic_waitnext
 0006:C011234C       as_completed_request
 0006:C0112550       as_find_next_rq
 0006:C011261C       as_remove_queued_request
 0006:C0112718       as_merged_requests
 0006:C011278C       as_move_to_dispatch
 0006:C01128E8       as_add_rq_rb
 0006:C011293C       as_merged_request
 0006:C0112988       as_dispatch_request
 0006:C0112D1C       as_write_batch_expire_show
 0006:C0112D48       as_read_expire_show
 0006:C0112D74       as_write_expire_show
 0006:C0112DA0       as_antic_expire_show
 0006:C0112DCC       as_write_batch_expire_store
 0006:C0112E18       as_add_request
 0006:C0112F5C       as_read_expire_store
 0006:C0112FA8       as_write_expire_store
 0006:C0112FF4       as_antic_expire_store
 0006:C0113040       deadline_queue_empty
 0006:C0113070       deadline_front_merges_store
 0006:C01130A8       deadline_write_expire_show
 0006:C01130D4       deadline_init_queue
 0006:C0113148       deadline_remove_request
 0006:C01131BC       deadline_merged_requests
 0006:C0113224       j_deadline_remove_request
 0006:C0113228       deadline_move_request
 0006:C011329C       deadline_dispatch_requests
 0006:C01133C8       deadline_add_rq_rb
 0006:C0113404       deadline_add_request
 0006:C0113468       deadline_merged_request
 0006:C01134A0       deadline_exit_queue
 0006:C01134F0       deadline_merge
 0006:C0113590       deadline_fifo_batch_show
 0006:C01135A8       deadline_writes_starved_show
 0006:C01135C0       deadline_front_merges_show
 0006:C01135D8       deadline_read_expire_show
 0006:C0113604       deadline_fifo_batch_store
 0006:C011363C       deadline_read_expire_store
 0006:C0113678       deadline_write_expire_store
 0006:C01136B4       deadline_writes_starved_store
 0006:C01136E8       cfq_queue_empty
 0006:C0113700       cfq_activate_request
 0006:C0113730       __call_for_each_cic
 0006:C0113764       cfq_free_io_context
 0006:C0113770       cfq_exit_io_context
 0006:C011377C       cfq_var_store
 0006:C01137B0       cfq_slice_idle_store
 0006:C01137DC       cfq_slice_async_rq_store
 0006:C011380C       cfq_slice_async_store
 0006:C0113848       cfq_slice_sync_store
 0006:C0113884       cfq_back_seek_penalty_store
 0006:C01138B4       cfq_back_seek_max_store
 0006:C01138D4       cfq_fifo_expire_async_store
 0006:C0113910       cfq_fifo_expire_sync_store
 0006:C011394C       cfq_quantum_store
 0006:C011397C       cfq_var_show
 0006:C0113990       cfq_slice_idle_show
 0006:C01139B0       cfq_slice_async_rq_show
 0006:C01139BC       cfq_slice_async_show
 0006:C01139DC       cfq_slice_sync_show
 0006:C01139FC       cfq_back_seek_penalty_show
 0006:C0113A08       cfq_back_seek_max_show
 0006:C0113A14       cfq_fifo_expire_async_show
 0006:C0113A34       cfq_fifo_expire_sync_show
 0006:C0113A54       cfq_quantum_show
 0006:C0113A60       cfq_deactivate_request
 0006:C0113A9C       cfq_service_tree_add
 0006:C0113C88       cfq_kick_queue
 0006:C0113CA0       cfq_init_prio_data
 0006:C0113D8C       cfq_choose_req
 0006:C0113F7C       cfq_prio_tree_add
 0006:C0114044       cfq_cic_free_rcu
 0006:C0114098       cic_free_func
 0006:C0114108       cfq_cic_lookup
 0006:C011420C       cfq_allow_merge
 0006:C01142A0       cfq_may_queue
 0006:C011437C       cfq_get_queue
 0006:C01145CC       cfq_set_request
 0006:C0114834       cfq_merge
 0006:C01148D8       __cfq_slice_expired
 0006:C0114980       cfq_idle_slice_timer
 0006:C0114A10       cfq_put_queue
 0006:C0114AF0       cfq_put_request
 0006:C0114B5C       changed_ioprio
 0006:C0114BC4       cfq_exit_cfqq
 0006:C0114C08       __cfq_exit_single_io_context
 0006:C0114C8C       cfq_exit_single_io_context
 0006:C0114CBC       cfq_remove_request
 0006:C0114EAC       cfq_dispatch_insert
 0006:C0114EFC       cfq_add_rq_rb
 0006:C0114FFC       cfq_insert_request
 0006:C011540C       cfq_merged_request
 0006:C011545C       cfq_merged_requests
 0006:C01154B0       cfq_exit_queue
 0006:C011556C       cfqq_close
 0006:C01156A8       cfq_completed_request
 0006:C01159C8       cfq_init_queue
 0006:C0115B34       cfq_dispatch_requests
 0006:C0115F3C       __ashldi3
 0006:C0115F58       __ashrdi3
 0006:C0115F74       __backtrace
 0006:C0115F7C       c_backtrace
 0006:C0115F80       _change_bit_be
 0006:C0115F84       _change_bit_le
 0006:C0115FAC       __clear_user_std
 0006:C0116010       _clear_bit_be
 0006:C0116014       _clear_bit_le
 0006:C011603C       __copy_from_user
 0006:C01163E0       copy_page
 0006:C0116430       __copy_to_user_std
 0006:C01167D8       __csum_ipv6_magic
 0006:C01168A0       csum_partial
 0006:C01169D0       csum_partial_copy_nocheck
 0006:C0116DE8       csum_partial_copy_from_user
 0006:C011718C       __udelay
 0006:C0117194       __const_udelay
 0006:C01171B0       __delay
 0006:C01171BC       __do_div64
 0006:C01172BC       _find_first_zero_bit_le
 0006:C01172E8       _find_next_zero_bit_le
 0006:C0117314       _find_first_bit_le
 0006:C0117340       _find_next_bit_le
 0006:C0117380       __get_user_1
 0006:C011738C       __get_user_2
 0006:C01173A0       __get_user_4
 0006:C01173AC       __get_user_bad
 0006:C01173E8       __raw_readsb
 0006:C0117538       __raw_readsl
 0006:C0117638       __raw_readsw
 0006:C0117768       __raw_writesb
 0006:C011789C       __raw_writesl
 0006:C0117970       __raw_writesw
 0006:C0117A54       __udivsi3
 0006:C0117AF0       __umodsi3
 0006:C0117B90       __divsi3
 0006:C0117C5C       __modsi3
 0006:C0117D14       __aeabi_uidivmod
 0006:C0117D2C       __aeabi_idivmod
 0006:C0117D44       Ldiv0
 0006:C0117D54       __lshrdi3
 0006:C0117D80       memchr
 0006:C0117DA0       memcpy
 0006:C01180D0       memmove
 0006:C0118440       memset
 0006:C0118500       __memzero
 0006:C011857C       __muldi3
 0006:C01185B8       __put_user_1
 0006:C01185C4       __put_user_2
 0006:C01185D8       __put_user_4
 0006:C01185E4       __put_user_8
 0006:C01185F4       __put_user_bad
 0006:C01185FC       _set_bit_be
 0006:C0118600       _set_bit_le
 0006:C0118628       sha_transform
 0006:C0118990       sha_init
 0006:C01189C0       strchr
 0006:C0118A00       __strncpy_from_user
 0006:C0118A40       __strnlen_user
 0006:C0118A80       strrchr
 0006:C0118AA0       _test_and_change_bit_be
 0006:C0118AA4       _test_and_change_bit_le
 0006:C0118AD4       _test_and_clear_bit_be
 0006:C0118AD8       _test_and_clear_bit_le
 0006:C0118B08       _test_and_set_bit_be
 0006:C0118B0C       _test_and_set_bit_le
 0006:C0118B3C       __ucmpdi2
 0006:C0118B54       __aeabi_ulcmp
 0006:C0118B6C       argv_free
 0006:C0118B98       argv_split
 0006:C0118CD4       get_option
 0006:C0118D4C       get_options
 0006:C0118DF0       memparse
 0006:C0118E90       _atomic_dec_and_lock
 0006:C0118EEC       decompress_method
 0006:C0118F48       cmp_ex
 0006:C0118F6C       sort_extable
 0006:C0118F98       trim_init_extable
 0006:C0119024       search_extable
 0006:C0119064       get_from_free_list
 0006:C01190A0       idr_mark_full
 0006:C01190E4       idr_replace
 0006:C0119174       idr_get_empty_slot
 0006:C01193C4       idr_get_new_above_int
 0006:C0119418       idr_get_new_above
 0006:C0119448       idr_get_new
 0006:C011947C       idr_layer_rcu_free
 0006:C0119490       idr_destroy
 0006:C01194C8       idr_remove
 0006:C011967C       idr_remove_all
 0006:C0119720       idr_for_each
 0006:C01197D0       idr_init
 0006:C01197D8       ida_init
 0006:C01197F4       ida_destroy
 0006:C011980C       ida_get_new_above
 0006:C01199B4       ida_get_new
 0006:C01199C0       idr_find
 0006:C0119A54       free_bitmap.isra.3
 0006:C0119A84       ida_remove
 0006:C0119B90       idr_pre_get
 0006:C0119BF4       ida_pre_get
 0006:C0119C4C       idr_get_next
 0006:C0119CE8       int_sqrt
 0006:C0119D28       kobj_attr_show
 0006:C0119D40       kobj_attr_store
 0006:C0119D58       kobject_get_path
 0006:C0119DFC       dynamic_kobj_release
 0006:C0119E00       kset_release
 0006:C0119E08       kobject_init
 0006:C0119E98       kobject_get
 0006:C0119EB4       kobject_put
 0006:C0119F14       kobject_add_internal
 0006:C011A0CC       kobject_rename
 0006:C011A1BC       kset_unregister
 0006:C011A1CC       kobject_del
 0006:C011A22C       kobject_release
 0006:C011A2A0       kobject_set_name_vargs
 0006:C011A30C       kobject_set_name
 0006:C011A334       kobject_init_and_add
 0006:C011A394       kobject_add
 0006:C011A420       kobject_move
 0006:C011A514       kobject_create
 0006:C011A54C       kobject_create_and_add
 0006:C011A5AC       kset_init
 0006:C011A5EC       kset_register
 0006:C011A630       kset_create_and_add
 0006:C011A6C4       kset_find_obj
 0006:C011A724       add_uevent_var
 0006:C011A7D8       kobject_uevent_env
 0006:C011AB68       kobject_uevent
 0006:C011AB70       kobject_action_type
 0006:C011ABF8       kref_set
 0006:C011AC0C       kref_init
 0006:C011AC14       kref_get
 0006:C011AC50       kref_put
 0006:C011ACC0       plist_add
 0006:C011AD5C       plist_del
 0006:C011ADD0       get_index.isra.1
 0006:C011AE08       prio_tree_left
 0006:C011AEE4       prio_tree_right
 0006:C011AFF0       prio_tree_parent
 0006:C011B054       prio_tree_replace
 0006:C011B0D8       prio_tree_remove
 0006:C011B1C8       prio_tree_insert
 0006:C011B3FC       prio_tree_next
 0006:C011B550       prop_norm_percpu
 0006:C011B5F0       prop_norm_single
 0006:C011B674       prop_descriptor_init
 0006:C011B6C0       prop_change_shift
 0006:C011B74C       prop_local_init_percpu
 0006:C011B770       prop_local_destroy_percpu
 0006:C011B774       __prop_inc_percpu
 0006:C011B7BC       __prop_inc_percpu_max
 0006:C011B848       prop_fraction_percpu
 0006:C011B8A8       prop_local_init_single
 0006:C011B8C0       prop_local_destroy_single
 0006:C011B8C4       __prop_inc_single
 0006:C011B908       prop_fraction_single
 0006:C011B968       radix_tree_lookup_element
 0006:C011BA18       radix_tree_lookup_slot
 0006:C011BA20       radix_tree_lookup
 0006:C011BA28       radix_tree_tag_clear
 0006:C011BB64       radix_tree_next_hole
 0006:C011BBA0       radix_tree_prev_hole
 0006:C011BBE0       __lookup
 0006:C011BCCC       radix_tree_gang_lookup
 0006:C011BDA0       radix_tree_gang_lookup_slot
 0006:C011BE40       __lookup_tag
 0006:C011BF50       radix_tree_tagged
 0006:C011BF64       radix_tree_preload
 0006:C011BFD4       radix_tree_node_rcu_free
 0006:C011C010       radix_tree_tag_set
 0006:C011C0E0       radix_tree_delete
 0006:C011C2E8       radix_tree_node_ctor
 0006:C011C2F0       radix_tree_gang_lookup_tag
 0006:C011C3E4       radix_tree_gang_lookup_tag_slot
 0006:C011C49C       radix_tree_node_alloc
 0006:C011C510       radix_tree_insert
 0006:C011C71C       __ratelimit
 0006:C011C7F0       __rb_rotate_left
 0006:C011C860       __rb_rotate_right
 0006:C011C8D4       rb_insert_color
 0006:C011CA10       rb_erase
 0006:C011CD64       rb_first
 0006:C011CD88       rb_last
 0006:C011CDAC       rb_replace_node
 0006:C011CE0C       rb_next
 0006:C011CE6C       rb_prev
 0006:C011CECC       reciprocal_value
 0006:C011CEF0       __init_rwsem
 0006:C011CF08       __down_read_trylock
 0006:C011CF44       __down_write_trylock
 0006:C011CF80       __up_read
 0006:C011D018       __up_write
 0006:C011D148       __downgrade_write
 0006:C011D21C       strnicmp
 0006:C011D2B8       strcasecmp
 0006:C011D314       strncasecmp
 0006:C011D380       strcpy
 0006:C011D398       strncpy
 0006:C011D3C0       strcat
 0006:C011D3F0       strcmp
 0006:C011D418       strncmp
 0006:C011D454       strnchr
 0006:C011D494       strlen
 0006:C011D4B4       strnlen
 0006:C011D4E0       strspn
 0006:C011D51C       strcspn
 0006:C011D554       strpbrk
 0006:C011D590       strsep
 0006:C011D5C8       sysfs_streq
 0006:C011D644       memcmp
 0006:C011D674       memscan
 0006:C011D6A0       strstr
 0006:C011D70C       strlcpy
 0006:C011D75C       strncat
 0006:C011D7B0       strstrip
 0006:C011D830       strlcat
 0006:C011D8A0       skip_atoi
 0006:C011D8E8       put_dec_trunc
 0006:C011D9D4       put_dec
 0006:C011DB24       simple_guess_base
 0006:C011DB70       simple_strtoul
 0006:C011DC04       strict_strtoul
 0006:C011DC7C       simple_strtoull
 0006:C011DD20       strict_strtoull
 0006:C011DD9C       simple_strtol
 0006:C011DDC4       strict_strtol
 0006:C011DDFC       strict_strtoll
 0006:C011DE38       string.isra.4
 0006:C011DEF8       number.isra.9
 0006:C011E154       vsnprintf
 0006:C011EBEC       vscnprintf
 0006:C011EC04       vsprintf
 0006:C011EC18       snprintf
 0006:C011EC40       scnprintf
 0006:C011EC74       sprintf
 0006:C011ECA0       simple_strtoll
 0006:C011ECCC       vsscanf
 0006:C011F1EC       sscanf
 0006:C011F214       bcd2bin
 0006:C011F228       bin2bcd
 0006:C011F254       __div64_32
 0006:C011F31C       iter_div_u64_rem
 0006:C011F35C       div_s64_rem
 0006:C011F3C8       div64_u64
 0006:C011F428       u32_swap
 0006:C011F43C       generic_swap
 0006:C011F468       sort
 0006:C011F5E8       match_token
 0006:C011F7CC       match_strlcpy
 0006:C011F804       match_strdup
 0006:C011F840       match_number
 0006:C011F8C4       match_int
 0006:C011F8CC       match_octal
 0006:C011F8D4       match_hex
 0006:C011F8DC       half_md4_transform
 0006:C011FC00       debug_locks_off
 0006:C011FC6C       srandom32
 0006:C011FC8C       __random32.constprop.0
 0006:C011FCE8       random32
 0006:C011FCEC       bust_spinlocks
 0006:C011FD30       hex_dump_to_buffer
 0006:C011FFD0       print_hex_dump
 0006:C01200D0       print_hex_dump_bytes
 0006:C0120108       kvasprintf
 0006:C0120164       kasprintf
 0006:C012018C       __bitmap_empty
 0006:C0120208       __bitmap_full
 0006:C0120280       __bitmap_equal
 0006:C0120304       __bitmap_complement
 0006:C012036C       __bitmap_and
 0006:C01203B0       __bitmap_or
 0006:C01203E4       __bitmap_xor
 0006:C0120418       __bitmap_andnot
 0006:C012045C       __bitmap_intersects
 0006:C01204E0       __bitmap_subset
 0006:C0120568       __reg_op
 0006:C0120644       bitmap_find_free_region
 0006:C01206B4       bitmap_release_region
 0006:C01206BC       bitmap_allocate_region
 0006:C0120700       bitmap_copy_le
 0006:C012072C       __bitmap_shift_right
 0006:C0120854       __bitmap_shift_left
 0006:C0120938       __bitmap_weight
 0006:C01209B4       bitmap_scnprintf
 0006:C0120A68       __bitmap_parse
 0006:C0120C20       bitmap_parse_user
 0006:C0120C68       bitmap_parselist
 0006:C0120D6C       bitmap_onto
 0006:C0120E08       bitmap_fold
 0006:C0120E80       bitmap_scnlistprintf
 0006:C0120F6C       bitmap_ord_to_pos.part.1
 0006:C0120FDC       bitmap_pos_to_ord
 0006:C0121074       bitmap_remap
 0006:C0121148       bitmap_bitremap
 0006:C01211C8       sg_last
 0006:C01211D4       sg_next
 0006:C0121208       __sg_free_table
 0006:C0121278       sg_free_table
 0006:C0121288       sg_init_table
 0006:C01212B8       sg_kfree
 0006:C01212CC       sg_kmalloc
 0006:C01212E8       sg_miter_start
 0006:C0121338       sg_miter_stop
 0006:C0121424       sg_init_one
 0006:C0121498       __sg_alloc_table
 0006:C0121578       sg_alloc_table
 0006:C01215C0       sg_miter_next
 0006:C01216B0       sg_copy_buffer
 0006:C0121760       sg_copy_from_buffer
 0006:C0121778       sg_copy_to_buffer
 0006:C0121790       string_get_size
 0006:C0121950       gcd
 0006:C0121984       __iowrite32_copy
 0006:C01219A0       __iowrite64_copy
 0006:C01219A8       devm_ioremap_match
 0006:C01219BC       devm_ioport_map_match
 0006:C01219D0       devm_ioremap_release
 0006:C01219D8       devm_ioremap
 0006:C0121A48       devm_ioremap_nocache
 0006:C0121AB8       devm_ioport_map
 0006:C0121B24       devm_ioport_map_release
 0006:C0121B2C       devm_iounmap
 0006:C0121B78       devm_ioport_unmap
 0006:C0121BC4       find_last_bit
 0006:C0121C1C       hweight32
 0006:C0121C60       hweight16
 0006:C0121CA0       hweight8
 0006:C0121CC8       hweight64
 0006:C0121CEC       bitrev16
 0006:C0121D08       bitrev32
 0006:C0121D2C       crc32_le
 0006:C0121E04       crc32_be
 0006:C0121F14       inflate_fast
 0006:C01223F0       zlib_updatewindow
 0006:C01224A8       zlib_inflate_workspacesize
 0006:C01224B4       zlib_inflateReset
 0006:C0122534       zlib_inflateInit2
 0006:C0122590       zlib_inflate
 0006:C01236DC       zlib_inflateEnd
 0006:C0123700       zlib_inflateIncomp
 0006:C0123908       zlib_inflate_blob
 0006:C01239BC       zlib_inflate_table
 0006:C0123EE8       putShortMSB
 0006:C0123F18       longest_match
 0006:C0124140       fill_window
 0006:C01244A0       flush_pending
 0006:C0124528       deflate_slow
 0006:C01248FC       deflate_fast
 0006:C0124BF4       deflate_stored
 0006:C0124D98       zlib_deflateReset
 0006:C0124EB4       zlib_deflateInit2
 0006:C0124FE4       zlib_deflate
 0006:C01252D8       zlib_deflateEnd
 0006:C0125338       zlib_deflate_workspacesize
 0006:C0125344       init_block
 0006:C01253C8       pqdownheap
 0006:C01254A4       gen_codes
 0006:C0125544       build_tree
 0006:C012596C       scan_tree
 0006:C0125A84       send_tree
 0006:C0125FCC       compress_block
 0006:C01263F0       zlib_tr_init
 0006:C01266D0       zlib_tr_stored_block
 0006:C0126890       zlib_tr_stored_type_only
 0006:C0126984       zlib_tr_align
 0006:C0126CFC       zlib_tr_flush_block
 0006:C01272B8       zlib_tr_tally
 0006:C01273E0       nla_policy_len
 0006:C0127438       nla_find
 0006:C0127480       validate_nla
 0006:C0127624       nla_validate
 0006:C0127688       nla_parse
 0006:C012774C       nla_strlcpy
 0006:C01277AC       nla_memcpy
 0006:C01277D0       nla_strcmp
 0006:C0127808       __nla_reserve
 0006:C012784C       nla_reserve
 0006:C0127880       __nla_put
 0006:C01278A4       nla_put
 0006:C01278E4       __nla_reserve_nohdr
 0006:C0127914       nla_reserve_nohdr
 0006:C0127948       __nla_put_nohdr
 0006:C0127968       nla_put_nohdr
 0006:C01279A8       nla_append
 0006:C0127A00       nla_memcmp
 0006:C0127A20       fb_register_client
 0006:C0127A30       fb_unregister_client
 0006:C0127A40       fb_notifier_call_chain
 0006:C0127A58       fb_get_color_depth
 0006:C0127AC8       fb_pad_aligned_buffer
 0006:C0127AFC       fb_pad_unaligned_buffer
 0006:C0127BA0       fb_get_buffer_offset
 0006:C0127C40       fb_show_logo
 0006:C0127C48       fb_seq_start
 0006:C0127C60       fb_seq_next
 0006:C0127C88       fb_seq_stop
 0006:C0127C8C       fb_pan_display
 0006:C0127DB8       lock_fb_info
 0006:C0127DF0       fb_blank
 0006:C0127E58       fb_set_var
 0006:C012809C       unregister_framebuffer
 0006:C0128180       fb_release
 0006:C01281CC       fb_open
 0006:C01282B4       fb_mmap
 0006:C0128404       fb_read
 0006:C01285D8       fb_write
 0006:C01287E0       do_fb_ioctl
 0006:C0128DA0       fb_ioctl
 0006:C0128DC4       proc_fb_open
 0006:C0128DD4       fb_seq_show
 0006:C0128E0C       fb_get_options
 0006:C0128F04       fb_set_suspend
 0006:C0128F5C       register_framebuffer
 0006:C01291AC       fb_prepare_logo
 0006:C01291B4       fb_new_modelist
 0006:C01292B8       fb_parse_edid
 0006:C01292C0       fb_edid_to_monspecs
 0006:C01292C4       fb_destroy_modedb
 0006:C01292C8       fb_get_mode
 0006:C01292D0       fb_validate_mode
 0006:C0129488       fb_firmware_edid
 0006:C0129490       fb_invert_cmaps
 0006:C01295B0       fb_dealloc_cmap
 0006:C01295F4       fb_copy_cmap
 0006:C01296C8       fb_set_cmap
 0006:C01297A4       fb_default_cmap
 0006:C01297E8       fb_alloc_cmap
 0006:C01298C0       fb_cmap_to_user
 0006:C0129A38       fb_set_user_cmap
 0006:C0129C04       show_blank
 0006:C0129C0C       store_console
 0006:C0129C14       show_console
 0006:C0129C1C       store_cursor
 0006:C0129C24       show_cursor
 0006:C0129C2C       framebuffer_alloc
 0006:C0129C70       framebuffer_release
 0006:C0129C74       store_fbstate
 0006:C0129CBC       show_fbstate
 0006:C0129CD8       show_rotate
 0006:C0129CF4       show_stride
 0006:C0129D10       show_name
 0006:C0129D2C       show_virtual
 0006:C0129D5C       show_pan
 0006:C0129D8C       mode_string
 0006:C0129E00       show_modes
 0006:C0129E48       show_mode
 0006:C0129E70       show_bpp
 0006:C0129E8C       activate
 0006:C0129EDC       store_rotate
 0006:C0129F30       store_virtual
 0006:C0129FB8       store_bpp
 0006:C012A00C       store_pan
 0006:C012A0A4       store_modes
 0006:C012A174       store_mode
 0006:C012A22C       store_blank
 0006:C012A29C       fb_init_device
 0006:C012A320       fb_cleanup_device
 0006:C012A368       my_atoi
 0006:C012A38C       fb_try_mode
 0006:C012A440       fb_var_to_videomode
 0006:C012A53C       fb_videomode_to_var
 0006:C012A5B4       fb_mode_is_equal
 0006:C012A674       fb_find_best_mode
 0006:C012A70C       fb_find_nearest_mode
 0006:C012A7A8       fb_match_mode
 0006:C012A808       fb_find_best_display
 0006:C012A90C       fb_find_mode
 0006:C012AE78       fb_destroy_modelist
 0006:C012AEC4       fb_add_videomode
 0006:C012AF64       fb_videomode_to_modelist
 0006:C012AFAC       fb_delete_videomode
 0006:C012B014       fb_find_mode_cvt
 0006:C012B70C       dummycon_startup
 0006:C012B718       dummycon_dummy
 0006:C012B720       dummycon_init
 0006:C012B754       read_null
 0006:C012B75C       write_null
 0006:C012B764       pipe_to_null
 0006:C012B76C       write_full
 0006:C012B774       null_lseek
 0006:C012B78C       memory_open
 0006:C012B81C       kmsg_write
 0006:C012B8C8       mmap_zero
 0006:C012B8DC       splice_write_null
 0006:C012B900       open_port
 0006:C012B91C       write_kmem
 0006:C012BB54       read_kmem
 0006:C012BCDC       memory_lseek
 0006:C012BD48       read_zero
 0006:C012BE28       unxlate_dev_mem_ptr
 0006:C012BE2C       write_mem
 0006:C012BF40       read_mem
 0006:C012C020       phys_mem_access_prot_allowed
 0006:C012C028       mmap_mem
 0006:C012C0D8       mmap_kmem
 0006:C012C118       mix_pool_bytes_extract
 0006:C012C258       random_poll
 0006:C012C2DC       account
 0006:C012C3B4       extract_buf
 0006:C012C490       random_fasync
 0006:C012C49C       secure_ipv4_port_ephemeral
 0006:C012C4E8       credit_entropy_bits.part.2
 0006:C012C570       write_pool
 0006:C012C614       random_write
 0006:C012C688       init_std_data
 0006:C012C700       rand_initialize
 0006:C012C72C       add_timer_randomness
 0006:C012C824       add_input_randomness
 0006:C012C854       random_ioctl
 0006:C012C9A4       xfer_secondary_pool
 0006:C012CA68       extract_entropy
 0006:C012CAF8       get_random_bytes
 0006:C012CB24       generate_random_uuid
 0006:C012CB5C       uuid_strategy
 0006:C012CC30       proc_do_uuid
 0006:C012CD2C       rekey_seq_generator
 0006:C012CD94       extract_entropy_user
 0006:C012CE8C       urandom_read
 0006:C012CE98       random_read
 0006:C012CFE0       add_interrupt_randomness
 0006:C012D004       add_disk_randomness
 0006:C012D024       rand_initialize_irq
 0006:C012D06C       rand_initialize_disk
 0006:C012D098       secure_ip_id
 0006:C012D0E8       secure_tcp_sequence_number
 0006:C012D16C       get_random_int
 0006:C012D1C0       randomize_range
 0006:C012D20C       hung_up_tty_read
 0006:C012D214       hung_up_tty_write
 0006:C012D21C       hung_up_tty_poll
 0006:C012D228       hung_up_tty_ioctl
 0006:C012D240       hung_up_tty_compat_ioctl
 0006:C012D258       tty_hung_up_p
 0006:C012D274       tty_get_pgrp
 0006:C012D2A4       tty_pair_get_tty
 0006:C012D2C0       tty_pair_get_pty
 0006:C012D2DC       tty_put_char
 0006:C012D318       tty_set_operations
 0006:C012D320       tty_devnum
 0006:C012D33C       tty_free_termios
 0006:C012D364       tty_shutdown
 0006:C012D3A0       tty_name
 0006:C012D3C4       check_tty_count
 0006:C012D454       tty_wakeup
 0006:C012D4AC       stop_tty
 0006:C012D538       start_tty
 0006:C012D5CC       tty_hangup
 0006:C012D5D4       do_SAK
 0006:C012D5E4       tty_init_termios
 0006:C012D688       get_current_tty
 0006:C012D6C8       tty_kref_put
 0006:C012D6E0       release_tty
 0006:C012D724       __proc_set_tty
 0006:C012D7FC       tty_driver_kref_put
 0006:C012D80C       put_tty_driver
 0006:C012D810       alloc_tty_driver
 0006:C012D858       tty_unregister_device
 0006:C012D878       destruct_tty_driver
 0006:C012D910       tty_unregister_driver
 0006:C012D974       tty_check_change
 0006:C012DA58       tty_register_device
 0006:C012DB38       tty_register_driver
 0006:C012DCE8       alloc_tty_struct
 0006:C012DD00       free_tty_struct
 0006:C012DD24       release_one_tty
 0006:C012DD94       tty_paranoia_check
 0006:C012DDF0       tty_fasync
 0006:C012DED4       do_tty_hangup
 0006:C012E19C       tty_vhangup
 0006:C012E1A4       tty_read
 0006:C012E274       tty_poll
 0006:C012E2F0       tty_vhangup_self
 0006:C012E314       tty_write_unlock
 0006:C012E33C       tty_write_lock
 0006:C012E390       tty_write
 0006:C012E5B8       redirected_tty_write
 0006:C012E610       send_break
 0006:C012E6E8       tty_write_message
 0006:C012E744       tty_do_resize
 0006:C012E7E4       __do_SAK
 0006:C012E948       do_SAK_work
 0006:C012E950       initialize_tty_struct
 0006:C012EABC       tty_init_dev
 0006:C012EC20       proc_clear_tty
 0006:C012EC40       session_clear_tty
 0006:C012EC70       disassociate_ctty
 0006:C012EDF4       tty_release_dev
 0006:C012F218       tty_release
 0006:C012F22C       tty_open
 0006:C012F610       no_tty
 0006:C012F648       tty_ioctl
 0006:C012FE24       tty_default_fops
 0006:C012FE9C       n_tty_set_room
 0006:C012FED0       n_tty_chars_in_buffer
 0006:C012FF18       add_echo_byte
 0006:C012FFAC       echo_char_raw
 0006:C012FFF0       echo_set_canon_col
 0006:C0130028       echo_char
 0006:C013008C       do_output_char
 0006:C0130248       process_output
 0006:C013028C       n_tty_poll
 0006:C01303E4       n_tty_set_termios
 0006:C0130718       copy_from_read_buf
 0006:C01307F0       n_tty_write_wakeup
 0006:C0130830       process_echoes
 0006:C0130AA8       n_tty_write
 0006:C0130E3C       n_tty_ioctl
 0006:C0130F18       put_tty_queue
 0006:C0130F60       reset_buffer_flags
 0006:C0130FF0       n_tty_flush_buffer
 0006:C0131048       n_tty_receive_buf
 0006:C0131DFC       n_tty_close
 0006:C0131E3C       n_tty_open
 0006:C0131EF4       is_ignored
 0006:C0131F44       n_tty_read
 0006:C013251C       tty_chars_in_buffer
 0006:C0132538       tty_write_room
 0006:C0132554       tty_driver_flush_buffer
 0006:C0132568       tty_termios_baud_rate
 0006:C01325B0       tty_termios_input_baud_rate
 0006:C0132608       tty_termios_encode_baud_rate
 0006:C0132778       tty_encode_baud_rate
 0006:C0132780       tty_termios_copy_hw
 0006:C01327B0       tty_throttle
 0006:C0132808       tty_unthrottle
 0006:C0132860       tty_wait_until_sent
 0006:C0132954       copy_termios
 0006:C0132994       send_prio_char
 0006:C0132A28       tty_termios_hw_change
 0006:C0132A6C       tty_get_baud_rate
 0006:C0132ABC       set_termios
 0006:C0132EDC       tty_perform_flush
 0006:C0132F84       tty_mode_ioctl
 0006:C0133448       n_tty_ioctl_helper
 0006:C01335D8       tty_register_ldisc
 0006:C0133624       tty_unregister_ldisc
 0006:C0133664       tty_ldiscs_seq_start
 0006:C013367C       tty_ldiscs_seq_next
 0006:C01336A4       tty_ldiscs_seq_stop
 0006:C01336A8       tty_ldisc_try
 0006:C01336F0       tty_ldisc_ref
 0006:C01336F4       proc_tty_ldiscs_open
 0006:C0133704       tty_ldisc_try_get
 0006:C01337D0       tty_ldisc_close
 0006:C013382C       tty_ldisc_open
 0006:C0133890       put_ldisc
 0006:C0133920       tty_ldiscs_seq_show
 0006:C013397C       tty_ldisc_deref
 0006:C0133980       tty_ldisc_flush
 0006:C01339C0       tty_set_termios_ldisc
 0006:C01339EC       tty_ldisc_halt
 0006:C0133A0C       tty_ldisc_ref_wait
 0006:C0133AA4       tty_ldisc_get.part.4
 0006:C0133AD8       tty_ldisc_enable
 0006:C0133B20       tty_set_ldisc
 0006:C0133E54       tty_ldisc_hangup
 0006:C0133FFC       tty_ldisc_setup
 0006:C0134064       tty_ldisc_release
 0006:C01340CC       tty_ldisc_init
 0006:C01340F4       tty_ldisc_begin
 0006:C0134104       tty_buffer_free
 0006:C013415C       tty_buffer_request_room
 0006:C0134278       tty_prepare_flip_string_flags
 0006:C01342CC       tty_insert_flip_string_flags
 0006:C0134354       tty_insert_flip_string
 0006:C01343D0       tty_prepare_flip_string
 0006:C0134428       tty_schedule_flip
 0006:C0134450       flush_to_ldisc
 0006:C01345BC       tty_flip_buffer_push
 0006:C01345F4       tty_buffer_free_all
 0006:C0134640       tty_buffer_flush
 0006:C013472C       tty_flush_to_ldisc
 0006:C0134734       tty_buffer_init
 0006:C0134770       tty_port_carrier_raised
 0006:C013478C       tty_port_raise_dtr_rts
 0006:C01347A4       tty_port_lower_dtr_rts
 0006:C01347BC       tty_port_init
 0006:C0134818       tty_port_alloc_xmit_buf
 0006:C0134860       tty_port_free_xmit_buf
 0006:C013489C       tty_port_tty_get
 0006:C01348C8       tty_port_tty_set
 0006:C0134908       tty_port_block_til_ready
 0006:C0134B88       tty_port_close_start
 0006:C0134CF8       tty_port_close_end
 0006:C0134DA4       tty_port_shutdown
 0006:C0134DE0       tty_port_hangup
 0006:C0134E40       tty_port_close
 0006:C0134E7C       pty_chars_in_buffer
 0006:C0134E84       pty_open
 0006:C0134F04       pty_set_termios
 0006:C0134F28       pty_unix98_remove
 0006:C0134F40       pty_resize
 0006:C0135044       pty_flush_buffer
 0006:C0135090       pty_unthrottle
 0006:C01350BC       pty_write
 0006:C013511C       pty_install
 0006:C0135214       ptmx_open
 0006:C01352EC       pty_unix98_shutdown
 0006:C01352F4       pty_unix98_install
 0006:C0135478       pts_unix98_lookup
 0006:C0135494       ptm_unix98_lookup
 0006:C01354B0       pty_write_room
 0006:C01354D0       pty_unix98_ioctl
 0006:C013555C       pty_close
 0006:C0135698       misc_seq_stop
 0006:C01356A4       misc_register
 0006:C01357CC       misc_deregister
 0006:C013586C       misc_nodename
 0006:C0135884       misc_open
 0006:C0135A58       misc_seq_open
 0006:C0135A68       misc_seq_show
 0006:C0135A9C       misc_seq_next
 0006:C0135AAC       misc_seq_start
 0006:C0135AD4       vt_waitactive
 0006:C0135BA0       reset_vc
 0006:C0135C40       complete_change_console
 0006:C0135D10       vt_ioctl
 0006:C0137970       vc_SAK
 0006:C01379A8       change_console
 0006:C0137A3C       vcs_open
 0006:C0137A74       vcs_size
 0006:C0137ADC       vcs_lseek
 0006:C0137B80       vcs_write
 0006:C0138028       vcs_read
 0006:C01383DC       vcs_make_sysfs
 0006:C013843C       vcs_remove_sysfs
 0006:C0138470       sel_pos
 0006:C01384A0       clear_selection
 0006:C01384F4       sel_loadlut
 0006:C0138550       set_selection
 0006:C0138BA8       paste_selection
 0006:C0138CC0       fn_compose
 0006:C0138CD4       k_ignore
 0006:C0138CD8       k_lowercase
 0006:C0138CE4       fn_send_intr
 0006:C0138D88       k_cons
 0006:C0138D98       fn_lastcons
 0006:C0138DA8       fn_inc_console
 0006:C0138E00       fn_dec_console
 0006:C0138E58       fn_SAK
 0006:C0138E7C       fn_boot_it
 0006:C0138E80       fn_scroll_back
 0006:C0138E88       fn_scroll_forw
 0006:C0138E90       fn_hold
 0006:C0138ECC       fn_show_state
 0006:C0138ED4       fn_show_mem
 0006:C0138ED8       fn_show_ptregs
 0006:C0138EF0       register_keyboard_notifier
 0006:C0138F00       unregister_keyboard_notifier
 0006:C0138F10       kbd_start
 0006:C0138FB0       kd_nosound
 0006:C0139038       kbd_bh
 0006:C0139114       kbd_disconnect
 0006:C0139134       kbd_connect
 0006:C01391F8       kd_mksound
 0006:C01392C4       put_queue.isra.4
 0006:C0139360       puts_queue.isra.5
 0006:C0139414       applkey
 0006:C013943C       to_utf8
 0006:C01394F4       k_shift
 0006:C01395F4       handle_diacr
 0006:C01396FC       fn_caps_toggle
 0006:C0139728       fn_caps_on
 0006:C0139754       fn_bare_num
 0006:C0139780       fn_num
 0006:C01397A8       k_spec
 0006:C01397FC       k_cur.part.12
 0006:C0139828       k_cur
 0006:C0139834       k_meta
 0006:C0139884       k_ascii
 0006:C01398BC       k_lock
 0006:C01398F4       k_slock
 0006:C0139964       k_fn.part.17
 0006:C0139980       k_fn
 0006:C013998C       k_unicode.part.19
 0006:C0139A20       k_deadunicode.part.20
 0006:C0139A50       k_dead
 0006:C0139A6C       fn_enter
 0006:C0139B00       fn_spawn_con
 0006:C0139B40       k_pad
 0006:C0139CC4       k_brlcommit.constprop.24
 0006:C0139D24       k_brl
 0006:C0139E6C       k_dead2
 0006:C0139E78       k_self
 0006:C0139EA4       getkeycode
 0006:C0139F00       setkeycode
 0006:C0139F5C       kbd_rate
 0006:C0139FF0       compute_shiftstate
 0006:C013A0C8       fn_null
 0006:C013A0CC       kbd_event
 0006:C013A76C       getledstate
 0006:C013A77C       setledstate
 0006:C013A7D0       inverse_translate
 0006:C013A840       con_release_unimap
 0006:C013A8E0       con_insert_unipair
 0006:C013A9A8       set_inverse_trans_unicode.isra.2
 0006:C013AA80       con_unify_unimap.isra.3
 0006:C013AB9C       set_translate
 0006:C013ABBC       con_get_trans_new
 0006:C013AC38       con_free_unimap
 0006:C013AC7C       con_copy_unimap
 0006:C013ACDC       con_clear_unimap
 0006:C013AD98       con_get_unimap
 0006:C013AEC0       con_protect_unimap
 0006:C013AED4       conv_8bit_to_uni
 0006:C013AEF8       conv_uni_to_8bit
 0006:C013AF48       conv_uni_to_pc
 0006:C013AFFC       set_inverse_transl
 0006:C013B098       update_user_maps
 0006:C013B104       con_set_trans_old
 0006:C013B17C       con_set_trans_new
 0006:C013B1FC       con_set_unimap
 0006:C013B3E8       con_set_default_unimap
 0006:C013B540       con_get_trans_old
 0006:C013B5E0       do_update_region
 0006:C013B750       add_softcursor
 0006:C013B7F8       clear_buffer_attributes
 0006:C013B840       gotoxy
 0006:C013B8C8       gotoxay
 0006:C013B8DC       csi_J
 0006:C013BA70       save_cur
 0006:C013BAFC       vt_console_device
 0006:C013BB24       con_write_room
 0006:C013BB38       con_chars_in_buffer
 0006:C013BB40       con_throttle
 0006:C013BB44       con_close
 0006:C013BB48       con_is_bound
 0006:C013BB7C       screen_glyph
 0006:C013BBBC       register_vt_notifier
 0006:C013BBCC       unregister_vt_notifier
 0006:C013BBDC       hide_cursor
 0006:C013BC6C       notify_update
 0006:C013BC98       notify_write
 0006:C013BCBC       set_origin
 0006:C013BD6C       visual_init
 0006:C013BE60       respond_string
 0006:C013BF0C       scrup
 0006:C013BFE8       lf
 0006:C013C050       con_unthrottle
 0006:C013C068       vtconsole_init_device
 0006:C013C0E8       register_con_driver
 0006:C013C240       show_name_0
 0006:C013C288       show_bind
 0006:C013C2B8       store_bind
 0006:C013C2D8       unregister_con_driver
 0006:C013C3C0       give_up_console
 0006:C013C3C4       do_blank_screen
 0006:C013C61C       build_attr
 0006:C013C724       update_attr
 0006:C013C7C4       insert_char
 0006:C013C8D8       set_cursor
 0006:C013C96C       con_flush_chars
 0006:C013C9B0       update_region
 0006:C013CA40       set_palette
 0006:C013CAA8       redraw_screen
 0006:C013CC6C       vc_do_resize
 0006:C013CF74       vc_resize
 0006:C013CF98       vt_resize
 0006:C013CFD0       take_over_console
 0006:C013D310       blank_screen_t
 0006:C013D36C       con_shutdown
 0006:C013D3B0       reset_terminal
 0006:C013D5B0       vc_init
 0006:C013D66C       schedule_console_callback
 0006:C013D678       invert_screen
 0006:C013D800       set_mode
 0006:C013DA08       complement_pos
 0006:C013DB94       vc_cons_allocated
 0006:C013DBC4       vt_console_print
 0006:C013DE88       con_start_0
 0006:C013DEF4       con_stop
 0006:C013DF60       do_unblank_screen
 0006:C013E094       unblank_screen
 0006:C013E09C       vc_allocate
 0006:C013E1F0       con_open
 0006:C013E2AC       vc_deallocate
 0006:C013E388       scrollback
 0006:C013E3AC       scrollfront
 0006:C013E3D0       mouse_report
 0006:C013E41C       mouse_reporting
 0006:C013E444       set_console
 0006:C013E4BC       tioclinux
 0006:C013E6B0       poke_blanked_console
 0006:C013E784       console_callback
 0006:C013E88C       con_set_cmap
 0006:C013E9C8       con_get_cmap
 0006:C013EA6C       reset_palette
 0006:C013EABC       do_con_write.part.18
 0006:C0140684       con_put_char
 0006:C01406C4       con_write
 0006:C0140708       con_font_op
 0006:C0140B74       screen_pos
 0006:C0140BA8       getconsxy
 0006:C0140BBC       putconsxy
 0006:C0140BE8       vcs_scr_readw
 0006:C0140C18       vcs_scr_writew
 0006:C0140C3C       sysrq_handle_unraw
 0006:C0140C88       sysrq_handle_crash
 0006:C0140CA4       sysrq_handle_loglevel
 0006:C0140CD4       sysrq_handle_showstate
 0006:C0140CDC       sysrq_handle_showstate_blocked
 0006:C0140CE4       sysrq_handle_mountro
 0006:C0140CE8       sysrq_handle_sync
 0006:C0140CEC       sysrq_handle_show_timers
 0006:C0140CF0       sysrq_handle_showregs
 0006:C0140D08       sysrq_handle_unrt
 0006:C0140D0C       sysrq_handle_showmem
 0006:C0140D10       sysrq_handle_SAK
 0006:C0140D34       sysrq_handle_moom
 0006:C0140D40       sysrq_handle_thaw
 0006:C0140D44       send_sig_all
 0006:C0140D94       sysrq_handle_kill
 0006:C0140DB4       sysrq_handle_term
 0006:C0140DD4       moom_callback
 0006:C0140DE8       sysrq_handle_reboot
 0006:C0140DF0       sysrq_on
 0006:C0140E24       __sysrq_get_key_op
 0006:C0140E60       __sysrq_swap_key_ops
 0006:C0140EC8       register_sysrq_key
 0006:C0140ED0       unregister_sysrq_key
 0006:C0140EDC       __handle_sysrq
 0006:C014100C       handle_sysrq
 0006:C0141038       write_sysrq_trigger
 0006:C0141070       dev_attr_store
 0006:C014108C       dev_uevent_filter
 0006:C01410CC       __match_devt
 0006:C01410E4       device_create_file
 0006:C01410F4       device_remove_file
 0006:C0141104       device_remove_attributes
 0006:C0141138       device_create_bin_file
 0006:C0141150       device_remove_bin_file
 0006:C0141160       device_schedule_callback_owner
 0006:C0141174       device_initialize
 0006:C01411EC       device_release
 0006:C0141268       root_device_release
 0006:C014126C       device_create_release
 0006:C0141270       dev_set_name
 0006:C014129C       show_dev
 0006:C01412BC       show_uevent
 0006:C01413BC       get_device
 0006:C01413D8       klist_children_get
 0006:C01413E0       cleanup_glue_dir
 0006:C0141410       put_device
 0006:C0141420       klist_children_put
 0006:C0141428       device_remove_class_symlinks
 0006:C0141498       device_add_groups
 0006:C01414FC       device_remove_groups
 0006:C014152C       device_remove_attrs
 0006:C0141570       device_for_each_child
 0006:C01415E8       device_rename
 0006:C0141698       dev_driver_string
 0006:C01416D0       store_uevent
 0006:C0141734       dev_attr_show
 0006:C0141778       dev_uevent_name
 0006:C014179C       get_device_parent
 0006:C01418B8       device_remove_sys_dev_entry
 0006:C0141910       device_del
 0006:C0141A7C       device_unregister
 0006:C0141A94       root_device_unregister
 0006:C0141AC4       device_destroy
 0006:C0141AFC       device_find_child
 0006:C0141B78       device_add
 0006:C014201C       device_register
 0006:C0142034       __root_device_register
 0006:C01420B4       device_create_vargs
 0006:C0142170       device_create
 0006:C0142194       device_move
 0006:C0142354       device_get_nodename
 0006:C0142420       dev_uevent
 0006:C0142558       device_shutdown
 0006:C01425F0       sysdev_show
 0006:C014260C       sysdev_store
 0006:C0142628       sysdev_class_show
 0006:C0142648       sysdev_class_store
 0006:C014266C       sysdev_create_file
 0006:C0142674       sysdev_class_create_file
 0006:C014267C       sysdev_remove_file
 0006:C0142684       sysdev_class_remove_file
 0006:C014268C       sysdev_class_register
 0006:C01426FC       sysdev_class_unregister
 0006:C0142704       __sysdev_resume
 0006:C01427D4       sysdev_resume
 0006:C0142880       sysdev_driver_register
 0006:C0142990       sysdev_driver_unregister
 0006:C0142A1C       sysdev_unregister
 0006:C0142A80       sysdev_register
 0006:C0142B40       sysdev_suspend
 0006:C0142DD0       sysdev_store_ulong
 0006:C0142E10       sysdev_show_ulong
 0006:C0142E2C       sysdev_show_int
 0006:C0142E48       sysdev_store_int
 0006:C0142E88       sysdev_shutdown
 0006:C0142F4C       drv_attr_show
 0006:C0142F6C       drv_attr_store
 0006:C0142F90       bus_attr_show
 0006:C0142FB0       bus_attr_store
 0006:C0142FD4       bus_uevent_filter
 0006:C0142FF0       store_drivers_autoprobe
 0006:C0143014       bus_get_kset
 0006:C014301C       bus_get_device_klist
 0006:C0143028       bus_sort_breadthfirst
 0006:C0143120       bus_get
 0006:C0143148       bus_put
 0006:C014315C       bus_create_file
 0006:C014319C       bus_remove_file
 0006:C01431D0       bus_for_each_drv
 0006:C0143264       bus_find_device
 0006:C01432F8       bus_find_device_by_name
 0006:C0143304       klist_devices_get
 0006:C014330C       match_name
 0006:C0143324       driver_release
 0006:C0143328       driver_uevent_store
 0006:C0143364       bus_uevent_store
 0006:C01433A4       bus_rescan_devices_helper
 0006:C01433F8       store_drivers_probe
 0006:C0143438       device_reprobe
 0006:C014348C       driver_bind
 0006:C014356C       driver_unbind
 0006:C01435F8       klist_devices_put
 0006:C0143600       bus_register
 0006:C0143844       show_drivers_autoprobe
 0006:C0143860       bus_register_notifier
 0006:C014386C       bus_unregister_notifier
 0006:C0143878       device_remove_attrs.isra.5
 0006:C01438BC       bus_for_each_dev
 0006:C0143950       bus_rescan_devices
 0006:C0143964       bus_unregister
 0006:C0143A04       bus_add_device
 0006:C0143B18       bus_probe_device
 0006:C0143B5C       bus_remove_device
 0006:C0143BDC       bus_add_driver
 0006:C0143DF0       bus_remove_driver
 0006:C0143E98       driver_sysfs_add
 0006:C0143EF8       driver_sysfs_remove
 0006:C0143F2C       wait_for_device_probe
 0006:C0143FC8       driver_attach
 0006:C0143FE0       __device_release_driver
 0006:C0144084       device_release_driver
 0006:C01440AC       driver_bound
 0006:C0144120       device_bind_driver
 0006:C0144144       device_attach
 0006:C01441A8       driver_probe_done
 0006:C01441C0       driver_probe_device
 0006:C0144314       __device_attach
 0006:C0144358       __driver_attach
 0006:C01443E4       driver_detach
 0006:C014446C       driver_find_device
 0006:C0144500       driver_create_file
 0006:C0144518       driver_remove_file
 0006:C0144528       driver_add_kobj
 0006:C0144590       get_driver
 0006:C01445AC       put_driver
 0006:C01445B4       driver_find
 0006:C01445D8       driver_register
 0006:C01446FC       driver_unregister
 0006:C0144768       j_warn_slowpath_fmt_0
 0006:C0144778       driver_for_each_device
 0006:C014480C       class_attr_show
 0006:C014482C       class_attr_store
 0006:C0144850       class_release
 0006:C0144864       class_create_file
 0006:C0144880       class_remove_file
 0006:C0144894       class_create_release
 0006:C0144898       klist_class_dev_put
 0006:C01448A0       klist_class_dev_get
 0006:C01448A8       class_unregister
 0006:C01448F0       class_destroy
 0006:C0144904       class_dev_iter_init
 0006:C0144930       class_dev_iter_next
 0006:C014496C       class_dev_iter_exit
 0006:C0144970       class_for_each_device
 0006:C0144A20       class_find_device
 0006:C0144AC8       class_interface_unregister
 0006:C0144B70       class_interface_register
 0006:C0144C44       __class_register
 0006:C0144DD4       __class_create
 0006:C0144E48       platform_get_resource
 0006:C0144EA4       platform_get_irq
 0006:C0144EC4       platform_drv_probe
 0006:C0144ED4       platform_drv_probe_fail
 0006:C0144EDC       platform_drv_remove
 0006:C0144EEC       platform_drv_shutdown
 0006:C0144EFC       platform_pm_prepare
 0006:C0144F2C       platform_pm_complete
 0006:C0144F54       platform_pm_resume
 0006:C0144F98       platform_pm_resume_noirq
 0006:C0144FDC       platform_get_resource_byname
 0006:C0145044       platform_get_irq_byname
 0006:C0145064       platform_device_put
 0006:C0145074       platform_device_release
 0006:C0145098       dma_get_required_mask
 0006:C01450F8       platform_device_alloc
 0006:C0145154       platform_device_add_resources
 0006:C01451A4       platform_device_add_data
 0006:C01451E8       platform_device_add
 0006:C014533C       platform_device_register
 0006:C0145358       platform_device_register_simple
 0006:C01453BC       platform_driver_register
 0006:C014540C       platform_driver_unregister
 0006:C0145414       platform_driver_probe
 0006:C0145474       platform_uevent
 0006:C01454A4       modalias_show
 0006:C01454D8       platform_match
 0006:C0145544       platform_device_del
 0006:C01455A0       platform_device_unregister
 0006:C01455B8       platform_add_devices
 0006:C0145608       platform_pm_suspend_noirq
 0006:C0145658       platform_pm_suspend
 0006:C01456A8       platform_device_register_data
 0006:C014571C       get_cpu_sysdev
 0006:C0145734       print_cpus_kernel_max
 0006:C0145750       print_cpus_map
 0006:C0145788       print_cpus_online
 0006:C014579C       print_cpus_possible
 0006:C01457B0       print_cpus_present
 0006:C01457C4       print_cpus_offline
 0006:C01458B4       kobj_map
 0006:C01459AC       kobj_unmap
 0006:C0145A60       kobj_lookup
 0006:C0145B88       kobj_map_init
 0006:C0145C14       group_open_release
 0006:C0145C18       group_close_release
 0006:C0145C1C       find_dr
 0006:C0145C8C       devres_find
 0006:C0145CAC       devres_remove
 0006:C0145CE4       find_group
 0006:C0145D50       devm_kzalloc_release
 0006:C0145D54       devm_kzalloc_match
 0006:C0145D64       devres_alloc
 0006:C0145DAC       devres_remove_group
 0006:C0145E18       add_dr
 0006:C0145E50       devres_add
 0006:C0145E6C       devm_kzalloc
 0006:C0145EC8       devres_open_group
 0006:C0145F4C       devres_close_group
 0006:C0145F90       devres_free
 0006:C0145FC4       devres_get
 0006:C0146014       devres_destroy
 0006:C0146038       devm_kfree
 0006:C0146074       release_nodes
 0006:C0146240       devres_release_group
 0006:C014629C       devres_release_all
 0006:C01462D8       attribute_container_classdev_to_container
 0006:C01462E0       attribute_container_register
 0006:C014633C       attribute_container_unregister
 0006:C0146394       internal_container_klist_put
 0006:C014639C       internal_container_klist_get
 0006:C01463A4       attribute_container_release
 0006:C01463BC       attribute_container_find_class_device
 0006:C0146408       attribute_container_device_trigger
 0006:C01464CC       attribute_container_trigger
 0006:C0146534       attribute_container_add_attrs
 0006:C01465AC       attribute_container_add_class_device
 0006:C01465CC       attribute_container_add_device
 0006:C01466E4       attribute_container_add_class_device_adapter
 0006:C01466EC       attribute_container_remove_attrs
 0006:C0146744       attribute_container_remove_device
 0006:C0146818       attribute_container_class_device_del
 0006:C0146830       anon_transport_dummy_function
 0006:C0146838       transport_setup_classdev
 0006:C0146858       transport_configure
 0006:C0146878       transport_class_register
 0006:C0146884       transport_class_unregister
 0006:C0146888       anon_transport_class_register
 0006:C01468C0       transport_setup_device
 0006:C01468CC       transport_add_device
 0006:C01468D8       transport_configure_device
 0006:C01468E4       transport_remove_device
 0006:C01468F0       transport_add_class_device
 0006:C0146924       transport_remove_classdev
 0006:C014697C       transport_destroy_device
 0006:C0146988       transport_destroy_classdev
 0006:C01469A8       anon_transport_class_unregister
 0006:C01469CC       wake_store
 0006:C0146A70       wake_show
 0006:C0146AB4       dpm_sysfs_add
 0006:C0146AC4       dpm_sysfs_remove
 0006:C0146AD4       pm_dev_err
 0006:C0146B98       __suspend_report_result
 0006:C0146BC4       pm_noirq_op
 0006:C0146C38       pm_op
 0006:C0146CAC       dpm_resume_end
 0006:C0146FDC       dpm_suspend_start
 0006:C0147418       dpm_resume_noirq
 0006:C01474C0       dpm_suspend_noirq
 0006:C01475C8       device_pm_lock
 0006:C01475D4       device_pm_unlock
 0006:C01475E0       device_pm_add
 0006:C0147694       device_pm_remove
 0006:C01476D4       device_pm_move_before
 0006:C0147704       device_pm_move_after
 0006:C0147734       device_pm_move_last
 0006:C014776C       dmam_noncoherent_release
 0006:C0147770       dmam_alloc_noncoherent
 0006:C014779C       dmam_alloc_coherent
 0006:C0147820       dmam_coherent_release
 0006:C0147828       dmam_declare_coherent_memory
 0006:C01478A4       dmam_coherent_decl_release
 0006:C01478A8       dmam_free_coherent
 0006:C01478F4       dmam_match
 0006:C014794C       dmam_free_noncoherent
 0006:C014798C       dmam_release_declared_memory
 0006:C01479C0       firmware_timeout_store
 0006:C01479F8       release_firmware
 0006:C0147A48       fw_load_abort
 0006:C0147A68       firmware_class_timeout
 0006:C0147A6C       firmware_loading_store
 0006:C0147C14       firmware_loading_show
 0006:C0147C30       firmware_timeout_show
 0006:C0147C4C       fw_dev_release
 0006:C0147CAC       firmware_uevent
 0006:C0147D04       firmware_data_read
 0006:C0147DEC       firmware_data_write
 0006:C0147FB4       _request_firmware
 0006:C01483B4       request_firmware
 0006:C01483BC       request_firmware_nowait
 0006:C01484BC       request_firmware_work_func
 0006:C0148544       make_driver_name
 0006:C014859C       module_add_driver
 0006:C014864C       module_remove_driver
 0006:C01486C0       brd_alloc
 0006:C01487F4       brd_probe
 0006:C01488B4       brd_free_pages
 0006:C0148958       brd_ioctl
 0006:C01489D0       brd_lookup_page
 0006:C0148A0C       brd_insert_page.part.8
 0006:C0148AD8       brd_make_request
 0006:C0148EC0       mii_get_an
 0006:C0148F10       mii_ethtool_gset
 0006:C01490F4       mii_ethtool_sset
 0006:C014933C       mii_link_ok
 0006:C0149378       mii_nway_restart
 0006:C01493C8       mii_check_link
 0006:C0149424       generic_mii_ioctl
 0006:C0149590       mii_check_gmii_support
 0006:C01495D8       mii_check_media
 0006:C01497A8       loopback_get_stats
 0006:C01497D0       always_on
 0006:C01497D8       loopback_setup
 0006:C0149854       loopback_dev_free
 0006:C0149870       loopback_xmit
 0006:C01498E8       loopback_dev_init
 0006:C014991C       smc_enable
 0006:C0149A68       smc_ethtool_getmsglevel
 0006:C0149A70       smc_ethtool_setmsglevel
 0006:C0149A78       smc_ethtool_geteeprom_len
 0006:C0149A80       smc_mii_out
 0006:C0149B0C       smc_phy_write
 0006:C0149BCC       smc_ethtool_seteeprom
 0006:C0149D68       smc_ethtool_geteeprom
 0006:C0149EFC       smc_enable_device
 0006:C0149FE0       smc_shutdown
 0006:C014A0E0       smc_reset
 0006:C014A318       smc_phy_check_media
 0006:C014A390       smc_10bt_check_media
 0006:C014A474       smc_hardware_send_pkt
 0006:C014A724       smc_hard_start_xmit
 0006:C014A8B8       smc_ethtool_nwayreset
 0006:C014A8E4       smc_ethtool_getdrvinfo
 0006:C014A93C       smc_ethtool_setsettings
 0006:C014A9A8       smc_timeout
 0006:C014AAFC       smc_set_multicast_list
 0006:C014AD0C       smc_ethtool_getsettings
 0006:C014AD8C       smc_phy_read
 0006:C014AEC4       smc_phy_fixed
 0006:C014AFAC       smc_phy_configure
 0006:C014B1A4       smc_drv_resume
 0006:C014B1F8       smc_open
 0006:C014B2F4       smc_interrupt
 0006:C014BD18       smc_phy_powerdown
 0006:C014BD60       smc_drv_suspend
 0006:C014BD9C       smc_close
 0006:C014BDE4       mtd_cls_suspend
 0006:C014BE10       mtd_cls_resume
 0006:C014BE48       default_mtd_writev
 0006:C014BEFC       mtd_name_show
 0006:C014BF20       mtd_numeraseregions_show
 0006:C014BF44       mtd_oobsize_show
 0006:C014BF68       mtd_subpagesize_show
 0006:C014BF94       mtd_writesize_show
 0006:C014BFB8       mtd_erasesize_show
 0006:C014BFDC       mtd_size_show
 0006:C014C010       mtd_flags_show
 0006:C014C034       mtd_type_show
 0006:C014C070       register_mtd_user
 0006:C014C0DC       mtd_release
 0006:C014C100       del_mtd_device
 0006:C014C1B4       unregister_mtd_user
 0006:C014C234       get_mtd_device
 0006:C014C330       get_mtd_device_nm
 0006:C014C410       mtd_read_proc
 0006:C014C500       add_mtd_device
 0006:C014C73C       put_mtd_device
 0006:C014C7A0       get_sb_mtd_compare
 0006:C014C7B4       get_sb_mtd_set
 0006:C014C7CC       kill_mtd_super
 0006:C014C7EC       get_sb_mtd_aux.isra.0
 0006:C014C898       get_sb_mtd
 0006:C014CA18       part_point
 0006:C014CA88       part_unpoint
 0006:C014CAB0       part_get_unmapped_area
 0006:C014CAD0       part_read_user_prot_reg
 0006:C014CADC       part_get_user_prot_info
 0006:C014CAE8       part_read_fact_prot_reg
 0006:C014CAF4       part_get_fact_prot_info
 0006:C014CB00       part_write
 0006:C014CB7C       part_panic_write
 0006:C014CBF8       part_write_oob
 0006:C014CC78       part_write_user_prot_reg
 0006:C014CC84       part_lock_user_prot_reg
 0006:C014CC90       part_writev
 0006:C014CCD4       part_erase
 0006:C014CD74       mtd_erase_callback
 0006:C014CDE4       part_lock
 0006:C014CE30       part_unlock
 0006:C014CE7C       part_sync
 0006:C014CE88       part_suspend
 0006:C014CE94       part_resume
 0006:C014CEA0       part_block_isbad
 0006:C014CEE0       part_block_markbad
 0006:C014CF44       register_mtd_parser
 0006:C014CF64       deregister_mtd_parser
 0006:C014CF8C       del_mtd_partitions
 0006:C014D014       part_read_oob
 0006:C014D0B8       part_read
 0006:C014D174       add_mtd_partitions
 0006:C014D7C4       get_partition_parser
 0006:C014D848       parse_mtd_partitions
 0006:C014D904       mtdpart_setup
 0006:C014D918       newpart
 0006:C014DB68       parse_cmdline_partitions
 0006:C014DDC0       mtd_lseek
 0006:C014DE38       mtd_mmap
 0006:C014DE58       mtd_close
 0006:C014DEA8       mtd_open
 0006:C014DF84       mtdchar_erase_callback
 0006:C014DF98       mtd_write
 0006:C014E1B8       mtd_read
 0006:C014E3BC       mtd_do_writeoob
 0006:C014E554       mtd_do_readoob
 0006:C014E698       mtd_ioctl
 0006:C014EFBC       blktrans_discard_request
 0006:C014EFD8       blktrans_getgeo
 0006:C014EFFC       blktrans_ioctl
 0006:C014F038       blktrans_notify_remove
 0006:C014F0BC       add_mtd_blktrans_dev
 0006:C014F330       blktrans_release
 0006:C014F384       blktrans_open
 0006:C014F44C       mtd_blktrans_request
 0006:C014F45C       mtd_blktrans_thread
 0006:C014F6CC       register_mtd_blktrans
 0006:C014F8C8       deregister_mtd_blktrans
 0006:C014F998       blktrans_notify_add
 0006:C014F9F4       del_mtd_blktrans_dev
 0006:C014FA60       mtdblock_remove_dev
 0006:C014FA78       mtdblock_add_mtd
 0006:C014FAE0       erase_write
 0006:C014FC28       write_cached_data
 0006:C014FC64       mtdblock_release
 0006:C014FCEC       mtdblock_flush
 0006:C014FD38       erase_callback
 0006:C014FD4C       mtdblock_open
 0006:C014FE14       mtdblock_readsect
 0006:C014FF18       mtdblock_writesect
 0006:C01500D4       register_mtd_chip_driver
 0006:C01500F8       unregister_mtd_chip_driver
 0006:C0150124       get_mtd_chip_driver
 0006:C01501B8       do_map_probe
 0006:C0150224       map_destroy
 0006:C015025C       cfi_probe
 0006:C0150268       cfi_probe_chip
 0006:C01509A8       cfi_fixup
 0006:C0150A1C       cfi_varsize_frob
 0006:C0150C08       cfi_qry_present
 0006:C0150DE8       cfi_qry_mode_on
 0006:C0151334       cfi_qry_mode_off
 0006:C0151580       cfi_read_pri
 0006:C0151674       fixup_st_m28w320ct
 0006:C0151694       fixup_st_m28w320cb
 0006:C01516D4       fixup_use_point
 0006:C01516F8       fixup_use_fwh_lock
 0006:C0151728       do_getlockstatus_oneblock
 0006:C0151864       chip_ready
 0006:C0151E88       put_chip
 0006:C0152128       get_chip
 0006:C015228C       cfi_intelext_sync
 0006:C0152338       cfi_intelext_unpoint
 0006:C01523FC       cfi_intelext_reset
 0006:C015253C       cfi_intelext_destroy
 0006:C01525B8       cfi_intelext_reboot
 0006:C01525CC       fwh_xxlock_oneblock
 0006:C015270C       inval_cache_and_wait_for_operation
 0006:C0152A30       cfi_intelext_writev
 0006:C01539B0       cfi_intelext_write_buffers
 0006:C01539E4       do_erase_oneblock
 0006:C015412C       do_xxlock_oneblock
 0006:C01544FC       fwh_unlock_varsize
 0006:C0154534       fwh_lock_varsize
 0006:C0154570       cfi_intelext_unlock
 0006:C0154584       cfi_intelext_resume
 0006:C0154784       cfi_intelext_lock
 0006:C0154798       fixup_convert_atmel_pri
 0006:C0154834       cfi_intelext_suspend
 0006:C0154AA4       cfi_intelext_read
 0006:C0154D04       cfi_intelext_erase_varsize
 0006:C0154D54       cfi_cmdset_0200
 0006:C0155640       fixup_unlock_powerup_lock
 0006:C015567C       fixup_use_write_buffers
 0006:C01556C4       cfi_intelext_point
 0006:C0155954       do_write_oneword.constprop.15
 0006:C0155DFC       cfi_intelext_write_words
 0006:C015603C       check_cmd_set
 0006:C0156140       mtd_do_chip_probe
 0006:C0156470       armflash_set_vpp
 0006:C0156490       armflash_subdev_remove
 0006:C01564E0       armflash_remove
 0006:C0156568       armflash_probe
 0006:C015687C       serio_match_port
 0006:C0156908       serio_bus_match
 0006:C0156938       serio_open
 0006:C015698C       serio_close
 0006:C01569B8       serio_queue_event
 0006:C0156AE0       serio_rescan
 0006:C0156AEC       serio_reconnect
 0006:C0156AF8       serio_resume
 0006:C0156B24       serio_interrupt
 0006:C0156B78       __serio_register_port
 0006:C0156C28       serio_release_port
 0006:C0156C40       serio_free_event
 0006:C0156C5C       serio_remove_pending_events
 0006:C0156CC4       serio_cleanup
 0006:C0156D04       serio_suspend
 0006:C0156D4C       serio_shutdown
 0006:C0156D54       serio_disconnect_driver
 0006:C0156D8C       serio_driver_remove
 0006:C0156DA0       serio_reconnect_driver
 0006:C0156DF0       serio_driver_set_bind_mode
 0006:C0156E48       serio_set_bind_mode
 0006:C0156EA4       serio_driver_show_bind_mode
 0006:C0156ED0       serio_driver_show_description
 0006:C0156EF4       serio_show_bind_mode
 0006:C0156F20       serio_show_id_extra
 0006:C0156F38       serio_show_id_id
 0006:C0156F50       serio_show_id_proto
 0006:C0156F68       serio_show_id_type
 0006:C0156F80       serio_show_modalias
 0006:C0156FB8       serio_show_description
 0006:C0156FD0       serio_find_driver
 0006:C0157000       serio_destroy_port
 0006:C0157110       serio_disconnect_port
 0006:C0157168       serio_unregister_port
 0006:C015719C       serio_unregister_child_port
 0006:C01571D4       __serio_register_driver
 0006:C015725C       serio_unregister_driver
 0006:C01572E4       serio_uevent
 0006:C015739C       serio_reconnect_chain
 0006:C01573D8       serio_rebind_driver
 0006:C0157558       serio_thread
 0006:C01578B4       serio_driver_probe
 0006:C01578F0       ps2_sendbyte
 0006:C01579F4       ps2_drain
 0006:C0157AEC       ps2_is_keyboard_id
 0006:C0157B10       ps2_command
 0006:C0157E6C       ps2_init
 0006:C0157EA8       ps2_cmd_aborted
 0006:C0157EEC       ps2_handle_response
 0006:C0157F74       ps2_handle_ack
 0006:C0158068       input_fetch_keycode
 0006:C015809C       input_default_getkeycode
 0006:C01580D4       input_get_keycode
 0006:C01580EC       input_match_device
 0006:C0158280       input_proc_devices_poll
 0006:C01582D8       __input_release_device
 0006:C0158344       input_grab_device
 0006:C0158390       input_open_device
 0006:C015843C       input_flush_device
 0006:C015848C       input_register_handle
 0006:C0158518       input_handlers_seq_stop
 0006:C0158524       input_devices_seq_stop
 0006:C0158530       input_release_device
 0006:C0158560       input_close_device
 0006:C01585D0       input_unregister_handle
 0006:C0158634       input_nodename
 0006:C015864C       input_dev_release
 0006:C0158674       input_print_bitmap
 0006:C015872C       input_add_uevent_bm_var
 0006:C01587A4       input_dev_show_cap_sw
 0006:C01587D8       input_dev_show_cap_ff
 0006:C015880C       input_dev_show_cap_snd
 0006:C0158840       input_dev_show_cap_led
 0006:C0158874       input_dev_show_cap_msc
 0006:C01588A8       input_dev_show_cap_abs
 0006:C01588DC       input_dev_show_cap_rel
 0006:C0158910       input_dev_show_cap_key
 0006:C0158948       input_dev_show_cap_ev
 0006:C015897C       input_print_modalias_bits
 0006:C0158A1C       input_print_modalias
 0006:C0158BC8       input_dev_uevent
 0006:C0158E70       input_dev_show_modalias
 0006:C0158E9C       input_dev_show_id_version
 0006:C0158EBC       input_dev_show_id_product
 0006:C0158EDC       input_dev_show_id_vendor
 0006:C0158EFC       input_dev_show_id_bustype
 0006:C0158F1C       input_dev_show_uniq
 0006:C0158F44       input_dev_show_phys
 0006:C0158F6C       input_dev_show_name
 0006:C0158F94       input_allocate_device
 0006:C0159014       input_free_device
 0006:C0159028       input_attach_handler
 0006:C01590B0       input_set_capability
 0006:C01591E0       input_default_setkeycode
 0006:C01592A8       input_register_handler
 0006:C0159398       input_register_device
 0006:C0159560       input_open_file
 0006:C0159670       input_unregister_handler
 0006:C015974C       input_proc_handlers_open
 0006:C015975C       input_proc_devices_open
 0006:C015976C       input_handlers_seq_show
 0006:C01597C0       input_seq_print_bitmap
 0006:C0159850       input_devices_seq_show
 0006:C0159AC8       input_handlers_seq_next
 0006:C0159AE4       input_devices_seq_next
 0006:C0159AF4       input_handlers_seq_start
 0006:C0159B38       input_devices_seq_start
 0006:C0159B70       input_pass_event
 0006:C0159BF8       input_set_keycode
 0006:C0159D14       input_repeat_key
 0006:C0159DC8       input_handle_event
 0006:C015A1E0       input_inject_event
 0006:C015A22C       input_unregister_device
 0006:C015A3D0       input_event
 0006:C015A430       input_event_from_user
 0006:C015A48C       input_ff_effect_from_user
 0006:C015A4F4       input_event_to_user
 0006:C015A538       input_ff_upload
 0006:C015A738       input_ff_destroy
 0006:C015A798       input_ff_create
 0006:C015A8D8       input_ff_event
 0006:C015A98C       erase_effect
 0006:C015AA3C       input_ff_erase
 0006:C015AA94       flush_effects
 0006:C015AAE8       mousedev_packet
 0006:C015ACA0       mousedev_poll
 0006:C015ACF4       mousedev_fasync
 0006:C015ACFC       mousedev_free
 0006:C015AD28       mousedev_close_device
 0006:C015ADEC       mousedev_open_device
 0006:C015AED4       mousedev_write
 0006:C015B09C       mousedev_cleanup
 0006:C015B154       mousedev_read
 0006:C015B330       mousedev_create
 0006:C015B4BC       mousedev_notify_readers
 0006:C015B684       mousedev_event
 0006:C015BB54       mousedev_destroy
 0006:C015BB90       mousedev_disconnect
 0006:C015BC04       mousedev_connect
 0006:C015BCF4       mousedev_open
 0006:C015BE30       mousedev_release
 0006:C015BE7C       atkbd_cleanup
 0006:C015BE9C       atkbd_select_set
 0006:C015BFD8       atkbd_set_repeat_rate
 0006:C015C0C0       atkbd_set_leds
 0006:C015C1B0       atkbd_disconnect
 0006:C015C208       atkbd_show_err_count
 0006:C015C220       atkbd_show_softraw
 0006:C015C23C       atkbd_show_softrepeat
 0006:C015C258       atkbd_show_set
 0006:C015C26C       atkbd_show_scroll
 0006:C015C288       atkbd_show_extra
 0006:C015C2A4       atkbd_attr_show_helper
 0006:C015C300       atkbd_do_show_err_count
 0006:C015C310       atkbd_do_show_softraw
 0006:C015C320       atkbd_do_show_softrepeat
 0006:C015C330       atkbd_do_show_set
 0006:C015C340       atkbd_do_show_scroll
 0006:C015C350       atkbd_do_show_extra
 0006:C015C360       atkbd_attr_set_helper
 0006:C015C3E4       atkbd_do_set_softraw
 0006:C015C3F8       atkbd_do_set_softrepeat
 0006:C015C40C       atkbd_do_set_set
 0006:C015C420       atkbd_do_set_scroll
 0006:C015C434       atkbd_do_set_extra
 0006:C015C448       atkbd_set_device_attrs
 0006:C015C60C       atkbd_set_softraw
 0006:C015C6BC       atkbd_set_softrepeat
 0006:C015C790       atkbd_schedule_event_work
 0006:C015C7F0       atkbd_event
 0006:C015C848       atkbd_probe
 0006:C015C954       atkbd_event_work
 0006:C015C9CC       atkbd_interrupt
 0006:C015CF7C       atkbd_activate
 0006:C015CFFC       atkbd_reconnect
 0006:C015D0B4       atkbd_set_keycode_table
 0006:C015D2D4       atkbd_set_set
 0006:C015D3D0       atkbd_set_scroll
 0006:C015D490       atkbd_set_extra
 0006:C015D588       atkbd_connect
 0006:C015D784       psmouse_show_int_attr
 0006:C015D7A0       psmouse_set_resolution
 0006:C015D7FC       psmouse_poll
 0006:C015D818       psmouse_set_rate
 0006:C015D85C       psmouse_protocol_by_name
 0006:C015D8F4       psmouse_set_maxproto
 0006:C015D944       psmouse_set_int_attr
 0006:C015D980       psmouse_attr_set_resolution
 0006:C015D9C4       psmouse_attr_set_rate
 0006:C015DA08       psmouse_process_byte
 0006:C015DC88       psmouse_attr_show_helper
 0006:C015DCEC       ps2bare_detect
 0006:C015DD24       cortron_detect
 0006:C015DD68       psmouse_protocol_by_type
 0006:C015DDC0       psmouse_get_maxproto
 0006:C015DDF0       psmouse_attr_show_protocol
 0006:C015DE1C       intellimouse_detect
 0006:C015DF24       im_explorer_detect
 0006:C015E0C4       genius_detect
 0006:C015E1EC       thinking_detect
 0006:C015E2D4       psmouse_initialize
 0006:C015E320       psmouse_probe
 0006:C015E3BC       psmouse_handle_byte
 0006:C015E4A0       lifebook_detect
 0006:C015E4A8       lifebook_init
 0006:C015E4B0       psmouse_queue_work
 0006:C015E4C0       psmouse_interrupt
 0006:C015E728       psmouse_set_state
 0006:C015E758       psmouse_deactivate
 0006:C015E79C       psmouse_activate
 0006:C015E7E0       psmouse_attr_set_helper
 0006:C015E8E4       psmouse_disconnect
 0006:C015E9D8       psmouse_resync
 0006:C015EB80       psmouse_sliced_command
 0006:C015EBEC       psmouse_reset
 0006:C015EC30       psmouse_cleanup
 0006:C015ECD4       psmouse_extensions
 0006:C015EE98       psmouse_switch_protocol
 0006:C015F020       psmouse_connect
 0006:C015F268       psmouse_reconnect
 0006:C015F394       psmouse_attr_set_protocol
 0006:C015F5E4       synaptics_mode_cmd
 0006:C015F628       synaptics_reset
 0006:C015F630       synaptics_set_rate
 0006:C015F660       synaptics_set_absolute_mode
 0006:C015F6AC       synaptics_send_cmd
 0006:C015F6EC       synaptics_pt_write
 0006:C015F738       synaptics_query_hardware
 0006:C015F8D8       synaptics_pt_activate
 0006:C015F92C       synaptics_disconnect
 0006:C015F94C       synaptics_process_byte
 0006:C01600EC       synaptics_detect
 0006:C016019C       synaptics_reconnect
 0006:C016023C       synaptics_init
 0006:C0160644       alps_disconnect
 0006:C0160664       alps_passthrough_mode
 0006:C01606EC       alps_poll
 0006:C01607C8       alps_process_packet
 0006:C0160CA8       alps_get_model
 0006:C0160E80       alps_process_byte
 0006:C0160F00       alps_hw_init
 0006:C01610F0       alps_reconnect
 0006:C0161114       alps_init
 0006:C0161324       alps_detect
 0006:C0161390       ps2pp_attr_show_smartscroll
 0006:C01613AC       ps2pp_disconnect
 0006:C01613C0       ps2pp_process_byte
 0006:C0161608       ps2pp_cmd
 0006:C016164C       ps2pp_set_smartscroll
 0006:C01616C8       ps2pp_attr_set_smartscroll
 0006:C016171C       ps2pp_set_resolution
 0006:C0161798       ps2pp_init
 0006:C0161C2C       trackpoint_write
 0006:C0161C98       trackpoint_set_int_attr
 0006:C0161CFC       trackpoint_read
 0006:C0161D44       trackpoint_show_int_attr
 0006:C0161D74       trackpoint_disconnect
 0006:C0161DA4       trackpoint_toggle_bit
 0006:C0161E24       trackpoint_set_bit_attr
 0006:C0161EA8       trackpoint_sync
 0006:C0162088       trackpoint_reconnect
 0006:C01620E0       trackpoint_detect
 0006:C016227C       rtc_month_days
 0006:C01622DC       rtc_year_days
 0006:C0162344       rtc_time_to_tm
 0006:C01624A8       rtc_valid_tm
 0006:C0162528       rtc_tm_to_time
 0006:C0162574       i2c_device_remove
 0006:C01625C0       i2c_device_shutdown
 0006:C01625E0       i2c_device_suspend
 0006:C0162608       i2c_device_resume
 0006:C0162630       i2c_verify_client
 0006:C016264C       dummy_probe
 0006:C0162654       dummy_remove
 0006:C016265C       __i2c_check_addr
 0006:C0162688       i2c_cmd
 0006:C01626C4       i2c_smbus_pec
 0006:C0162708       i2c_smbus_msg_pec
 0006:C0162744       i2c_device_probe
 0006:C01627F4       i2c_device_uevent
 0006:C0162820       show_modalias
 0006:C016283C       show_client_name
 0006:C0162854       show_adapter_name
 0006:C016286C       i2c_client_dev_release
 0006:C0162874       i2c_new_device
 0006:C0162990       i2c_new_dummy
 0006:C01629F0       i2c_clients_command
 0006:C0162A14       i2c_unregister_device
 0006:C0162A1C       __unregister_client
 0006:C0162A3C       i2c_do_del_adapter
 0006:C0162B04       i2c_sysfs_delete_device
 0006:C0162C94       i2c_sysfs_new_device
 0006:C0162E68       i2c_adapter_dev_release
 0006:C0162E70       i2c_register_adapter
 0006:C0163004       i2c_add_adapter
 0006:C0163090       i2c_get_adapter
 0006:C0163100       i2c_del_driver
 0006:C0163148       i2c_use_client
 0006:C0163180       i2c_release_client
 0006:C0163190       i2c_transfer
 0006:C0163274       i2c_master_send
 0006:C01632BC       i2c_master_recv
 0006:C0163308       i2c_smbus_xfer
 0006:C01637E0       i2c_smbus_read_byte
 0006:C0163820       i2c_smbus_write_byte
 0006:C0163854       i2c_smbus_read_byte_data
 0006:C0163898       i2c_smbus_write_byte_data
 0006:C01638D4       i2c_smbus_read_word_data
 0006:C0163918       i2c_smbus_write_word_data
 0006:C0163954       i2c_smbus_process_call
 0006:C0163998       i2c_smbus_read_block_data
 0006:C01639F8       i2c_smbus_write_block_data
 0006:C0163A50       i2c_smbus_read_i2c_block_data
 0006:C0163AB8       i2c_smbus_write_i2c_block_data
 0006:C0163B10       i2c_put_adapter
 0006:C0163B18       __detach_adapter
 0006:C0163BCC       i2c_add_numbered_adapter
 0006:C0163C74       i2c_del_adapter
 0006:C0163DD0       i2c_register_driver
 0006:C0163E58       i2c_new_probed_device
 0006:C0163FB0       i2c_detect_address
 0006:C016415C       i2c_detect
 0006:C0164398       i2c_do_add_adapter
 0006:C01643CC       __attach_adapter
 0006:C01643FC       i2c_device_match
 0006:C0164450       mmc_request_done
 0006:C01644C8       mmc_set_data_timeout
 0006:C01645FC       mmc_align_data_size
 0006:C0164608       mmc_power_off
 0006:C0164644       mmc_wait_done
 0006:C016464C       mmc_wait_for_req
 0006:C016476C       __mmc_release_bus
 0006:C01647C0       mmc_wait_for_cmd
 0006:C0164830       mmc_release_host
 0006:C0164888       __mmc_claim_host
 0006:C0164980       mmc_schedule_delayed_work
 0006:C016499C       mmc_detect_change
 0006:C01649A4       mmc_power_up
 0006:C0164A60       mmc_vddrange_to_ocrmask
 0006:C0164B10       mmc_set_chip_select
 0006:C0164B24       mmc_set_clock
 0006:C0164B78       mmc_set_bus_mode
 0006:C0164B8C       mmc_set_bus_width
 0006:C0164BA0       mmc_select_voltage
 0006:C0164C04       mmc_resume_host
 0006:C0164CC0       mmc_set_timing
 0006:C0164CD4       mmc_attach_bus
 0006:C0164D78       mmc_detach_bus
 0006:C0164E24       mmc_suspend_host
 0006:C0164F2C       mmc_rescan
 0006:C0165134       mmc_start_host
 0006:C0165150       mmc_stop_host
 0006:C016524C       mmc_bus_match
 0006:C0165254       mmc_bus_probe
 0006:C0165264       mmc_bus_remove
 0006:C0165280       mmc_bus_suspend
 0006:C01652A8       mmc_bus_resume
 0006:C01652D0       mmc_type_show
 0006:C016533C       mmc_register_driver
 0006:C016534C       mmc_unregister_driver
 0006:C016535C       mmc_release_card
 0006:C016538C       mmc_bus_uevent
 0006:C0165404       mmc_register_bus
 0006:C0165410       mmc_unregister_bus
 0006:C016541C       mmc_alloc_card
 0006:C0165488       mmc_add_card
 0006:C0165580       mmc_remove_card
 0006:C01655E4       mmc_host_classdev_release
 0006:C01655EC       mmc_alloc_host
 0006:C01656F0       mmc_add_host
 0006:C016574C       mmc_remove_host
 0006:C0165764       mmc_free_host
 0006:C0165788       mmc_register_host_class
 0006:C016579C       mmc_unregister_host_class
 0006:C01657A8       mmc_serial_show
 0006:C01657C0       mmc_oemid_show
 0006:C01657D8       mmc_name_show
 0006:C01657F0       mmc_manfid_show
 0006:C0165808       mmc_hwrev_show
 0006:C0165820       mmc_fwrev_show
 0006:C0165838       mmc_date_show
 0006:C0165854       mmc_csd_show
 0006:C016588C       mmc_cid_show
 0006:C01658C4       mmc_remove
 0006:C0165908       mmc_detect
 0006:C0165990       mmc_attach_mmc
 0006:C01660BC       mmc_send_cxd_data
 0006:C01661C0       _mmc_select_card
 0006:C0166230       mmc_send_cxd_native
 0006:C01662DC       mmc_select_card
 0006:C0166300       mmc_deselect_cards
 0006:C0166308       mmc_go_idle
 0006:C01663AC       mmc_send_op_cond
 0006:C0166490       mmc_all_send_cid
 0006:C0166534       mmc_set_relative_addr
 0006:C01665A4       mmc_send_csd
 0006:C016662C       mmc_send_cid
 0006:C01666C8       mmc_send_ext_csd
 0006:C01666EC       mmc_spi_read_ocr
 0006:C016674C       mmc_spi_set_crc
 0006:C01667AC       mmc_switch
 0006:C016683C       mmc_send_status
 0006:C01668E0       mmc_serial_show_0
 0006:C01668F8       mmc_oemid_show_0
 0006:C0166910       mmc_name_show_0
 0006:C0166928       mmc_manfid_show_0
 0006:C0166940       mmc_hwrev_show_0
 0006:C0166958       mmc_fwrev_show_0
 0006:C0166970       mmc_date_show_0
 0006:C016698C       mmc_scr_show
 0006:C01669A8       mmc_csd_show_0
 0006:C01669E0       mmc_cid_show_0
 0006:C0166A18       mmc_sd_remove
 0006:C0166A60       mmc_sd_detect
 0006:C0166AE4       mmc_attach_sd
 0006:C0167298       mmc_app_cmd
 0006:C0167338       mmc_wait_for_app_cmd
 0006:C0167408       mmc_app_set_bus_width
 0006:C0167494       mmc_send_app_op_cond
 0006:C016757C       mmc_send_if_cond
 0006:C01675F8       mmc_send_relative_addr
 0006:C016766C       mmc_app_send_scr
 0006:C01677AC       mmc_sd_switch
 0006:C01678B8       mmc_sdio_remove
 0006:C016793C       mmc_sdio_detect
 0006:C01679B8       mmc_attach_sdio
 0006:C0167F2C       mmc_send_io_op_cond
 0006:C0167FF0       mmc_io_rw_direct
 0006:C016811C       mmc_io_rw_extended
 0006:C016830C       sdio_bus_remove
 0006:C0168364       sdio_bus_uevent
 0006:C01683E4       modalias_show_0
 0006:C0168414       device_show
 0006:C016842C       vendor_show
 0006:C0168444       class_show
 0006:C016845C       sdio_register_driver
 0006:C0168478       sdio_unregister_driver
 0006:C016848C       sdio_release_func
 0006:C01684BC       sdio_match_device.isra.2
 0006:C016855C       sdio_bus_match
 0006:C0168578       sdio_bus_probe
 0006:C01685E4       sdio_register_bus
 0006:C01685F0       sdio_unregister_bus
 0006:C01685FC       sdio_alloc_func
 0006:C0168660       sdio_add_func
 0006:C01686A4       sdio_remove_func
 0006:C01686CC       cistpl_manfid
 0006:C0168708       cistpl_funce
 0006:C01687FC       sdio_read_cis
 0006:C0168AA4       cistpl_vers_1
 0006:C0168B8C       sdio_read_common_cis
 0006:C0168B94       sdio_free_common_cis
 0006:C0168BC0       sdio_read_func_cis
 0006:C0168C18       sdio_free_func_cis
 0006:C0168C64       sdio_disable_func
 0006:C0168CF8       sdio_set_block_size
 0006:C0168DA0       sdio_enable_func
 0006:C0168E98       sdio_align_size
 0006:C016902C       sdio_io_rw_ext_helper
 0006:C01691A4       sdio_memcpy_fromio
 0006:C01691C0       sdio_readw
 0006:C016920C       sdio_readl
 0006:C0169254       sdio_memcpy_toio
 0006:C0169278       sdio_writew
 0006:C01692A4       sdio_writel
 0006:C01692D0       sdio_readsb
 0006:C01692EC       sdio_writesb
 0006:C0169310       sdio_claim_host
 0006:C0169350       sdio_release_host
 0006:C016938C       sdio_readb
 0006:C01693F8       sdio_writeb
 0006:C0169450       sdio_f0_readb
 0006:C01694C0       sdio_f0_writeb
 0006:C0169530       sdio_claim_irq
 0006:C0169690       sdio_irq_thread
 0006:C01698AC       sdio_release_irq
 0006:C01699C0       mmc_blk_getgeo
 0006:C01699E8       mmc_blk_suspend
 0006:C0169A10       mmc_blk_put
 0006:C0169A84       mmc_blk_remove
 0006:C0169AC0       mmc_blk_release
 0006:C0169AD4       mmc_blk_open
 0006:C0169B70       mmc_blk_set_blksize.isra.4.part.5
 0006:C0169BF0       mmc_blk_probe
 0006:C0169E7C       mmc_blk_issue_rq
 0006:C016A4C8       mmc_blk_resume
 0006:C016A500       mmc_queue_thread
 0006:C016A5D0       mmc_prep_request
 0006:C016A60C       mmc_request
 0006:C016A660       mmc_init_queue
 0006:C016A958       mmc_queue_suspend
 0006:C016A998       mmc_queue_resume
 0006:C016A9D4       mmc_cleanup_queue
 0006:C016AA48       mmc_queue_map_sg
 0006:C016AAE4       mmc_queue_bounce_pre
 0006:C016AB30       mmc_queue_bounce_post
 0006:C016AB7C       hid_lookup_collection
 0006:C016ABDC       item_udata
 0006:C016AC18       item_sdata
 0006:C016AC54       s32ton
 0006:C016AC90       hid_device_remove
 0006:C016ACDC       hid_parser_global
 0006:C016AF0C       hid_get_report
 0006:C016AF5C       hid_add_field
 0006:C016B1EC       hid_parse_report
 0006:C016B4CC       hid_device_release
 0006:C016B560       hid_output_report
 0006:C016B86C       hid_process_event
 0006:C016B9BC       hid_allocate_device
 0006:C016BA68       hid_destroy_device
 0006:C016BAA0       __hid_register_driver
 0006:C016BB04       store_new_id
 0006:C016BBEC       hid_unregister_driver
 0006:C016BC54       snto32
 0006:C016BC94       hid_set_field
 0006:C016BD68       hid_report_raw_event
 0006:C016C214       hid_input_report
 0006:C016C3D4       hid_check_keys_pressed
 0006:C016C438       hid_parser_reserved
 0006:C016C474       hid_parser_main
 0006:C016C6A4       hid_uevent
 0006:C016C778       hid_match_id
 0006:C016C7D8       hid_connect
 0006:C016CA44       hid_match_device
 0006:C016CAC0       hid_device_probe
 0006:C016CBA8       hid_add_device
 0006:C016CCC4       hid_bus_match
 0006:C016CD28       hid_parser_local
 0006:C016CFC0       hidinput_find_key
 0006:C016D074       hidinput_getkeycode
 0006:C016D0A0       hidinput_find_field
 0006:C016D12C       hidinput_open
 0006:C016D13C       hidinput_close
 0006:C016D14C       hidinput_report_event
 0006:C016D18C       hidinput_setkeycode
 0006:C016D244       hidinput_disconnect
 0006:C016D2A0       hidinput_connect
 0006:C01705C8       hidinput_hid_event
 0006:C01708E8       tab
 0006:C0170900       hid_resolv_usage
 0006:C01709C8       hid_dump_field
 0006:C0170D7C       hid_dump_device
 0006:C0170E70       hid_dump_input
 0006:C0170EB8       hid_resolv_event
 0006:C0170F18       sound_nodename
 0006:C0170F48       sound_remove_unit
 0006:C0170FA8       unregister_sound_special
 0006:C0170FD0       unregister_sound_mixer
 0006:C0170FE0       unregister_sound_midi
 0006:C0170FF0       unregister_sound_dsp
 0006:C0171000       sound_insert_unit.isra.4
 0006:C0171140       register_sound_special_device
 0006:C01712D4       register_sound_special
 0006:C01712DC       register_sound_mixer
 0006:C017131C       register_sound_midi
 0006:C0171360       register_sound_dsp
 0006:C01713A4       soundcore_open
 0006:C0171590       sockfs_delete_dentry
 0006:C01715A4       sock_no_open
 0006:C01715AC       sock_tx_timestamp
 0006:C01715E0       sock_poll
 0006:C01715F4       sock_mmap
 0006:C0171608       kernel_bind
 0006:C0171614       kernel_listen
 0006:C0171620       kernel_connect
 0006:C017162C       kernel_getsockname
 0006:C017163C       kernel_getpeername
 0006:C017164C       kernel_sock_ioctl
 0006:C01716B4       kernel_sock_shutdown
 0006:C01716C0       sock_splice_read
 0006:C01716EC       sock_alloc_fd
 0006:C0171738       sock_attach_fd
 0006:C01717FC       sock_map_fd
 0006:C0171860       sock_aio_dtor
 0006:C0171868       sock_aio_write
 0006:C0171970       sock_fasync
 0006:C0171A88       sock_register
 0006:C0171AE0       sock_ioctl
 0006:C0171D20       brioctl_set
 0006:C0171D50       vlan_ioctl_set
 0006:C0171D80       dlci_ioctl_set
 0006:C0171DB0       sockfs_dname
 0006:C0171DD4       sockfd_lookup
 0006:C0171E2C       sock_release
 0006:C0171EA8       sock_close
 0006:C0171ED4       sock_sendmsg
 0006:C0171F98       kernel_sendmsg
 0006:C0172004       sock_recvmsg
 0006:C01720D8       kernel_recvmsg
 0006:C0172148       __sock_recv_timestamp
 0006:C01722A4       sock_alloc
 0006:C017231C       sock_create_lite
 0006:C0172344       kernel_accept
 0006:C01723EC       sockfd_lookup_light
 0006:C0172454       kernel_setsockopt
 0006:C01724E4       kernel_getsockopt
 0006:C0172574       sockfs_get_sb
 0006:C0172590       sock_destroy_inode
 0006:C01725A4       sock_alloc_inode
 0006:C0172600       init_once_7
 0006:C0172608       kernel_sendpage
 0006:C0172638       sock_sendpage
 0006:C017266C       sock_wake_async
 0006:C01726F8       __sock_create.isra.20
 0006:C01728B8       sock_create
 0006:C01728FC       sock_create_kern
 0006:C0172930       sock_unregister
 0006:C0172980       sock_aio_read
 0006:C0172A8C       move_addr_to_kernel
 0006:C0172B04       move_addr_to_user
 0006:C0172BA0       sys_socket
 0006:C0172C04       sys_socketpair
 0006:C0172DB0       sys_bind
 0006:C0172E30       sys_listen
 0006:C0172E9C       sys_accept4
 0006:C0173044       sys_accept
 0006:C017304C       sys_connect
 0006:C01730D4       sys_getsockname
 0006:C0173158       sys_getpeername
 0006:C01731E0       sys_sendto
 0006:C01732B4       sys_send
 0006:C01732D0       sys_recvfrom
 0006:C01733AC       sys_recv
 0006:C01733C8       sys_setsockopt
 0006:C0173464       sys_getsockopt
 0006:C01734F4       sys_shutdown
 0006:C017354C       sys_sendmsg
 0006:C017375C       sys_recvmsg
 0006:C0173928       sys_socketcall
 0006:C0173B30       socket_seq_show
 0006:C0173B4C       sock_rfree
 0006:C0173B88       sock_i_uid
 0006:C0173B98       sock_i_ino
 0006:C0173BA8       __sk_mem_schedule
 0006:C0173D48       __sk_mem_reclaim
 0006:C0173DB4       sock_no_bind
 0006:C0173DBC       sock_no_connect
 0006:C0173DC4       sock_no_socketpair
 0006:C0173DCC       sock_no_accept
 0006:C0173DD4       sock_no_getname
 0006:C0173DDC       sock_no_poll
 0006:C0173DE4       sock_no_ioctl
 0006:C0173DEC       sock_no_listen
 0006:C0173DF4       sock_no_shutdown
 0006:C0173DFC       sock_no_setsockopt
 0006:C0173E04       sock_no_getsockopt
 0006:C0173E0C       sock_no_sendmsg
 0006:C0173E14       sock_no_recvmsg
 0006:C0173E1C       sock_no_mmap
 0006:C0173E24       sock_common_getsockopt
 0006:C0173E34       sock_common_recvmsg
 0006:C0173E84       sock_common_setsockopt
 0006:C0173E94       sock_prot_inuse_add
 0006:C0173EB0       sock_prot_inuse_get
 0006:C0173EC8       proto_seq_stop
 0006:C0173ECC       sock_queue_rcv_skb
 0006:C0173FCC       sk_setup_caps
 0006:C0174038       __sk_dst_check
 0006:C017408C       sk_dst_check
 0006:C0174100       sock_set_timeout
 0006:C017422C       sock_kfree_s
 0006:C017425C       sock_def_destruct
 0006:C0174264       sock_kmalloc
 0006:C01742DC       sock_wmalloc
 0006:C0174368       sock_alloc_send_pskb
 0006:C0174650       sock_alloc_send_skb
 0006:C0174670       sock_no_sendpage
 0006:C01746E4       sock_init_data
 0006:C017482C       sock_def_error_report
 0006:C017488C       sock_def_wakeup
 0006:C01748B4       sock_def_readable
 0006:C0174914       lock_sock_nested
 0006:C01749B8       release_sock
 0006:C0174A40       sk_wait_data
 0006:C0174B28       proto_seq_open
 0006:C0174B38       proto_seq_next
 0006:C0174B48       proto_seq_start
 0006:C0174B58       sock_warn_obsolete_bsdism
 0006:C0174BCC       sock_disable_timestamp
 0006:C0174C3C       __sk_free
 0006:C0174D1C       sk_free
 0006:C0174D40       sk_common_release
 0006:C0174DEC       sk_receive_skb
 0006:C0174E94       sk_release_kernel
 0006:C0174EF0       sock_wfree
 0006:C0174F5C       sk_prot_alloc.isra.21
 0006:C017501C       sk_alloc
 0006:C0175080       sk_clone
 0006:C017524C       sk_send_sigurg
 0006:C01752A8       sk_reset_timer
 0006:C01752E0       sk_stop_timer
 0006:C0175320       sock_def_write_space
 0006:C01753A0       proto_register
 0006:C01755AC       proto_unregister
 0006:C0175678       proto_seq_show
 0006:C017595C       sock_getsockopt
 0006:C0175DF8       sock_rmalloc
 0006:C0175E98       sock_enable_timestamp
 0006:C0175F0C       sock_setsockopt
 0006:C0176588       sock_get_timestamp
 0006:C017664C       sock_get_timestampns
 0006:C0176700       reqsk_queue_alloc
 0006:C01767CC       __reqsk_queue_destroy
 0006:C01767EC       reqsk_queue_destroy
 0006:C01768BC       sock_pipe_buf_steal
 0006:C01768C4       skb_add_rx_frag
 0006:C0176918       skb_clone_fraglist
 0006:C017694C       skb_dequeue
 0006:C017699C       skb_dequeue_tail
 0006:C01769EC       skb_queue_head
 0006:C0176A1C       skb_queue_tail
 0006:C0176A48       skb_unlink
 0006:C0176A7C       skb_append
 0006:C0176AAC       skb_insert
 0006:C0176AD8       skb_prepare_seq_read
 0006:C0176AF8       skb_abort_seq_read
 0006:C0176B20       skb_ts_finish
 0006:C0176B28       skb_find_text
 0006:C0176BBC       skb_over_panic
 0006:C0176C20       skb_under_panic
 0006:C0176C84       __alloc_skb
 0006:C0176DA8       sock_pipe_buf_get
 0006:C0176DD4       dev_alloc_skb
 0006:C0176E0C       __netdev_alloc_skb
 0006:C0176E50       skb_seq_read
 0006:C0177020       skb_ts_get_next_block
 0006:C0177028       __netdev_alloc_page
 0006:C0177040       skb_append_datato_frags
 0006:C01771B8       __skb_to_sgvec
 0006:C01773A8       skb_to_sgvec
 0006:C01773CC       skb_release_head_state
 0006:C0177460       sock_spd_release
 0006:C017746C       sock_pipe_buf_release
 0006:C0177474       skb_push
 0006:C01774B0       __skb_splice_bits
 0006:C0177854       __copy_skb_header
 0006:C017796C       __skb_clone
 0006:C0177A48       skb_clone
 0006:C0177ACC       copy_skb_header
 0006:C0177B44       skb_copy_bits
 0006:C0177D24       skb_store_bits
 0006:C0177F04       skb_gro_receive
 0006:C01782AC       skb_checksum
 0006:C01784E4       skb_copy_and_csum_bits
 0006:C0178754       skb_copy_and_csum_dev
 0006:C0178818       skb_trim
 0006:C0178858       skb_pull
 0006:C01788A8       skb_pull_rcsum
 0006:C017893C       skb_recycle_check
 0006:C0178A20       skb_put
 0006:C0178A7C       skb_split
 0006:C0178C58       pskb_copy
 0006:C0178D9C       skb_copy
 0006:C0178E3C       skb_copy_expand
 0006:C0178F04       skb_partial_csum_set
 0006:C0178F98       __skb_warn_lro_forwarding
 0006:C0178FC0       __kfree_skb
 0006:C0179074       consume_skb
 0006:C01790B0       kfree_skb
 0006:C01790EC       skb_drop_list
 0006:C0179114       skb_release_data
 0006:C01791C4       skb_morph
 0006:C01791EC       pskb_expand_head
 0006:C017937C       skb_prepare_for_shift
 0006:C01793C8       skb_queue_purge
 0006:C01793EC       skb_realloc_headroom
 0006:C0179450       ___pskb_trim
 0006:C0179650       __pskb_pull_tail
 0006:C01798F8       skb_pad
 0006:C01799F4       skb_cow_data
 0006:C0179C6C       skb_segment
 0006:C017A16C       skb_tstamp_tx
 0006:C017A28C       skb_splice_bits
 0006:C017A398       skb_shift
 0006:C017A6BC       memcpy_fromiovec
 0006:C017A76C       memcpy_fromiovecend
 0006:C017A828       memcpy_toiovec
 0006:C017A8C8       memcpy_toiovecend
 0006:C017A964       csum_partial_copy_fromiovecend
 0006:C017ABD4       verify_iovec
 0006:C017ACBC       datagram_poll
 0006:C017AD94       __skb_recv_datagram
 0006:C017AFD8       skb_recv_datagram
 0006:C017AFFC       receiver_wake_function
 0006:C017B018       skb_free_datagram
 0006:C017B050       skb_free_datagram_locked
 0006:C017B07C       skb_kill_datagram
 0006:C017B128       skb_copy_datagram_iovec
 0006:C017B2CC       skb_copy_datagram_const_iovec
 0006:C017B488       skb_copy_datagram_from_iovec
 0006:C017B648       __skb_checksum_complete_head
 0006:C017B6A8       __skb_checksum_complete
 0006:C017B6B0       skb_copy_and_csum_datagram
 0006:C017BA08       skb_copy_and_csum_datagram_iovec
 0006:C017BB0C       sk_stream_write_space
 0006:C017BBB4       sk_stream_wait_connect
 0006:C017BD40       sk_stream_wait_memory
 0006:C017BF4C       sk_stream_kill_queues
 0006:C017C050       sk_stream_wait_close
 0006:C017C128       sk_stream_error
 0006:C017C19C       __scm_destroy
 0006:C017C278       scm_fp_dup
 0006:C017C308       __scm_send
 0006:C017C5A0       put_cmsg
 0006:C017C6AC       scm_detach_fds
 0006:C017C7FC       gnet_stats_copy_rate_est
 0006:C017C854       gnet_stats_copy_queue
 0006:C017C8C0       gnet_stats_copy_app
 0006:C017C90C       gnet_stats_copy_basic
 0006:C017CA38       gnet_stats_start_copy_compat
 0006:C017CABC       gnet_stats_start_copy
 0006:C017CAD8       gnet_stats_finish_copy
 0006:C017CB60       gen_find_node
 0006:C017CBAC       est_timer
 0006:C017CD48       gen_new_estimator
 0006:C017CF38       gen_kill_estimator
 0006:C017CFA8       gen_replace_estimator
 0006:C017CFD8       __gen_kill_estimator
 0006:C017CFE0       gen_estimator_active
 0006:C017D030       net_assign_generic
 0006:C017D0EC       net_generic_release
 0006:C017D0F4       register_pernet_operations.isra.2
 0006:C017D108       register_pernet_subsys
 0006:C017D13C       register_pernet_device
 0006:C017D184       register_pernet_gen_subsys
 0006:C017D1FC       register_pernet_gen_device
 0006:C017D28C       unregister_pernet_operations.isra.3
 0006:C017D2A0       unregister_pernet_subsys
 0006:C017D2CC       unregister_pernet_device
 0006:C017D308       unregister_pernet_gen_subsys
 0006:C017D348       unregister_pernet_gen_device
 0006:C017D398       copy_net_ns
 0006:C017D3A8       skb_dma_unmap
 0006:C017D3AC       skb_dma_map
 0006:C017D474       __dev_get_by_index
 0006:C017D4AC       dev_get_by_index
 0006:C017D4D8       dev_get_by_flags
 0006:C017D538       net_enable_timestamp
 0006:C017D558       net_disable_timestamp
 0006:C017D578       can_checksum_protocol
 0006:C017D5D4       __napi_schedule
 0006:C017D618       netif_napi_add
 0006:C017D674       register_gifconf
 0006:C017D694       dev_seq_start
 0006:C017D6FC       dev_seq_stop
 0006:C017D700       softnet_seq_next
 0006:C017D73C       softnet_seq_stop
 0006:C017D740       ptype_get_idx
 0006:C017D804       ptype_seq_start
 0006:C017D824       ptype_seq_stop
 0006:C017D828       dev_change_rx_flags
 0006:C017D848       dev_get_flags
 0006:C017D89C       netdev_increment_features
 0006:C017D918       dev_add_pack
 0006:C017D988       __dev_remove_pack
 0006:C017DA18       netdev_fix_features
 0006:C017DAD0       netdev_boot_setup_check
 0006:C017DB44       init_dummy_netdev
 0006:C017DBB8       __dev_get_by_name
 0006:C017DC50       dev_get_by_name
 0006:C017DC7C       __dev_getfirstbyhwtype
 0006:C017DCF0       __dev_set_promiscuity
 0006:C017DDC4       dev_getbyhwaddr
 0006:C017DE58       dev_getfirstbyhwtype
 0006:C017DEA0       ha_rcu_free
 0006:C017DEA8       register_netdevice_notifier
 0006:C017E028       unregister_netdevice_notifier
 0006:C017E054       skb_checksum_help
 0006:C017E194       skb_gso_segment
 0006:C017E3F0       dev_gso_skb_destructor
 0006:C017E434       netif_napi_del
 0006:C017E498       netif_rx
 0006:C017E5B0       netif_receive_skb
 0006:C017E880       napi_skb_finish
 0006:C017E8CC       netif_rx_ni
 0006:C017E8F8       napi_get_frags
 0006:C017E954       __hw_addr_del
 0006:C017EA04       __hw_addr_flush
 0006:C017EA5C       synchronize_net
 0006:C017EA60       dev_remove_pack
 0006:C017EA70       netdev_set_master
 0006:C017EB30       net_tx_action
 0006:C017EC10       ptype_seq_open
 0006:C017EC20       dev_seq_open
 0006:C017EC30       ptype_seq_show
 0006:C017ECB4       softnet_seq_show
 0006:C017ED04       softnet_seq_open
 0006:C017ED14       __netif_schedule
 0006:C017ED64       netif_device_detach
 0006:C017EDD4       skb_gro_reset_offset
 0006:C017EE30       napi_reuse_skb
 0006:C017EE70       napi_frags_skb
 0006:C017EF34       napi_frags_finish
 0006:C017EFC0       dev_seq_next
 0006:C017EFFC       dev_get_stats
 0006:C017F07C       dev_seq_show
 0006:C017F184       ptype_seq_next
 0006:C017F228       skb_tx_hash
 0006:C017F2F8       __hw_addr_add
 0006:C017F3D8       dev_valid_name
 0006:C017F470       __napi_complete
 0006:C017F4E8       process_backlog
 0006:C017F590       dev_load
 0006:C017F5CC       dev_disable_lro
 0006:C017F640       dev_kfree_skb_irq
 0006:C017F690       dev_kfree_skb_any
 0006:C017F6C4       netif_device_attach
 0006:C017F74C       netdev_rx_csum_fault
 0006:C017F784       free_netdev
 0006:C017F824       alloc_netdev_mq
 0006:C017F9BC       napi_gro_complete.constprop.58
 0006:C017FA8C       dev_gro_receive
 0006:C017FCCC       __napi_gro_receive
 0006:C017FD60       napi_gro_receive
 0006:C017FD8C       napi_gro_frags
 0006:C017FDC8       napi_gro_flush
 0006:C017FE00       napi_complete
 0006:C017FE30       net_rx_action
 0006:C017FF8C       dev_alloc_name
 0006:C01800F8       softnet_seq_start
 0006:C0180134       netdev_boot_base
 0006:C01801AC       dev_set_alias
 0006:C0180254       call_netdevice_notifiers
 0006:C018026C       dev_change_name
 0006:C01804B4       netdev_features_change
 0006:C01804C0       netdev_state_change
 0006:C01804F4       netdev_bonding_change
 0006:C0180500       dev_close
 0006:C01805A4       dev_addr_add
 0006:C0180610       dev_addr_del
 0006:C01806A8       dev_addr_add_multiple
 0006:C0180798       dev_addr_del_multiple
 0006:C0180838       dev_set_mtu
 0006:C01808B4       dev_set_mac_address
 0006:C0180924       rollback_registered
 0006:C0180B30       unregister_netdevice
 0006:C0180B94       unregister_netdev
 0006:C0180BB0       register_netdevice
 0006:C0180F5C       register_netdev
 0006:C0180FAC       dev_hard_start_xmit
 0006:C0181268       dev_queue_xmit
 0006:C0181534       netif_nit_deliver
 0006:C01815E0       __dev_set_rx_mode
 0006:C0181670       dev_unicast_delete
 0006:C01816DC       dev_unicast_add
 0006:C0181748       dev_unicast_sync
 0006:C0181828       dev_unicast_unsync
 0006:C01818C0       dev_set_rx_mode
 0006:C01818DC       dev_open
 0006:C01819EC       dev_set_promiscuity
 0006:C0181A24       dev_set_allmulti
 0006:C0181AD8       dev_change_flags
 0006:C0181C3C       dev_ifsioc
 0006:C0181EB4       __dev_addr_delete
 0006:C0181F5C       __dev_addr_add
 0006:C018204C       __dev_addr_sync
 0006:C018211C       __dev_addr_unsync
 0006:C0182198       dev_ioctl
 0006:C01827F0       netdev_run_todo
 0006:C0182A14       dev_change_net_namespace
 0006:C0182A7C       netdev_drivername
 0006:C0182AD0       ethtool_op_get_link
 0006:C0182AE4       ethtool_op_get_tx_csum
 0006:C0182AF8       ethtool_op_set_tx_csum
 0006:C0182B14       ethtool_op_set_tx_hw_csum
 0006:C0182B30       ethtool_op_set_tx_ipv6_csum
 0006:C0182B4C       ethtool_op_get_sg
 0006:C0182B58       ethtool_op_set_sg
 0006:C0182B74       ethtool_op_get_tso
 0006:C0182B80       ethtool_op_set_tso
 0006:C0182B9C       ethtool_op_get_ufo
 0006:C0182BAC       ethtool_op_set_ufo
 0006:C0182BC8       ethtool_op_get_flags
 0006:C0182BD4       ethtool_op_set_flags
 0006:C0182BF0       ethtool_set_value
 0006:C0182C64       ethtool_get_value
 0006:C0182CD4       __ethtool_set_sg
 0006:C0182D44       dev_ethtool
 0006:C0184910       dev_mc_delete
 0006:C0184960       dev_mc_add
 0006:C01849B0       dev_mc_sync
 0006:C01849F0       dev_mc_unsync
 0006:C0184A24       dev_mc_seq_open
 0006:C0184A34       dev_mc_seq_show
 0006:C0184AD0       dst_discard
 0006:C0184AE0       dst_alloc
 0006:C0184B90       dst_destroy
 0006:C0184CC8       dst_gc_task
 0006:C0184E50       dst_dev_event
 0006:C0185084       dst_release
 0006:C01850C0       __dst_free
 0006:C018516C       register_netevent_notifier
 0006:C018517C       unregister_netevent_notifier
 0006:C018518C       call_netevent_notifiers
 0006:C01851A4       pneigh_hash
 0006:C01851C0       neigh_suspect
 0006:C01851EC       neigh_get_first
 0006:C0185294       neigh_get_next
 0006:C0185348       pneigh_get_first
 0006:C0185384       neigh_stat_seq_start
 0006:C01853D0       neigh_stat_seq_next
 0006:C018540C       neigh_stat_seq_stop
 0006:C0185410       neigh_for_each
 0006:C0185468       neigh_seq_stop
 0006:C018546C       neigh_invalidate
 0006:C01854FC       neigh_blackhole
 0006:C018550C       neigh_fill_info
 0006:C01856C0       neigh_dump_info
 0006:C018580C       pneigh_queue_purge
 0006:C018584C       neigh_lookup
 0006:C0185900       neigh_lookup_nodev
 0006:C01859A4       neigh_proxy_process
 0006:C0185A94       neigh_connected_output
 0006:C0185B6C       neigh_hash_alloc
 0006:C0185BA4       neigh_hash_free
 0006:C0185BD8       neigh_compat_output
 0006:C0185C94       pneigh_enqueue
 0006:C0185D74       neigh_stat_seq_open
 0006:C0185DA4       neigh_stat_seq_show
 0006:C0185E40       neigh_sysctl_register
 0006:C0186048       neigh_sysctl_unregister
 0006:C018607C       neightbl_set
 0006:C018636C       neightbl_fill_parms
 0006:C0186634       pneigh_get_next.isra.16
 0006:C0186698       neigh_seq_next
 0006:C018671C       neigh_seq_start
 0006:C018684C       neigh_rand_reach_time
 0006:C0186870       neigh_parms_alloc
 0006:C0186960       neigh_table_init_no_netlink
 0006:C0186AF0       neigh_del_timer
 0006:C0186B54       neigh_destroy
 0006:C0186C98       __pneigh_lookup
 0006:C0186D00       neigh_add_timer
 0006:C0186D48       __neigh_event_send
 0006:C0186ED0       neigh_resolve_output
 0006:C0187120       neigh_parms_release
 0006:C01871C8       neigh_table_init
 0006:C0187228       neightbl_dump_info
 0006:C01876F8       __neigh_notify.constprop.27
 0006:C01877B0       neigh_timer_handler
 0006:C0187A54       neigh_cleanup_and_release
 0006:C0187AA8       neigh_flush_dev
 0006:C0187B54       neigh_changeaddr
 0006:C0187B78       neigh_ifdown
 0006:C0187C38       neigh_table_clear
 0006:C0187D00       neigh_create
 0006:C018816C       __neigh_for_each_release
 0006:C01881D8       neigh_periodic_timer
 0006:C018831C       neigh_rcu_free_parms
 0006:C0188344       neigh_update
 0006:C0188710       neigh_event_ns
 0006:C0188794       pneigh_lookup
 0006:C01888FC       neigh_add
 0006:C0188B9C       pneigh_delete
 0006:C0188C64       neigh_delete
 0006:C0188DC0       rtnl_is_locked
 0006:C0188DD8       __rtnl_link_register
 0006:C0188E14       __rtnl_kill_links
 0006:C0188E64       __rtnl_link_unregister
 0006:C0188ED0       validate_linkmsg
 0006:C0188F30       rtnl_lock
 0006:C0188F3C       rtnl_unlock
 0006:C0188F40       rtnl_link_register
 0006:C0188F64       rtnl_kill_links
 0006:C0188F88       rtnl_link_unregister
 0006:C0188FA4       rtnl_trylock
 0006:C0188FB0       __rta_fill
 0006:C0189000       rtnl_dump_all
 0006:C01890D4       rtnl_unicast
 0006:C01890F4       rtnl_notify
 0006:C018912C       rtnl_set_sk_err
 0006:C0189144       rtnetlink_put_metrics
 0006:C0189210       rtnl_put_cacheinfo
 0006:C01892B0       set_operstate
 0006:C0189318       rtnl_create_link
 0006:C0189408       rtnl_link_get_size
 0006:C0189478       rtnl_fill_ifinfo
 0006:C0189970       rtnl_dump_ifinfo
 0006:C0189A08       rtnl_dellink
 0006:C0189AD0       rtnl_link_ops_get
 0006:C0189B20       rtnl_getlink
 0006:C0189C4C       rtnetlink_net_exit
 0006:C0189C68       rtnetlink_net_init
 0006:C0189CB0       rtnetlink_rcv
 0006:C0189CD4       do_setlink
 0006:C0189FE8       rtnl_setlink
 0006:C018A0E4       __rtnl_register
 0006:C018A174       rtnl_register
 0006:C018A1A0       rtnl_unregister
 0006:C018A200       rtnl_unregister_all
 0006:C018A23C       __rtnl_unlock
 0006:C018A248       rtnl_newlink
 0006:C018A5E8       rtnetlink_rcv_msg
 0006:C018A7E0       rtnetlink_send
 0006:C018A860       rtmsg_ifinfo
 0006:C018A930       rtnetlink_event
 0006:C018A990       net_ratelimit
 0006:C018A99C       in_aton
 0006:C018AA14       in4_pton
 0006:C018AB7C       in6_pton
 0006:C018AE80       inet_proto_csum_replace4
 0006:C018AF38       linkwatch_urgent_event
 0006:C018AFA4       linkwatch_add_event
 0006:C018AFC8       linkwatch_schedule_work
 0006:C018B090       __linkwatch_run_queue
 0006:C018B20C       linkwatch_event
 0006:C018B240       linkwatch_fire_event
 0006:C018B2A8       linkwatch_run_queue
 0006:C018B2B0       __load_pointer
 0006:C018B300       sk_chk_filter
 0006:C018B54C       sk_run_filter
 0006:C018BC08       sk_filter
 0006:C018BC8C       sk_filter_rcu_release
 0006:C018BCB0       sk_filter_delayed_uncharge
 0006:C018BCE4       sk_attach_filter
 0006:C018BE4C       sk_detach_filter
 0006:C018BE84       flow_cache_flush_tasklet
 0006:C018BF38       flow_cache_new_hashrnd
 0006:C018BF70       __flow_cache_shrink.isra.3
 0006:C018C024       flow_cache_lookup
 0006:C018C378       flow_cache_flush
 0006:C018C3E8       change_tx_queue_len
 0006:C018C3F4       format_tx_queue_len
 0006:C018C40C       format_flags
 0006:C018C424       format_mtu
 0006:C018C43C       show_operstate
 0006:C018C484       show_dormant
 0006:C018C4B4       show_carrier
 0006:C018C4E8       format_link_mode
 0006:C018C4FC       format_type
 0006:C018C510       format_features
 0006:C018C528       format_ifindex
 0006:C018C540       format_iflink
 0006:C018C558       format_dev_id
 0006:C018C56C       format_addr_len
 0006:C018C580       change_flags
 0006:C018C584       change_mtu
 0006:C018C588       show_broadcast
 0006:C018C5B0       show_address
 0006:C018C5D8       netdev_class_create_file
 0006:C018C5E8       netdev_class_remove_file
 0006:C018C5F8       netdev_show.isra.2
 0006:C018C618       show_dev_id
 0006:C018C628       show_addr_len
 0006:C018C638       show_iflink
 0006:C018C648       show_ifindex
 0006:C018C658       show_features
 0006:C018C668       show_type_0
 0006:C018C678       show_link_mode
 0006:C018C688       show_mtu
 0006:C018C698       show_flags
 0006:C018C6A8       show_tx_queue_len
 0006:C018C6B8       netstat_show.isra.3
 0006:C018C728       show_tx_compressed
 0006:C018C734       show_rx_compressed
 0006:C018C740       show_tx_window_errors
 0006:C018C74C       show_tx_heartbeat_errors
 0006:C018C758       show_tx_fifo_errors
 0006:C018C764       show_tx_carrier_errors
 0006:C018C770       show_tx_aborted_errors
 0006:C018C77C       show_rx_missed_errors
 0006:C018C788       show_rx_fifo_errors
 0006:C018C794       show_rx_frame_errors
 0006:C018C7A0       show_rx_crc_errors
 0006:C018C7AC       show_rx_over_errors
 0006:C018C7B8       show_rx_length_errors
 0006:C018C7C4       show_collisions
 0006:C018C7D0       show_multicast
 0006:C018C7DC       show_tx_dropped
 0006:C018C7E8       show_rx_dropped
 0006:C018C7F4       show_tx_errors
 0006:C018C800       show_rx_errors
 0006:C018C80C       show_tx_bytes
 0006:C018C818       show_rx_bytes
 0006:C018C824       show_tx_packets
 0006:C018C830       show_rx_packets
 0006:C018C83C       netdev_release
 0006:C018C888       netdev_uevent
 0006:C018C8C8       netdev_store.isra.6
 0006:C018C988       store_tx_queue_len
 0006:C018C99C       store_flags
 0006:C018C9B0       store_mtu
 0006:C018C9C4       show_ifalias
 0006:C018CA40       store_ifalias
 0006:C018CAEC       netdev_unregister_kobject
 0006:C018CB08       netdev_register_kobject
 0006:C018CB54       netdev_initialize_kobject
 0006:C018CB5C       netdev_kobject_init
 0006:C018CB70       eth_change_mtu
 0006:C018CB90       eth_validate_addr
 0006:C018CBDC       eth_header_parse
 0006:C018CBF8       eth_header_cache
 0006:C018CC50       eth_header_cache_update
 0006:C018CC64       eth_mac_addr
 0006:C018CCE0       eth_header
 0006:C018CD8C       eth_rebuild_header
 0006:C018CDE8       eth_type_trans
 0006:C018CED8       ether_setup
 0006:C018CF28       alloc_etherdev_mq
 0006:C018CF40       _format_mac_addr
 0006:C018CFBC       sysfs_format_mac
 0006:C018CFF8       print_mac
 0006:C018D018       dev_trans_start
 0006:C018D068       noop_dequeue
 0006:C018D070       pfifo_fast_peek
 0006:C018D0AC       pfifo_fast_init
 0006:C018D0E8       pfifo_fast_dequeue
 0006:C018D178       pfifo_fast_enqueue
 0006:C018D240       pfifo_fast_reset
 0006:C018D2AC       noop_enqueue
 0006:C018D2BC       qdisc_reset
 0006:C018D2EC       qdisc_destroy
 0006:C018D398       pfifo_fast_dump
 0006:C018D414       dev_watchdog
 0006:C018D620       netif_carrier_off
 0006:C018D650       dev_deactivate_queue.constprop.14
 0006:C018D6A8       __qdisc_run
 0006:C018D8A0       __netdev_watchdog_up
 0006:C018D910       netif_carrier_on
 0006:C018D960       qdisc_alloc
 0006:C018DA14       qdisc_create_dflt
 0006:C018DA70       dev_activate
 0006:C018DBE4       dev_deactivate
 0006:C018DD4C       dev_init_scheduler
 0006:C018DDAC       dev_shutdown
 0006:C018DE38       nl_pid_hashfn
 0006:C018DEC0       netlink_update_listeners
 0006:C018DF48       netlink_update_subscriptions
 0006:C018DFC0       netlink_overrun
 0006:C018E020       netlink_set_err
 0006:C018E0CC       netlink_update_socket_mc
 0006:C018E170       netlink_getsockopt
 0006:C018E248       netlink_set_nonroot
 0006:C018E268       netlink_seq_socket_idx
 0006:C018E304       netlink_seq_start
 0006:C018E324       netlink_seq_next
 0006:C018E3D4       netlink_seq_stop
 0006:C018E3D8       netlink_data_ready
 0006:C018E3F0       netlink_broadcast
 0006:C018E7C4       netlink_table_ungrab
 0006:C018E7E0       netlink_destroy_callback
 0006:C018E7FC       __netlink_create
 0006:C018E894       netlink_sock_destruct
 0006:C018E938       netlink_dump
 0006:C018EADC       netlink_recvmsg
 0006:C018ED34       netlink_dump_start
 0006:C018EEB4       nl_pid_hash_rehash
 0006:C018F008       netlink_kernel_release
 0006:C018F00C       netlink_register_notifier
 0006:C018F01C       netlink_unregister_notifier
 0006:C018F02C       netlink_seq_open
 0006:C018F03C       netlink_seq_show
 0006:C018F0C4       netlink_create
 0006:C018F26C       netlink_has_listeners
 0006:C018F2F0       netlink_table_grab
 0006:C018F398       netlink_realloc_groups
 0006:C018F444       netlink_setsockopt
 0006:C018F618       netlink_release
 0006:C018F87C       netlink_clear_multicast_users
 0006:C018F8DC       netlink_change_ngroups
 0006:C018F994       netlink_insert.isra.21
 0006:C018FAE4       netlink_kernel_create
 0006:C018FC5C       netlink_autobind.isra.22
 0006:C018FD20       netlink_connect
 0006:C018FDF4       netlink_bind
 0006:C018FF30       netlink_getname
 0006:C018FF94       netlink_getsockbyfilp
 0006:C018FFE8       netlink_attachskb
 0006:C01901D8       netlink_sendskb
 0006:C019022C       netlink_unicast
 0006:C01904D8       nlmsg_notify
 0006:C019058C       netlink_sendmsg
 0006:C019080C       netlink_ack
 0006:C0190954       netlink_rcv_skb
 0006:C0190A08       netlink_detachskb
 0006:C0190A44       genl_family_find_byid
 0006:C0190A94       ctrl_fill_info
 0006:C0190E2C       ctrl_dumpfamily
 0006:C0190EFC       ctrl_build_family_msg
 0006:C0190F68       genl_family_find_byname
 0006:C0190FD8       genl_rcv
 0006:C019100C       genl_rcv_msg
 0006:C01911BC       ctrl_getfamily
 0006:C0191244       genl_ctrl_event
 0006:C019152C       genl_register_mc_group
 0006:C0191678       __genl_unregister_mc_group
 0006:C0191700       genl_unregister_mc_group
 0006:C0191734       genl_register_family
 0006:C01918B4       genl_unregister_family
 0006:C01919C0       genl_unregister_ops
 0006:C0191A4C       genl_register_ops
 0006:C0191B2C       genl_register_family_with_ops
 0006:C0191B88       dst_rcu_free
 0006:C0191BC0       rt_cpu_seq_start
 0006:C0191C08       rt_cpu_seq_next
 0006:C0191C3C       rt_cpu_seq_stop
 0006:C0191C40       ipv4_dst_check
 0006:C0191C48       ipv4_rt_blackhole_update_pmtu
 0006:C0191C4C       rt_cache_invalidate
 0006:C0191C88       rt_cache_get_first
 0006:C0191D0C       __rt_cache_get_next
 0006:C0191D84       rt_cache_seq_start
 0006:C0191E10       rt_cache_seq_stop
 0006:C0191E1C       ipv4_link_failure
 0006:C0191E74       rt_del
 0006:C0191EF0       ipv4_dst_ifdown
 0006:C0191F80       ipv4_dst_destroy
 0006:C0191FE0       ip_rt_bug
 0006:C0192024       ip_error
 0006:C01920E4       rt_secret_rebuild
 0006:C0192118       rt_cpu_seq_open
 0006:C0192128       rt_cpu_seq_show
 0006:C01921EC       rt_cache_seq_show
 0006:C019231C       rt_cache_seq_open
 0006:C019232C       rt_secret_reschedule
 0006:C01923E0       ipv4_sysctl_rt_secret_interval_strategy
 0006:C0192414       ipv4_sysctl_rt_secret_interval
 0006:C0192450       rt_may_expire.part.6
 0006:C01924EC       rt_worker_func
 0006:C0192758       ipv4_negative_advice
 0006:C019284C       ip_rt_update_pmtu
 0006:C01928D8       rt_set_nexthop.isra.11
 0006:C01929EC       rt_cache_flush.part.17
 0006:C0192A94       rt_fill_info.isra.15.constprop.19
 0006:C0192D6C       rt_garbage_collect
 0006:C0193064       rt_intern_hash
 0006:C01934BC       __ip_route_output_key
 0006:C0193E98       ip_route_output_flow
 0006:C01940AC       ip_route_output_key
 0006:C01940C4       ip_route_input
 0006:C0194DE0       inet_rtm_getroute
 0006:C0194FD0       rt_cache_seq_next
 0006:C019502C       rt_cache_flush
 0006:C0195048       ipv4_sysctl_rtcache_flush_strategy
 0006:C0195088       ipv4_sysctl_rtcache_flush
 0006:C0195114       rt_bind_peer
 0006:C0195154       __ip_select_ident
 0006:C01951F8       ip_rt_redirect
 0006:C0195700       ip_rt_send_redirect
 0006:C0195820       ip_rt_frag_needed
 0006:C0195AF0       ip_rt_get_source
 0006:C0195BDC       ip_rt_dump
 0006:C0195CF8       ip_rt_multicast_event
 0006:C0195D10       peer_avl_rebalance
 0006:C0195E38       inet_putpeer
 0006:C0195EA0       cleanup_once
 0006:C01960A0       peer_check_expire
 0006:C0196184       inet_getpeer
 0006:C0196380       inet_add_protocol
 0006:C01963B4       inet_del_protocol
 0006:C01963F0       ip_call_ra_chain
 0006:C01964CC       ip_local_deliver
 0006:C0196690       ip_rcv
 0006:C0196BB4       ipqhashfn
 0006:C0196C50       ip4_hashfn
 0006:C0196C68       ip4_frag_match
 0006:C0196CCC       ip4_frag_free
 0006:C0196CDC       ip4_frag_init
 0006:C0196D48       ipv4_frags_exit_net
 0006:C0196D78       ipv4_frags_init_net
 0006:C0196E34       ip_expire
 0006:C0196F0C       ip_defrag
 0006:C0197884       ip_frag_nqueues
 0006:C019788C       ip_frag_mem
 0006:C0197894       ip_forward
 0006:C0197BC4       ip_options_get_alloc
 0006:C0197BDC       ip_options_build
 0006:C0197D94       ip_options_echo
 0006:C01980B4       ip_options_fragment
 0006:C0198158       ip_options_compile
 0006:C01985F4       ip_options_get_finish
 0006:C019865C       ip_options_undo
 0006:C0198754       ip_options_get_from_user
 0006:C01987F8       ip_options_get
 0006:C0198854       ip_forward_options
 0006:C0198998       ip_options_rcv_srr
 0006:C0198B04       ip_send_check
 0006:C0198B64       ip_finish_output2
 0006:C0198D6C       ip_copy_metadata
 0006:C0198DFC       ip_fragment
 0006:C0199560       ip_finish_output
 0006:C01997C4       ip_reply_glue_bits
 0006:C0199818       ip_dev_loopback_xmit
 0006:C01998AC       ip_generic_getfrag
 0006:C019994C       __ip_local_out
 0006:C01999C4       ip_local_out
 0006:C01999EC       ip_build_and_send_pkt
 0006:C0199B4C       ip_queue_xmit
 0006:C0199E3C       ip_mc_output
 0006:C0199F28       ip_output
 0006:C0199F8C       ip_append_data
 0006:C019A8C8       ip_append_page
 0006:C019AD30       ip_push_pending_frames
 0006:C019B08C       ip_flush_pending_frames
 0006:C019B104       ip_send_reply
 0006:C019B2B4       ip_cmsg_recv
 0006:C019B498       do_ip_getsockopt
 0006:C019BA28       ip_getsockopt
 0006:C019BA2C       ip_cmsg_send
 0006:C019BB1C       ip_ra_control
 0006:C019BC54       do_ip_setsockopt.isra.10
 0006:C019C7F0       ip_setsockopt
 0006:C019C814       ip_icmp_error
 0006:C019C954       ip_local_error
 0006:C019CAC4       ip_recv_error
 0006:C019CCD0       __inet_inherit_port
 0006:C019CCFC       inet_hashinfo_init
 0006:C019CD40       __inet_lookup_listener
 0006:C019CEB4       __inet_lookup_established
 0006:C019D174       __inet_hash_nolisten
 0006:C019D28C       inet_unhash
 0006:C019D2E8       __inet_check_established
 0006:C019D564       inet_hash
 0006:C019D604       inet_bind_bucket_create
 0006:C019D654       inet_bind_bucket_destroy
 0006:C019D678       inet_put_port
 0006:C019D6E8       inet_bind_hash
 0006:C019D748       __inet_hash_connect
 0006:C019D968       inet_hash_connect
 0006:C019D9B4       inet_twsk_free
 0006:C019DA30       inet_twsk_put
 0006:C019DA54       __inet_twsk_hashdance
 0006:C019DB2C       inet_twsk_alloc
 0006:C019DC2C       __inet_twsk_kill
 0006:C019DC8C       inet_twdr_do_twkill_work
 0006:C019DD20       inet_twdr_hangman
 0006:C019DDA8       inet_twdr_twkill_work
 0006:C019DE3C       inet_twsk_deschedule
 0006:C019DE9C       inet_twsk_purge
 0006:C019DF2C       inet_twdr_twcal_tick
 0006:C019E054       inet_twsk_schedule
 0006:C019E1D0       inet_csk_addr2sockaddr
 0006:C019E1F0       inet_get_local_port_range
 0006:C019E230       inet_csk_bind_conflict
 0006:C019E2E8       inet_csk_search_req
 0006:C019E3FC       inet_csk_get_port
 0006:C019E6EC       inet_csk_accept
 0006:C019E8D0       inet_csk_init_xmit_timers
 0006:C019E938       inet_csk_clear_xmit_timers
 0006:C019E974       inet_csk_delete_keepalive_timer
 0006:C019E97C       inet_csk_reset_keepalive_timer
 0006:C019E994       inet_csk_reqsk_queue_hash_add
 0006:C019EA94       inet_csk_reqsk_queue_prune
 0006:C019EC90       inet_csk_route_req
 0006:C019EDA4       inet_csk_clone
 0006:C019EE1C       inet_csk_destroy_sock
 0006:C019EF38       inet_csk_listen_stop
 0006:C019F05C       inet_csk_listen_start
 0006:C019F104       tcp_poll
 0006:C019F268       tcp_ioctl
 0006:C019F3BC       tcp_splice_data_recv
 0006:C019F400       tcp_send_mss
 0006:C019F4D8       tcp_prequeue_process
 0006:C019F558       tcp_set_state
 0006:C019F66C       tcp_close
 0006:C019FA14       tcp_disconnect
 0006:C019FCFC       tcp_get_info
 0006:C019FEDC       tcp_gro_receive
 0006:C01A0154       tcp_enter_memory_pressure
 0006:C01A01A8       tcp_gro_complete
 0006:C01A01F8       tcp_done
 0006:C01A0278       tcp_getsockopt
 0006:C01A0574       tcp_tso_segment
 0006:C01A07F4       tcp_shutdown
 0006:C01A0848       sk_stream_alloc_skb
 0006:C01A0938       tcp_sendpage
 0006:C01A0F5C       tcp_sendmsg
 0006:C01A19CC       tcp_cleanup_rbuf
 0006:C01A1B14       tcp_read_sock
 0006:C01A1CF8       tcp_splice_read
 0006:C01A1EDC       tcp_recvmsg
 0006:C01A265C       tcp_setsockopt
 0006:C01A29E0       tcp_incr_quickack
 0006:C01A2A24       tcp_init_buffer_space
 0006:C01A2B98       tcp_initialize_rcv_mss
 0006:C01A2BD8       tcp_rcv_rtt_update
 0006:C01A2C14       tcp_verify_retransmit_hint
 0006:C01A2C60       tcp_sacktag_one
 0006:C01A2DFC       tcp_skb_seglen
 0006:C01A2E14       tcp_undo_cwr
 0006:C01A2EE8       tcp_try_undo_recovery
 0006:C01A3004       tcp_try_keep_open
 0006:C01A3074       tcp_check_space
 0006:C01A3160       tcp_rtt_estimator
 0006:C01A3284       tcp_enter_frto_loss
 0006:C01A3438       tcp_parse_options
 0006:C01A36C8       tcp_shifted_skb
 0006:C01A393C       __tcp_ack_snd_check
 0006:C01A39C4       tcp_reset
 0006:C01A3A18       tcp_match_skb_to_sack
 0006:C01A3B20       tcp_skb_mark_lost_uncond_verify
 0006:C01A3B60       tcp_sacktag_skip.isra.7
 0006:C01A3BC0       tcp_cwnd_down
 0006:C01A3C7C       tcp_try_undo_dsack
 0006:C01A3CC4       tcp_dsack_set
 0006:C01A3D2C       tcp_dsack_extend
 0006:C01A3D88       tcp_prune_ofo_queue
 0006:C01A3E44       tcp_collapse_one.isra.15
 0006:C01A3E9C       tcp_collapse
 0006:C01A4198       tcp_prune_queue
 0006:C01A43EC       tcp_parse_aligned_timestamp.part.17
 0006:C01A4430       tcp_urg
 0006:C01A4620       tcp_fin.isra.19
 0006:C01A47E8       tcp_update_reordering
 0006:C01A486C       tcp_check_reno_reordering
 0006:C01A48B0       tcp_add_reno_sack
 0006:C01A48FC       tcp_sacktag_walk
 0006:C01A4D40       tcp_sacktag_write_queue
 0006:C01A5670       tcp_ack_saw_tstamp.isra.11
 0006:C01A56BC       tcp_mark_head_lost
 0006:C01A5844       tcp_enter_quickack_mode
 0006:C01A5864       tcp_event_data_recv
 0006:C01A5B34       tcp_send_dupack
 0006:C01A5BC8       tcp_validate_incoming
 0006:C01A5E74       tcp_rcv_space_adjust
 0006:C01A5F7C       tcp_data_queue
 0006:C01A6B40       tcp_update_metrics
 0006:C01A6D3C       tcp_init_cwnd
 0006:C01A6D90       tcp_init_metrics
 0006:C01A6F64       tcp_enter_cwr
 0006:C01A7028       tcp_use_frto
 0006:C01A70E8       tcp_enter_frto
 0006:C01A730C       tcp_clear_retrans
 0006:C01A732C       tcp_enter_loss
 0006:C01A753C       tcp_simple_retransmit
 0006:C01A76BC       tcp_ack
 0006:C01A8F60       tcp_rcv_established
 0006:C01A9574       tcp_rcv_state_process
 0006:C01A9EE8       tcp_cwnd_application_limited
 0006:C01A9F74       tcp_select_initial_window
 0006:C01AA0C0       tcp_init_nondata_skb
 0006:C01AA104       tcp_set_skb_tso_segs
 0006:C01AA194       tcp_init_tso_segs
 0006:C01AA1D4       tcp_adjust_pcount
 0006:C01AA2FC       __pskb_trim_head
 0006:C01AA3D0       tcp_options_write
 0006:C01AA570       tcp_event_new_data_sent
 0006:C01AA5F0       tcp_make_synack
 0006:C01AA8A8       tcp_fragment
 0006:C01AAB6C       tcp_mtu_to_mss
 0006:C01AABB4       tcp_sync_mss
 0006:C01AAC30       tcp_mss_to_mtu
 0006:C01AAC58       tcp_mtup_init
 0006:C01AACB8       tcp_current_mss
 0006:C01AAD3C       tcp_trim_head
 0006:C01AAE6C       tcp_may_send_now
 0006:C01AAF9C       __tcp_select_window
 0006:C01AB0E4       tcp_transmit_skb
 0006:C01AB7A0       tcp_write_xmit
 0006:C01AC0F4       __tcp_push_pending_frames
 0006:C01AC190       tcp_push_one
 0006:C01AC1DC       tcp_connect
 0006:C01AC4F4       tcp_xmit_probe_skb
 0006:C01AC578       tcp_retransmit_skb
 0006:C01ACADC       tcp_xmit_retransmit_queue
 0006:C01ACCF0       tcp_send_fin
 0006:C01ACE50       tcp_send_active_reset
 0006:C01ACF64       tcp_send_synack
 0006:C01AD124       tcp_send_ack
 0006:C01AD1EC       tcp_send_delayed_ack
 0006:C01AD2AC       tcp_write_wakeup
 0006:C01AD418       tcp_send_probe0
 0006:C01AD4F0       tcp_init_xmit_timers
 0006:C01AD50C       tcp_write_err
 0006:C01AD550       tcp_keepalive_timer
 0006:C01AD75C       tcp_delack_timer
 0006:C01AD94C       tcp_out_of_resources
 0006:C01ADA7C       tcp_write_timer
 0006:C01AE030       tcp_set_keepalive
 0006:C01AE074       tcp_v4_connect
 0006:C01AE488       tcp_seq_stop
 0006:C01AE4DC       established_get_first
 0006:C01AE5B4       established_get_next
 0006:C01AE6C8       tcp_v4_send_check
 0006:C01AE76C       tcp_v4_reqsk_destructor
 0006:C01AE774       tcp_v4_send_reset
 0006:C01AE8F4       __tcp_v4_send_synack
 0006:C01AE9B4       tcp_v4_send_synack
 0006:C01AE9BC       tcp_v4_syn_recv_sock
 0006:C01AEB28       tcp_v4_do_rcv
 0006:C01AECBC       tcp_v4_remember_stamp
 0006:C01AED90       tcp_v4_destroy_sock
 0006:C01AEF10       tcp_proc_register
 0006:C01AEF9C       tcp4_proc_init_net
 0006:C01AEFA8       listening_get_next
 0006:C01AF134       tcp_get_idx
 0006:C01AF1D4       tcp_seq_start
 0006:C01AF204       tcp_seq_next
 0006:C01AF28C       tcp_seq_open
 0006:C01AF2C4       tcp_proc_unregister
 0006:C01AF2CC       tcp4_proc_exit_net
 0006:C01AF2D8       tcp4_seq_show
 0006:C01AF65C       tcp4_gro_receive
 0006:C01AF6F4       tcp4_gro_complete
 0006:C01AF750       tcp_v4_init_sock
 0006:C01AF854       tcp_twsk_unique
 0006:C01AF8EC       tcp_v4_send_ack.isra.26
 0006:C01AFA68       tcp_v4_reqsk_send_ack
 0006:C01AFAB4       tcp_v4_conn_request
 0006:C01AFECC       tcp_v4_err
 0006:C01B0280       tcp_v4_gso_send_check
 0006:C01B0324       tcp_v4_rcv
 0006:C01B09D4       tcp_v4_tw_remember_stamp
 0006:C01B0A54       tcp4_proc_exit
 0006:C01B0A60       tcp_twsk_destructor
 0006:C01B0A64       tcp_timewait_state_process
 0006:C01B0DCC       tcp_create_openreq_child
 0006:C01B10B0       tcp_check_req
 0006:C01B1430       tcp_child_process
 0006:C01B14E0       tcp_time_wait
 0006:C01B1630       tcp_unregister_congestion_control
 0006:C01B164C       tcp_is_cwnd_limited
 0006:C01B16BC       tcp_reno_ssthresh
 0006:C01B16D0       tcp_reno_min_cwnd
 0006:C01B16DC       tcp_ca_find
 0006:C01B1730       tcp_register_congestion_control
 0006:C01B17C8       tcp_slow_start
 0006:C01B186C       tcp_cong_avoid_ai
 0006:C01B189C       tcp_reno_cong_avoid
 0006:C01B1920       tcp_init_congestion_control
 0006:C01B19A0       tcp_cleanup_congestion_control
 0006:C01B19CC       tcp_set_default_congestion_control
 0006:C01B1A54       tcp_get_available_congestion_control
 0006:C01B1AD0       tcp_get_default_congestion_control
 0006:C01B1B08       tcp_get_allowed_congestion_control
 0006:C01B1B94       tcp_set_allowed_congestion_control
 0006:C01B1C74       tcp_set_congestion_control
 0006:C01B1D70       ip4_datagram_connect
 0006:C01B1F80       raw_get_first
 0006:C01B1FC4       raw_get_next
 0006:C01B1FF4       raw_seq_start
 0006:C01B2058       raw_seq_next
 0006:C01B2088       raw_seq_stop
 0006:C01B208C       raw_hash_sk
 0006:C01B20F4       raw_unhash_sk
 0006:C01B2178       raw_bind
 0006:C01B2200       raw_init
 0006:C01B2228       raw_recvmsg
 0006:C01B23C4       raw_destroy
 0006:C01B23E8       raw_sendmsg
 0006:C01B2AB4       raw_close
 0006:C01B2AD4       raw_seq_open
 0006:C01B2B04       raw_v4_seq_open
 0006:C01B2B18       raw_seq_show
 0006:C01B2BFC       __raw_v4_lookup.isra.8
 0006:C01B2C6C       raw_setsockopt
 0006:C01B2D24       raw_getsockopt
 0006:C01B2DF4       raw_ioctl
 0006:C01B2E70       raw_rcv_skb
 0006:C01B2EB8       raw_icmp_error
 0006:C01B3038       raw_rcv
 0006:C01B30F0       raw_local_deliver
 0006:C01B3210       udp_lib_hash
 0006:C01B3224       udp_lib_close
 0006:C01B3228       udplite_getfrag
 0006:C01B3238       ipv4_rcv_saddr_equal
 0006:C01B3264       udp_seq_stop
 0006:C01B3278       udp_get_first
 0006:C01B32D8       udp_get_next
 0006:C01B3334       udp_get_idx
 0006:C01B3384       udp_seq_start
 0006:C01B33B0       udp_seq_next
 0006:C01B33E8       udp_disconnect
 0006:C01B345C       udp_lib_setsockopt
 0006:C01B35CC       udp_push_pending_frames
 0006:C01B3898       first_packet_length
 0006:C01B3A00       udp_recvmsg
 0006:C01B3CAC       udp_lib_unhash
 0006:C01B3D44       __udp_queue_rcv_skb
 0006:C01B3DD0       udp_lib_getsockopt
 0006:C01B3EB0       udp_getsockopt
 0006:C01B3ECC       udp_poll
 0006:C01B3F18       udp_proc_register
 0006:C01B3FA4       udp4_proc_init_net
 0006:C01B3FB0       udp_seq_open
 0006:C01B3FEC       udp_proc_unregister
 0006:C01B3FF4       udp4_proc_exit_net
 0006:C01B4000       udp_lib_lport_inuse.isra.15
 0006:C01B40C4       udp_lib_get_port
 0006:C01B4284       udp_v4_get_port
 0006:C01B4290       __udp4_lib_lookup.isra.18
 0006:C01B4460       udp4_lib_lookup
 0006:C01B448C       udp_flush_pending_frames
 0006:C01B44AC       udp_destroy_sock
 0006:C01B44D0       udp_sendmsg
 0006:C01B4A38       udp_sendpage
 0006:C01B4B90       udp_ioctl
 0006:C01B4BEC       udp_setsockopt
 0006:C01B4C2C       udp4_seq_show
 0006:C01B4D5C       __udp4_lib_err
 0006:C01B4ECC       udp_err
 0006:C01B4ED8       udp_queue_rcv_skb
 0006:C01B50D8       __udp4_lib_rcv
 0006:C01B571C       udp_rcv
 0006:C01B572C       udp4_proc_exit
 0006:C01B5738       udp_lib_hash_0
 0006:C01B574C       udp_lib_close_0
 0006:C01B5750       udplite_sk_init
 0006:C01B5760       udplite_err
 0006:C01B576C       udplite_rcv
 0006:C01B577C       udplite4_proc_exit_net
 0006:C01B5788       udplite4_proc_init_net
 0006:C01B5794       arp_hash
 0006:C01B5828       arp_xmit
 0006:C01B582C       arp_error_report
 0006:C01B586C       arp_create
 0006:C01B5A1C       arp_seq_open
 0006:C01B5A2C       arp_seq_show
 0006:C01B5B98       arp_seq_start
 0006:C01B5BA8       arp_send
 0006:C01B5BF4       arp_solicit
 0006:C01B5DA4       arp_process
 0006:C01B63AC       parp_redo
 0006:C01B63B0       arp_rcv
 0006:C01B6494       arp_netdev_event
 0006:C01B64D0       arp_mc_map
 0006:C01B663C       arp_constructor
 0006:C01B67A0       arp_find
 0006:C01B694C       arp_bind_neighbour
 0006:C01B69C8       arp_ioctl
 0006:C01B6F28       arp_ifdown
 0006:C01B6F38       xrlim_allow
 0006:C01B6F84       icmp_address
 0006:C01B6F88       icmp_discard
 0006:C01B6F8C       icmp_address_reply
 0006:C01B70EC       icmp_unreach
 0006:C01B7334       icmp_push_reply
 0006:C01B7428       icmp_glue_bits
 0006:C01B7490       icmp_redirect
 0006:C01B7524       icmp_send
 0006:C01B799C       icmp_reply.constprop.9
 0006:C01B7AF8       icmp_echo
 0006:C01B7B58       icmp_timestamp
 0006:C01B7C48       icmp_out_count
 0006:C01B7C9C       icmp_rcv
 0006:C01B7F00       inet_select_addr
 0006:C01B7FF8       confirm_addr_indev
 0006:C01B8104       devinet_copy_dflt_conf
 0006:C01B8198       in_dev_finish_destroy
 0006:C01B821C       in_dev_rcu_put
 0006:C01B8244       inet_rcu_free_ifa
 0006:C01B828C       inetdev_by_index
 0006:C01B82D0       inet_alloc_ifa
 0006:C01B82E8       inet_fill_ifaddr
 0006:C01B8470       rtmsg_ifa
 0006:C01B853C       __inet_del_ifa
 0006:C01B8750       inet_del_ifa
 0006:C01B8768       inet_dump_ifaddr
 0006:C01B8848       __inet_insert_ifa
 0006:C01B89B0       inet_insert_ifa
 0006:C01B89BC       register_inetaddr_notifier
 0006:C01B89CC       unregister_inetaddr_notifier
 0006:C01B89DC       ipv4_doint_and_flush
 0006:C01B8A34       devinet_conf_sysctl
 0006:C01B8B68       ipv4_doint_and_flush_strategy
 0006:C01B8BA0       inet_rtm_deladdr
 0006:C01B8D04       inet_gifconf
 0006:C01B8DD8       __devinet_sysctl_register
 0006:C01B8EF0       devinet_sysctl_register
 0006:C01B8F44       inetdev_init
 0006:C01B905C       devinet_sysctl_forward
 0006:C01B91B0       devinet_conf_proc
 0006:C01B9224       __devinet_sysctl_unregister.isra.6
 0006:C01B9258       inet_rtm_newaddr
 0006:C01B941C       inetdev_event
 0006:C01B9800       inet_addr_onlink
 0006:C01B985C       inet_ifa_byprefix
 0006:C01B98DC       devinet_ioctl
 0006:C01B9FAC       inet_confirm_addr
 0006:C01BA028       snmp_fold_field
 0006:C01BA040       inet_sock_destruct
 0006:C01BA1B8       inet_listen
 0006:C01BA244       inet_shutdown
 0006:C01BA358       inet_accept
 0006:C01BA3FC       build_ehash_secret
 0006:C01BA440       inet_register_protosw
 0006:C01BA4FC       inet_release
 0006:C01BA568       inet_autobind
 0006:C01BA5D0       inet_dgram_connect
 0006:C01BA648       inet_sendmsg
 0006:C01BA6A4       inet_bind
 0006:C01BA83C       inet_stream_connect
 0006:C01BAAB8       inet_getname
 0006:C01BAB4C       inet_ioctl
 0006:C01BAC4C       inet_sendpage
 0006:C01BACD8       inet_sk_rebuild_header
 0006:C01BAF6C       inet_ctl_sock_create
 0006:C01BAFC0       snmp_mib_init
 0006:C01BB038       inet_gro_complete
 0006:C01BB0E4       inet_gso_send_check
 0006:C01BB1EC       inet_gro_receive
 0006:C01BB420       inet_gso_segment
 0006:C01BB600       inet_create
 0006:C01BB88C       inet_unregister_protosw
 0006:C01BB8DC       snmp_mib_free
 0006:C01BB91C       is_in
 0006:C01BBA6C       sf_markstate
 0006:C01BBAC0       ip_mc_clear_src
 0006:C01BBB1C       igmpv3_clear_zeros
 0006:C01BBB68       igmp_mc_get_next
 0006:C01BBC20       igmp_mc_seq_next
 0006:C01BBCF4       igmp_mc_seq_start
 0006:C01BBDEC       igmp_mc_seq_stop
 0006:C01BBE38       igmp_mcf_seq_stop
 0006:C01BBE9C       igmpv3_clear_delrec
 0006:C01BBF48       ip_mc_del1_src
 0006:C01BC088       igmpv3_newpack
 0006:C01BC230       add_grhead
 0006:C01BC2B4       igmpv3_sendpack
 0006:C01BC2F0       add_grec
 0006:C01BC6CC       igmpv3_send_report
 0006:C01BC780       igmp_gq_timer_expire
 0006:C01BC7B0       igmp_send_report
 0006:C01BC978       sf_setstate
 0006:C01BCAA8       igmp_net_exit
 0006:C01BCAD0       igmp_net_init
 0006:C01BCB38       igmp_mcf_seq_open
 0006:C01BCB48       igmp_mc_seq_open
 0006:C01BCB58       igmp_mcf_seq_show
 0006:C01BCC18       igmp_mc_seq_show
 0006:C01BCD6C       igmp_mcf_get_next.isra.5
 0006:C01BCE50       igmp_mcf_seq_next
 0006:C01BCF44       igmp_mcf_seq_start
 0006:C01BD058       ip_ma_put
 0006:C01BD0B4       igmp_start_timer
 0006:C01BD118       igmp_mod_timer
 0006:C01BD1A0       igmp_timer_expire
 0006:C01BD288       igmp_ifc_start_timer
 0006:C01BD2E4       igmp_ifc_timer_expire
 0006:C01BD508       igmp_ifc_event
 0006:C01BD594       ip_mc_rejoin_group
 0006:C01BD644       j_igmp_mod_timer
 0006:C01BD654       ip_mc_del_src
 0006:C01BD798       igmp_group_added
 0006:C01BD8B4       igmp_group_dropped
 0006:C01BDAD0       ip_mc_dec_group
 0006:C01BDB8C       ip_mc_add_src
 0006:C01BDD8C       ip_mc_inc_group
 0006:C01BDF94       ip_mc_leave_src
 0006:C01BE010       ip_mc_find_dev.constprop.12
 0006:C01BE0F4       ip_mc_join_group
 0006:C01BE1EC       igmp_rcv
 0006:C01BE70C       ip_mc_down
 0006:C01BE7D4       ip_mc_init_dev
 0006:C01BE868       ip_mc_up
 0006:C01BE8CC       ip_mc_destroy_dev
 0006:C01BE94C       ip_mc_leave_group
 0006:C01BEA28       ip_mc_source
 0006:C01BED6C       ip_mc_msfilter
 0006:C01BEF88       ip_mc_msfget
 0006:C01BF0F8       ip_mc_gsfget
 0006:C01BF274       ip_mc_sf_allow
 0006:C01BF340       ip_mc_drop_socket
 0006:C01BF3E8       ip_check_mc
 0006:C01BF488       fib_magic
 0006:C01BF55C       ip_dev_find
 0006:C01BF624       inet_addr_type
 0006:C01BF6F0       inet_dev_addr_type
 0006:C01BF7DC       inet_dump_fib
 0006:C01BF8C8       nl_fib_input
 0006:C01BFA08       rtm_to_fib_config.constprop.13
 0006:C01BFBD8       inet_rtm_newroute
 0006:C01BFC2C       inet_rtm_delroute
 0006:C01BFC80       fib_flush.constprop.14
 0006:C01BFCE8       fib_disable_ip
 0006:C01BFD1C       fib_select_default
 0006:C01BFD48       fib_validate_source
 0006:C01BFFC8       ip_rt_ioctl
 0006:C01C040C       fib_add_ifaddr
 0006:C01C053C       fib_inetaddr_event
 0006:C01C070C       fib_netdev_event
 0006:C01C07A4       fib_hash_free
 0006:C01C07D8       fib_hash_alloc
 0006:C01C080C       free_fib_info
 0006:C01C0870       fib_release_info
 0006:C01C0950       ip_fib_check_default
 0006:C01C09C0       fib_find_alias
 0006:C01C0A24       fib_detect_death
 0006:C01C0AD4       fib_nh_match
 0006:C01C0B3C       fib_create_info
 0006:C01C1414       fib_semantic_match
 0006:C01C152C       __fib_res_prefsrc
 0006:C01C1544       fib_dump_info
 0006:C01C1750       rtmsg_fib
 0006:C01C1874       fib_sync_down_addr
 0006:C01C1900       fib_sync_down_dev
 0006:C01C19E0       inet_frags_init_net
 0006:C01C1A0C       inet_frag_secret_rebuild
 0006:C01C1AC4       inet_frags_init
 0006:C01C1B50       inet_frags_fini
 0006:C01C1B58       inet_frag_destroy
 0006:C01C1C54       inet_frag_find
 0006:C01C1DEC       inet_frag_kill
 0006:C01C1EA0       inet_frag_evictor
 0006:C01C1F54       inet_frags_exit_net
 0006:C01C1F80       set_local_port_range
 0006:C01C1FB4       strategy_allowed_congestion_control
 0006:C01C2078       proc_allowed_congestion_control
 0006:C01C2134       proc_tcp_available_congestion_control
 0006:C01C21CC       sysctl_tcp_congestion_control
 0006:C01C225C       proc_tcp_congestion_control
 0006:C01C22E4       ipv4_sysctl_local_port_range
 0006:C01C23AC       ipv4_local_port_range
 0006:C01C2470       fib_get_first
 0006:C01C2568       fib_seq_stop
 0006:C01C256C       fn_hash_dump
 0006:C01C2718       fn_hash_select_default
 0006:C01C2928       fn_hash_flush
 0006:C01C2AB4       fib_find_node
 0006:C01C2B10       fn_hash_delete
 0006:C01C2D2C       fn_hash_lookup
 0006:C01C2DD8       fz_hash_alloc
 0006:C01C2E10       fn_hash_insert
 0006:C01C346C       fib_seq_open
 0006:C01C347C       fib_seq_show
 0006:C01C35F4       fib_get_next
 0006:C01C3768       fib_seq_next
 0006:C01C3794       fib_seq_start
 0006:C01C385C       fib_hash_table
 0006:C01C38E8       snmp_seq_open
 0006:C01C38F4       netstat_seq_open
 0006:C01C3900       sockstat_seq_open
 0006:C01C390C       netstat_seq_show
 0006:C01C3A20       sockstat_seq_show
 0006:C01C3B50       icmpmsg_put_line.part.0
 0006:C01C3BF4       snmp_seq_show
 0006:C01C4014       xfrm4_beet_output
 0006:C01C415C       xfrm4_beet_input
 0006:C01C4358       lro_get_desc
 0006:C01C4404       lro_tcp_ip_check
 0006:C01C44F8       lro_tcp_data_csum
 0006:C01C457C       lro_init_desc
 0006:C01C466C       lro_add_common
 0006:C01C472C       lro_gen_skb
 0006:C01C4848       lro_flush
 0006:C01C49C4       lro_flush_all
 0006:C01C4A08       lro_flush_pkt
 0006:C01C4A40       __lro_proc_skb
 0006:C01C4C74       lro_receive_skb
 0006:C01C4CC8       lro_vlan_hwaccel_receive_skb
 0006:C01C4CF8       __lro_proc_segment.isra.8
 0006:C01C5010       lro_receive_frags
 0006:C01C5060       lro_vlan_hwaccel_receive_frags
 0006:C01C5098       xfrm4_transport_input
 0006:C01C50EC       xfrm4_transport_output
 0006:C01C5164       xfrm4_mode_tunnel_output
 0006:C01C5248       xfrm4_mode_tunnel_input
 0006:C01C53C0       pnp_seq_open
 0006:C01C53D4       pnp_seq_show
 0006:C01C54C4       bictcp_recalc_ssthresh
 0006:C01C5528       bictcp_undo_cwnd
 0006:C01C5540       bictcp_init
 0006:C01C55D4       bictcp_state
 0006:C01C5644       bictcp_acked
 0006:C01C57B0       bictcp_cong_avoid
 0006:C01C5A9C       xfrm4_get_tos
 0006:C01C5AA4       xfrm4_init_path
 0006:C01C5AAC       xfrm4_fill_dst
 0006:C01C5BA4       xfrm4_garbage_collect
 0006:C01C5BD8       xfrm4_update_pmtu
 0006:C01C5BE8       _decode_session4
 0006:C01C5E7C       __xfrm4_find_bundle
 0006:C01C5F30       xfrm4_dst_lookup
 0006:C01C5F94       xfrm4_get_saddr
 0006:C01C5FD0       xfrm4_dst_destroy
 0006:C01C6054       xfrm4_dst_ifdown
 0006:C01C6140       xfrm4_init_flags
 0006:C01C6164       __xfrm4_init_tempsel
 0006:C01C62DC       xfrm4_extract_header
 0006:C01C6334       xfrm4_rcv_encap
 0006:C01C6350       xfrm4_rcv
 0006:C01C6364       xfrm4_extract_input
 0006:C01C636C       xfrm4_transport_finish
 0006:C01C6420       xfrm4_udp_encap_rcv
 0006:C01C65D0       xfrm4_prepare_output
 0006:C01C6620       xfrm4_extract_output
 0006:C01C669C       xfrm4_output
 0006:C01C66A8       xfrm_policy_walk_init
 0006:C01C66C8       __xfrm_policy_unlink
 0006:C01C6758       xfrm_dst_ifdown
 0006:C01C67C8       xfrm_link_failure
 0006:C01C67CC       prune_one_bundle
 0006:C01C6814       unused_bundle
 0006:C01C6824       policy_hash_bysel
 0006:C01C68DC       __xfrm_decode_session
 0006:C01C691C       xfrm_policy_alloc
 0006:C01C6998       xfrm_spd_getinfo
 0006:C01C69F4       xfrm_policy_walk
 0006:C01C6B18       xfrm_policy_walk_done
 0006:C01C6B58       xfrm_policy_register_afinfo
 0006:C01C6C20       xfrm_policy_unregister_afinfo
 0006:C01C6CA0       __xfrm_policy_link
 0006:C01C6D9C       xfrm_prune_bundles
 0006:C01C6E90       __xfrm_garbage_collect
 0006:C01C6E9C       xfrm_negative_advice
 0006:C01C6EC4       xfrm_policy_destroy
 0006:C01C6F20       xfrm_policy_gc_task
 0006:C01C6FF0       clone_policy
 0006:C01C70F8       xfrm_policy_kill
 0006:C01C7170       xfrm_policy_bysel_ctx
 0006:C01C726C       xfrm_policy_flush
 0006:C01C7370       xfrm_policy_fini
 0006:C01C7474       xfrm_policy_delete
 0006:C01C74DC       xfrm_policy_timer
 0006:C01C76AC       xfrm_policy_byid
 0006:C01C77A8       xfrm_hash_resize
 0006:C01C7A60       xfrm_dev_event
 0006:C01C7A90       xfrm_tmpl_resolve.constprop.36
 0006:C01C7CF4       xfrm_gen_index.constprop.39
 0006:C01C7D64       xfrm_policy_insert
 0006:C01C80B4       xfrm_selector_match
 0006:C01C8374       xfrm_sk_policy_lookup
 0006:C01C83D8       __xfrm_policy_check
 0006:C01C884C       xfrm_bundle_ok
 0006:C01C8AA4       stale_bundle
 0006:C01C8AD0       __xfrm_lookup
 0006:C01C94A0       xfrm_lookup
 0006:C01C94D8       __xfrm_route_forward
 0006:C01C953C       xfrm_dst_check
 0006:C01C9574       xfrm_policy_lookup
 0006:C01C9778       xfrm_sk_policy_insert
 0006:C01C97F8       __xfrm_sk_clone_policy
 0006:C01C985C       __xfrm_find_acq_byseq
 0006:C01C98D8       xfrm_state_walk_init
 0006:C01C98F8       km_policy_notify
 0006:C01C9950       km_state_notify
 0006:C01C99A0       km_query
 0006:C01C9A04       km_new_mapping
 0006:C01C9A68       km_report
 0006:C01C9AD8       xfrm_state_lock_afinfo
 0006:C01C9B18       xfrm_register_type
 0006:C01C9B5C       xfrm_unregister_type
 0006:C01C9BA4       xfrm_register_mode
 0006:C01C9C3C       xfrm_sad_getinfo
 0006:C01C9C70       xfrm_find_acq_byseq
 0006:C01C9C9C       xfrm_get_acqseq
 0006:C01C9CC8       xfrm_state_walk
 0006:C01C9DE0       xfrm_state_walk_done
 0006:C01C9E20       xfrm_register_km
 0006:C01C9E54       xfrm_unregister_km
 0006:C01C9E8C       xfrm_state_register_afinfo
 0006:C01C9EE8       xfrm_state_unregister_afinfo
 0006:C01C9F4C       xfrm_unregister_mode
 0006:C01C9FB8       xfrm_state_alloc
 0006:C01CA0B0       __xfrm_state_destroy
 0006:C01CA114       __xfrm_state_delete
 0006:C01CA200       xfrm_state_delete
 0006:C01CA224       xfrm_state_delete_tunnel
 0006:C01CA298       xfrm_state_flush
 0006:C01CA388       __xfrm_state_lookup
 0006:C01CA490       xfrm_state_lookup
 0006:C01CA4D8       __xfrm_state_lookup_byaddr
 0006:C01CA610       xfrm_state_lookup_byaddr
 0006:C01CA658       xfrm_stateonly_find
 0006:C01CA814       __xfrm_state_bump_genids
 0006:C01CA92C       xfrm_alloc_spi
 0006:C01CAB00       xfrm_user_policy
 0006:C01CAC54       xfrm_get_mode
 0006:C01CAD14       xfrm_init_state
 0006:C01CAEE0       xfrm_state_gc_task
 0006:C01CAFE0       xfrm_hash_resize_0
 0006:C01CB264       km_state_expired
 0006:C01CB2B0       xfrm_timer_handler
 0006:C01CB45C       xfrm_state_check_expire
 0006:C01CB534       km_policy_expired
 0006:C01CB580       xfrm_hash_grow_check.part.19
 0006:C01CB5A4       xfrm_state_look_at.isra.20
 0006:C01CB65C       __xfrm_state_insert
 0006:C01CB8B8       xfrm_state_insert
 0006:C01CB8DC       xfrm_state_update
 0006:C01CBB44       __find_acq_core
 0006:C01CBF18       xfrm_state_add
 0006:C01CC0E4       xfrm_find_acq
 0006:C01CC144       xfrm_state_find
 0006:C01CC808       xfrm_replay_notify
 0006:C01CC920       xfrm_replay_timer_handler
 0006:C01CC978       xfrm_replay_check
 0006:C01CC9E8       xfrm_replay_advance
 0006:C01CCA80       xfrm_state_mtu
 0006:C01CCADC       xfrm_state_fini
 0006:C01CCBD8       xfrm_hash_alloc
 0006:C01CCC38       xfrm_hash_free
 0006:C01CCC80       xfrm_prepare_input
 0006:C01CCD18       __secpath_destroy
 0006:C01CCD7C       secpath_dup
 0006:C01CCE1C       xfrm_parse_spi
 0006:C01CCF24       xfrm_input
 0006:C01CD228       xfrm_input_resume
 0006:C01CD234       xfrm_inner_extract_output
 0006:C01CD29C       xfrm_output_resume
 0006:C01CD4F8       xfrm_output
 0006:C01CD5B8       xfrm_alg_id_match
 0006:C01CD5CC       xfrm_aalg_get_byidx
 0006:C01CD5E8       xfrm_ealg_get_byidx
 0006:C01CD604       xfrm_count_auth_supported
 0006:C01CD638       xfrm_count_enc_supported
 0006:C01CD66C       xfrm_find_algo
 0006:C01CD704       xfrm_aalg_get_byid
 0006:C01CD720       xfrm_ealg_get_byid
 0006:C01CD73C       xfrm_calg_get_byid
 0006:C01CD758       xfrm_aalg_get_byname
 0006:C01CD774       xfrm_ealg_get_byname
 0006:C01CD790       xfrm_calg_get_byname
 0006:C01CD7AC       xfrm_aead_get_byname
 0006:C01CD7D8       xfrm_alg_name_match
 0006:C01CD838       xfrm_aead_name_match
 0006:C01CD884       xfrm_probe_algs
 0006:C01CD9A8       skb_icv_walk
 0006:C01CDBA0       xfrm_sysctl_fini
 0006:C01CDBBC       unix_peer_get
 0006:C01CDBE4       unix_ioctl
 0006:C01CDC9C       unix_poll
 0006:C01CDD30       unix_seq_stop
 0006:C01CDD34       unix_net_exit
 0006:C01CDD54       unix_net_init
 0006:C01CDDAC       unix_seq_open
 0006:C01CDDBC       unix_seq_show
 0006:C01CDEDC       unix_socketpair
 0006:C01CDF98       __unix_insert_socket
 0006:C01CDFF4       unix_listen
 0006:C01CE0B0       unix_wait_for_peer
 0006:C01CE15C       unix_dgram_poll
 0006:C01CE2C4       unix_getname
 0006:C01CE37C       unix_shutdown
 0006:C01CE4B8       unix_accept
 0006:C01CE570       unix_create1
 0006:C01CE694       unix_create
 0006:C01CE720       unix_sock_destructor
 0006:C01CE80C       __unix_remove_socket
 0006:C01CE874       unix_release_sock
 0006:C01CEA24       unix_release
 0006:C01CEA40       unix_seq_next
 0006:C01CEAE4       unix_write_space
 0006:C01CEB50       unix_detach_fds.isra.24
 0006:C01CEBA0       unix_dgram_recvmsg
 0006:C01CEDC0       unix_destruct_fds
 0006:C01CEE08       unix_mkname
 0006:C01CEE80       __unix_find_socket_byname.isra.28
 0006:C01CEEE8       unix_autobind
 0006:C01CF014       unix_bind
 0006:C01CF294       unix_attach_fds.isra.29
 0006:C01CF2F8       unix_stream_sendmsg
 0006:C01CF5E4       unix_find_other.isra.30
 0006:C01CF760       unix_stream_connect
 0006:C01CFB74       unix_dgram_disconnected
 0006:C01CFBDC       unix_dgram_connect
 0006:C01CFD4C       unix_dgram_sendmsg
 0006:C01D01A4       unix_seqpacket_sendmsg
 0006:C01D0210       unix_seq_start
 0006:C01D02DC       unix_stream_recvmsg
 0006:C01D076C       unix_get_socket
 0006:C01D07BC       scan_inflight
 0006:C01D08B8       dec_inflight
 0006:C01D08D4       inc_inflight
 0006:C01D08F0       inc_inflight_move_tail
 0006:C01D0948       scan_children
 0006:C01D0A04       unix_inflight
 0006:C01D0AA0       unix_notinflight
 0006:C01D0B1C       wait_for_unix_gc
 0006:C01D0BB4       unix_gc
 0006:C01D0E80       unix_sysctl_register
 0006:C01D0EE4       unix_sysctl_unregister
 0006:C01D0F00       packet_mm_open
 0006:C01D0F30       packet_mm_close
 0006:C01D0F60       packet_seq_start
 0006:C01D0FA8       packet_seq_stop
 0006:C01D0FAC       packet_net_exit
 0006:C01D0FB8       packet_net_init
 0006:C01D0FE8       packet_seq_open
 0006:C01D0FF8       packet_seq_show
 0006:C01D109C       packet_create
 0006:C01D1218       packet_rcv_spkt
 0006:C01D12D4       packet_rcv
 0006:C01D1580       packet_sock_destruct
 0006:C01D15E4       packet_recvmsg
 0006:C01D17AC       packet_sendmsg_spkt
 0006:C01D1948       packet_ioctl
 0006:C01D1A64       packet_getname
 0006:C01D1B0C       packet_getname_spkt
 0006:C01D1B90       packet_do_bind
 0006:C01D1C84       packet_bind_spkt
 0006:C01D1CFC       packet_bind
 0006:C01D1D90       free_pg_vec
 0006:C01D1DD4       packet_mmap
 0006:C01D1F40       packet_getsockopt
 0006:C01D2150       packet_seq_next
 0006:C01D217C       packet_dev_mc
 0006:C01D21E4       __packet_get_status
 0006:C01D224C       packet_lookup_frame
 0006:C01D22AC       packet_poll
 0006:C01D2330       __packet_set_status
 0006:C01D2390       tpacket_rcv
 0006:C01D2858       tpacket_destruct_skb
 0006:C01D2900       packet_sendmsg
 0006:C01D3058       packet_set_ring
 0006:C01D3370       packet_release
 0006:C01D355C       packet_setsockopt
 0006:C01D3B1C       packet_notifier
 0006:C01D3C7C       rpc_default_callback
 0006:C01D3C80       rpc_call_start
 0006:C01D3C90       rpc_peeraddr2str
 0006:C01D3CB0       rpc_setbufsize
 0006:C01D3CC8       rpc_max_payload
 0006:C01D3CD4       rpc_restart_call_prepare
 0006:C01D3CEC       rpc_restart_call
 0006:C01D3D04       rpcproc_encode_null
 0006:C01D3D0C       rpcproc_decode_null
 0006:C01D3D14       call_start
 0006:C01D3DC8       call_bind
 0006:C01D3E48       call_connect_status
 0006:C01D3EDC       rpc_peeraddr
 0006:C01D3F00       call_reserveresult
 0006:C01D3FE4       call_allocate
 0006:C01D416C       call_bind_status
 0006:C01D430C       call_refreshresult
 0006:C01D43B8       call_refresh
 0006:C01D4424       rpc_force_rebind
 0006:C01D4450       call_timeout
 0006:C01D4564       call_status
 0006:C01D46D0       rpc_setup_pipedir
 0006:C01D478C       rpc_run_task
 0006:C01D47F0       rpc_call_async
 0006:C01D4854       rpc_call_null
 0006:C01D48C4       rpc_call_sync
 0006:C01D4940       call_reserve
 0006:C01D49B4       call_connect
 0006:C01D4A44       call_transmit_status
 0006:C01D4AB8       call_transmit
 0006:C01D4D44       rpc_ping.constprop.10
 0006:C01D4DB0       rpc_clone_client
 0006:C01D4F14       call_decode
 0006:C01D556C       rpc_release_client
 0006:C01D55D4       rpc_shutdown_client
 0006:C01D56B8       rpc_create
 0006:C01D5AF8       rpc_bind_new_program
 0006:C01D5B90       rpc_free_client
 0006:C01D5C4C       rpc_free_auth
 0006:C01D5C90       rpc_show_tasks
 0006:C01D5DF4       xprt_set_retrans_timeout_def
 0006:C01D5E04       xprt_reset_majortimeo
 0006:C01D5E70       __xprt_get_cong
 0006:C01D5EE0       xprt_reserve_xprt
 0006:C01D5FB8       xprt_wait_for_buffer_space
 0006:C01D5FDC       xprt_init_autodisconnect
 0006:C01D6048       xprt_wake_pending_tasks
 0006:C01D605C       xprt_autoclose
 0006:C01D60B0       xprt_connect_status
 0006:C01D61B0       xprt_write_space
 0006:C01D620C       xprt_timer
 0006:C01D6284       xprt_set_retrans_timeout_rtt
 0006:C01D62F4       xprt_complete_rqst
 0006:C01D639C       xprt_update_rtt
 0006:C01D6420       xprt_destroy
 0006:C01D649C       xprt_register_transport
 0006:C01D6508       xprt_unregister_transport
 0006:C01D656C       xprt_load_transport
 0006:C01D65E8       xprt_clear_locked
 0006:C01D663C       xprt_reserve_xprt_cong
 0006:C01D672C       xprt_release_xprt
 0006:C01D67B4       __xprt_lock_write_next_cong
 0006:C01D6850       xprt_release_xprt_cong
 0006:C01D6874       xprt_adjust_cwnd
 0006:C01D6940       xprt_lookup_rqst
 0006:C01D69C0       xprt_disconnect_done
 0006:C01D6A1C       xprt_release_rqst_cong
 0006:C01D6A50       xprt_adjust_timeout
 0006:C01D6B24       xprt_force_disconnect
 0006:C01D6B90       xprt_conditional_disconnect
 0006:C01D6C24       xprt_connect
 0006:C01D6D2C       xprt_prepare_transmit
 0006:C01D6DA4       xprt_end_transmit
 0006:C01D6DD4       xprt_transmit
 0006:C01D6FA4       xprt_reserve
 0006:C01D70AC       xprt_release
 0006:C01D71E4       xprt_create_transport
 0006:C01D73B8       xprt_put
 0006:C01D73C4       xprt_get
 0006:C01D73D8       xdr_skb_read_bits
 0006:C01D742C       xdr_partial_copy_from_skb
 0006:C01D7600       csum_partial_copy_to_xdr
 0006:C01D7734       xdr_skb_read_and_csum_bits
 0006:C01D77C8       xs_nospace_callback
 0006:C01D7800       xs_udp_do_set_buffer_size
 0006:C01D7868       xs_udp_set_buffer_size
 0006:C01D7884       xs_error_report
 0006:C01D78D8       xs_sock_mark_closed
 0006:C01D790C       xs_tcp_setup_socket
 0006:C01D7C58       xs_tcp_connect_worker6
 0006:C01D7C6C       xs_tcp_connect_worker4
 0006:C01D7C80       xs_write_space
 0006:C01D7CD4       xs_tcp_write_space
 0006:C01D7CEC       xs_udp_write_space
 0006:C01D7D00       xs_connect
 0006:C01D7DD4       xs_tcp_connect
 0006:C01D7DEC       xs_tcp_data_ready
 0006:C01D7E60       xs_tcp_print_stats
 0006:C01D7F08       xs_udp_print_stats
 0006:C01D7F68       xs_send_kvec
 0006:C01D8000       xs_sendpages
 0006:C01D81E8       xs_nospace
 0006:C01D82B0       xs_tcp_send_request
 0006:C01D8438       xs_udp_send_request
 0006:C01D8570       xs_format_ipv4_peer_addresses
 0006:C01D86F8       xs_format_ipv6_peer_addresses
 0006:C01D8868       xs_udp_timer
 0006:C01D8870       xs_udp_data_ready
 0006:C01D89F4       xs_tcp_check_fraghdr
 0006:C01D8A30       xs_tcp_data_recv
 0006:C01D8FD0       xs_next_srcport.isra.6
 0006:C01D902C       xs_get_srcport.isra.10
 0006:C01D9084       xs_bind6
 0006:C01D9180       xs_create_tcp_sock6
 0006:C01D91F4       xs_bind4
 0006:C01D92F0       xs_create_tcp_sock4
 0006:C01D9364       xs_tcp_schedule_linger_timeout
 0006:C01D93B8       xs_tcp_state_change
 0006:C01D9624       xs_setup_xprt
 0006:C01D9740       xs_setup_tcp
 0006:C01D98D4       xs_setup_udp
 0006:C01D9A6C       xs_set_port
 0006:C01D9AD4       xs_tcp_release_xprt
 0006:C01D9B28       xs_reset_transport
 0006:C01D9B90       xs_close
 0006:C01D9C18       xs_destroy
 0006:C01D9CA0       xs_tcp_close
 0006:C01D9CD8       xs_udp_finish_connecting
 0006:C01D9D88       xs_udp_connect_worker6
 0006:C01D9E74       xs_udp_connect_worker4
 0006:C01D9F60       init_socket_xprt
 0006:C01D9FA8       cleanup_socket_xprt
 0006:C01D9FE8       __rpc_atrun
 0006:C01D9FF4       rpc_prepare_task
 0006:C01DA004       rpc_destroy_wait_queue
 0006:C01DA00C       __rpc_wait_for_completion_task
 0006:C01DA044       rpc_wait_bit_killable
 0006:C01DA08C       rpc_init_wait_queue
 0006:C01DA10C       rpc_exit_task
 0006:C01DA16C       rpc_malloc
 0006:C01DA1FC       rpc_free
 0006:C01DA260       rpc_set_active
 0006:C01DA2D8       rpc_wake_up_task_queue_locked
 0006:C01DA574       rpc_wake_up_queued_task
 0006:C01DA598       rpc_wake_up_next
 0006:C01DA730       rpc_wake_up
 0006:C01DA78C       rpc_wake_up_status
 0006:C01DA7F0       __rpc_queue_timer_fn
 0006:C01DA8C0       rpc_sleep_on
 0006:C01DAB5C       rpc_delay
 0006:C01DAB7C       rpc_killall_tasks
 0006:C01DAC24       rpc_init_priority_wait_queue
 0006:C01DACA4       rpc_release_calldata
 0006:C01DACB8       rpc_free_task
 0006:C01DAD1C       rpc_put_task
 0006:C01DADC4       __rpc_execute
 0006:C01DB054       rpc_async_schedule
 0006:C01DB05C       rpc_async_release
 0006:C01DB064       rpc_execute
 0006:C01DB094       rpc_new_task
 0006:C01DB264       rpciod_up
 0006:C01DB26C       rpciod_down
 0006:C01DB274       rpc_destroy_mempool
 0006:C01DB30C       rpc_init_mempool
 0006:C01DB42C       rpcauth_register
 0006:C01DB468       rpcauth_unregister
 0006:C01DB4A4       rpcauth_unhash_cred_locked
 0006:C01DB4E0       rpcauth_init_cred
 0006:C01DB544       rpcauth_init_credcache
 0006:C01DB594       put_rpccred
 0006:C01DB694       rpcauth_cache_shrinker
 0006:C01DB80C       rpcauth_lookup_credcache
 0006:C01DB9EC       rpcauth_generic_bind_cred
 0006:C01DBA40       rpcauth_release
 0006:C01DBA6C       rpcauth_create
 0006:C01DBB38       rpcauth_clear_credcache
 0006:C01DBC00       rpcauth_destroy_credcache
 0006:C01DBC2C       rpcauth_lookupcred
 0006:C01DBCFC       rpcauth_bindcred
 0006:C01DBDC0       rpcauth_unbindcred
 0006:C01DBE14       rpcauth_marshcred
 0006:C01DBE70       rpcauth_checkverf
 0006:C01DBECC       rpcauth_wrap_req
 0006:C01DBF5C       rpcauth_unwrap_resp
 0006:C01DBFEC       rpcauth_refreshcred
 0006:C01DC048       rpcauth_invalcred
 0006:C01DC0AC       rpcauth_uptodatecred
 0006:C01DC0C8       nul_create
 0006:C01DC0EC       nul_destroy
 0006:C01DC0F0       nul_lookup_cred
 0006:C01DC118       nul_destroy_cred
 0006:C01DC11C       nul_match
 0006:C01DC124       nul_marshal
 0006:C01DC140       nul_refresh
 0006:C01DC164       nul_validate
 0006:C01DC1C0       unx_refresh
 0006:C01DC1E4       unx_create
 0006:C01DC230       unx_validate
 0006:C01DC2AC       unx_marshal
 0006:C01DC3C0       unx_destroy_cred
 0006:C01DC3D0       unx_free_cred_callback
 0006:C01DC408       unx_create_cred
 0006:C01DC4D8       unx_lookup_cred
 0006:C01DC4DC       unx_destroy
 0006:C01DC514       unx_match
 0006:C01DC598       rpc_lookup_cred
 0006:C01DC5A8       generic_bind_cred
 0006:C01DC5DC       rpc_lookup_machine_cred
 0006:C01DC63C       generic_destroy_cred
 0006:C01DC64C       generic_free_cred_callback
 0006:C01DC6B8       generic_create_cred
 0006:C01DC7A8       generic_lookup_cred
 0006:C01DC7B4       generic_match
 0006:C01DC878       svc_max_payload
 0006:C01DC898       param_set_pool_mode
 0006:C01DC964       svc_printk
 0006:C01DC9C0       svc_process
 0006:C01DD1B8       param_get_pool_mode
 0006:C01DD220       svc_unregister.isra.10
 0006:C01DD318       __svc_create
 0006:C01DD4F8       svc_create
 0006:C01DD504       svc_destroy
 0006:C01DD654       svc_exit_thread
 0006:C01DD6F4       svc_prepare_thread
 0006:C01DD818       svc_set_num_threads
 0006:C01DDA54       svc_pool_map_alloc_arrays.constprop.13
 0006:C01DDAAC       svc_create_pooled
 0006:C01DDBFC       svc_pool_for_cpu
 0006:C01DDC58       svc_register
 0006:C01DDE04       svc_udp_prep_reply_hdr
 0006:C01DDE08       svc_tcp_prep_reply_hdr
 0006:C01DDE28       svc_sock_update_bufs
 0006:C01DDEAC       svc_one_sock_name
 0006:C01DDF70       svc_sock_names
 0006:C01DE040       svc_sock_free
 0006:C01DE098       svc_sock_destroy
 0006:C01DE0A4       svc_sock_detach
 0006:C01DE118       svc_release_skb
 0006:C01DE16C       svc_sendto
 0006:C01DE3E0       svc_udp_sendto
 0006:C01DE40C       svc_recvfrom
 0006:C01DE4A0       svc_udp_accept
 0006:C01DE4B8       svc_write_space
 0006:C01DE554       svc_tcp_write_space
 0006:C01DE5A0       svc_udp_data_ready
 0006:C01DE644       svc_tcp_data_ready
 0006:C01DE6CC       svc_tcp_state_change
 0006:C01DE76C       svc_tcp_listen_data_ready
 0006:C01DE814       svc_tcp_sendto
 0006:C01DE8E0       svc_udp_has_wspace
 0006:C01DE964       svc_tcp_has_wspace
 0006:C01DE9CC       svc_sock_setbufsize.isra.8
 0006:C01DEA28       svc_udp_recvfrom
 0006:C01DED74       svc_setup_socket
 0006:C01DF0F4       svc_create_socket
 0006:C01DF328       svc_udp_create
 0006:C01DF350       svc_tcp_create
 0006:C01DF378       svc_tcp_accept
 0006:C01DF6AC       svc_addsock
 0006:C01DF800       svc_tcp_recvfrom
 0006:C01DFB8C       svc_sock_create
 0006:C01DFC50       svc_tcp_sock_detach
 0006:C01DFCA0       svc_init_xprt_sock
 0006:C01DFCC0       svc_cleanup_xprt_sock
 0006:C01DFCE0       svc_set_client
 0006:C01DFCEC       svc_auth_register
 0006:C01DFD1C       svc_auth_unregister
 0006:C01DFD34       svc_authenticate
 0006:C01DFE08       auth_domain_lookup
 0006:C01DFED0       auth_domain_find
 0006:C01DFED8       auth_domain_put
 0006:C01DFF30       svc_authorise
 0006:C01DFF68       auth_unix_forget_old
 0006:C01DFF90       unix_gid_match
 0006:C01DFFA8       unix_gid_init
 0006:C01DFFB4       unix_gid_update
 0006:C01DFFD4       ip_map_put
 0006:C01E0008       svcauth_unix_domain_release
 0006:C01E0024       ip_map_alloc
 0006:C01E0038       unix_gid_alloc
 0006:C01E004C       unix_domain_find
 0006:C01E0110       update
 0006:C01E0138       ip_map_init
 0006:C01E0170       ip_map_match
 0006:C01E01E0       ip_map_show
 0006:C01E02A8       unix_gid_show
 0006:C01E0354       unix_gid_lookup
 0006:C01E0388       ip_map_lookup
 0006:C01E0460       ip_map_update
 0006:C01E0590       ip_map_parse
 0006:C01E0810       ip_map_request
 0006:C01E089C       unix_gid_request
 0006:C01E08EC       auth_unix_lookup
 0006:C01E09B4       svcauth_unix_purge
 0006:C01E09C0       svcauth_unix_accept
 0006:C01E0C70       unix_gid_parse
 0006:C01E0EF0       unix_gid_put
 0006:C01E0F44       svcauth_null_release
 0006:C01E0FA0       svcauth_unix_release
 0006:C01E0FFC       svcauth_unix_set_client
 0006:C01E11C0       svcauth_null_accept
 0006:C01E1300       auth_unix_add_addr
 0006:C01E1354       svcauth_unix_info_release
 0006:C01E1384       rpcb_getport_done
 0006:C01E1450       rpcb_decode_getport
 0006:C01E1498       rpcb_decode_set
 0006:C01E14F4       rpcb_decode_getaddr
 0006:C01E1604       rpcb_encode_mapping
 0006:C01E16C0       rpcb_create
 0006:C01E174C       rpcb_getport_sync
 0006:C01E1844       rpcb_encode_getaddr
 0006:C01E18E0       rpcb_getport_async
 0006:C01E1CD8       rpcb_register_call
 0006:C01E1DC4       rpcb_map_release
 0006:C01E1E08       rpcb_register
 0006:C01E1ECC       rpcb_v4_register
 0006:C01E20AC       rpc_init_rtt
 0006:C01E20E4       rpc_update_rtt
 0006:C01E2144       rpc_calc_rto
 0006:C01E217C       xdr_encode_pages
 0006:C01E21E4       xdr_inline_pages
 0006:C01E2224       xdr_init_decode
 0006:C01E2250       xdr_buf_from_iov
 0006:C01E228C       xdr_buf_subsegment
 0006:C01E2394       xdr_decode_netobj
 0006:C01E23C8       xdr_decode_string_inplace
 0006:C01E2404       xdr_encode_netobj
 0006:C01E2464       _copy_from_pages
 0006:C01E24FC       __read_bytes_from_xdr_buf
 0006:C01E257C       read_bytes_from_xdr_buf
 0006:C01E25C0       xdr_decode_word
 0006:C01E25FC       xdr_buf_read_netobj
 0006:C01E26C0       xdr_reserve_space
 0006:C01E2720       xdr_inline_decode
 0006:C01E275C       xdr_encode_opaque_fixed
 0006:C01E27AC       xdr_encode_opaque
 0006:C01E27C4       xdr_encode_string
 0006:C01E27EC       xdr_init_encode
 0006:C01E28AC       _copy_to_pages
 0006:C01E2958       xdr_shrink_bufhead
 0006:C01E2BC8       xdr_shift_buf
 0006:C01E2BCC       xdr_read_pages
 0006:C01E2CF4       xdr_enter_page
 0006:C01E2D54       xdr_process_buf
 0006:C01E2F44       xdr_write_pages
 0006:C01E2FE4       write_bytes_to_xdr_buf
 0006:C01E3088       xdr_encode_word
 0006:C01E30B4       xdr_xcode_array2
 0006:C01E35BC       xdr_decode_array2
 0006:C01E35D8       xdr_encode_array2
 0006:C01E3618       cache_revisit_request
 0006:C01E370C       cache_poll
 0006:C01E3784       cache_ioctl
 0006:C01E3B84       c_start_0
 0006:C01E3C30       c_next_0
 0006:C01E3CE8       c_stop_0
 0006:C01E3CEC       cache_fresh_locked
 0006:C01E3D24       sunrpc_cache_lookup
 0006:C01E3E4C       queue_loose
 0006:C01E3EFC       cache_clean
 0006:C01E40EC       cache_release
 0006:C01E419C       do_cache_clean
 0006:C01E41E8       content_open
 0006:C01E421C       cache_open
 0006:C01E42AC       cache_write
 0006:C01E439C       cache_read
 0006:C01E45D0       read_flush
 0006:C01E4690       remove_cache_proc_entries
 0006:C01E4714       cache_flush
 0006:C01E4744       cache_purge
 0006:C01E476C       write_flush
 0006:C01E485C       cache_fresh_unlocked
 0006:C01E48AC       cache_check
 0006:C01E4CA4       c_show_0
 0006:C01E4D78       cache_register
 0006:C01E4EE4       cache_unregister
 0006:C01E4F78       sunrpc_cache_update
 0006:C01E5140       cache_clean_deferred
 0006:C01E5228       rpc_pipe_poll
 0006:C01E5288       rpc_pipe_ioctl
 0006:C01E52E8       rpc_delete_dentry
 0006:C01E52F0       rpc_queue_upcall
 0006:C01E53A8       rpc_get_sb
 0006:C01E53B8       rpc_destroy_inode
 0006:C01E53CC       rpc_alloc_inode
 0006:C01E53E0       rpc_get_inode
 0006:C01E5458       rpc_pipe_open
 0006:C01E54F4       rpc_pipe_write
 0006:C01E5550       rpc_pipe_read
 0006:C01E5668       rpc_info_release
 0006:C01E5698       rpc_info_open
 0006:C01E570C       rpc_show_info
 0006:C01E57B4       init_once_8
 0006:C01E583C       rpc_purge_list.part.1
 0006:C01E58A8       rpc_pipe_release
 0006:C01E59E4       rpc_populate.constprop.2
 0006:C01E5B18       rpc_fill_super
 0006:C01E5BB0       rpc_depopulate.constprop.3
 0006:C01E5CF4       rpc_timeout_upcall_queue
 0006:C01E5D78       rpc_unlink
 0006:C01E5F34       rpc_mkpipe
 0006:C01E60E4       rpc_get_mount
 0006:C01E6110       rpc_put_mount
 0006:C01E6124       rpc_mkdir
 0006:C01E63AC       rpc_rmdir
 0006:C01E6444       register_rpc_pipefs
 0006:C01E64B0       unregister_rpc_pipefs
 0006:C01E64D4       svc_deferred_dequeue
 0006:C01E654C       svc_unreg_xprt_class
 0006:C01E6598       svc_pool_stats_next
 0006:C01E661C       svc_pool_stats_start
 0006:C01E6694       svc_reg_xprt_class
 0006:C01E6738       svc_xprt_put
 0006:C01E6748       svc_xprt_free
 0006:C01E6794       svc_xprt_init
 0006:C01E6820       svc_xprt_names
 0006:C01E68FC       svc_wake_up
 0006:C01E6980       svc_find_xprt
 0006:C01E6A48       svc_defer
 0006:C01E6B30       svc_pool_stats_open
 0006:C01E6B5C       svc_pool_stats_show
 0006:C01E6BBC       svc_pool_stats_stop
 0006:C01E6BC4       svc_print_addr
 0006:C01E6C50       svc_create_xprt
 0006:C01E6E44       svc_xprt_copy_addrs
 0006:C01E6E98       svc_xprt_enqueue
 0006:C01E713C       svc_xprt_received
 0006:C01E7188       svc_reserve
 0006:C01E71D0       svc_xprt_release
 0006:C01E7274       svc_drop
 0006:C01E72AC       svc_age_temp_xprts
 0006:C01E740C       svc_revisit
 0006:C01E74CC       svc_print_xprts
 0006:C01E7554       svc_port_is_privileged
 0006:C01E758C       svc_send
 0006:C01E7624       svc_delete_xprt
 0006:C01E770C       svc_recv
 0006:C01E7E84       svc_close_xprt
 0006:C01E7EF8       svc_close_all
 0006:C01E7F90       rpc_print_iostats
 0006:C01E80F0       svc_seq_show
 0006:C01E81D8       rpc_proc_show
 0006:C01E82B4       rpc_alloc_iostats
 0006:C01E82D8       rpc_free_iostats
 0006:C01E82DC       rpc_proc_open
 0006:C01E82F4       rpc_proc_unregister
 0006:C01E8304       svc_proc_unregister
 0006:C01E8314       rpc_count_iostats
 0006:C01E8408       rpc_proc_init
 0006:C01E8460       rpc_proc_register
 0006:C01E84C4       svc_proc_register
 0006:C01E8528       rpc_proc_exit
 0006:C01E8584       proc_dodebug
 0006:C01E87D8       proc_do_xprt
 0006:C01E8850       rpc_register_sysctl
 0006:C01E887C       rpc_unregister_sysctl
 0006:C01E88A4       net_ctl_header_lookup
 0006:C01E88B0       is_seen
 0006:C01E88DC       net_ctl_ro_header_perms
 0006:C01E88E4       sysctl_net_init
 0006:C01E8908       register_net_sysctl_table
 0006:C01E8968       register_net_sysctl_rotable
 0006:C01E8984       unregister_net_sysctl_table
 0006:C01E8988       net_ctl_permissions
 0006:C01E89B8       sysctl_net_exit
 0006:C01E89D8       klist_init
 0006:C01E89E4       klist_node_attached
 0006:C01E89F4       klist_iter_init_node
 0006:C01E8A08       klist_next
 0006:C01E8AA8       klist_iter_init
 0006:C01E8AB8       klist_release
 0006:C01E8B6C       klist_put
 0006:C01E8BE0       klist_del
 0006:C01E8BE8       klist_remove
 0006:C01E8C64       klist_iter_exit
 0006:C01E8C90       klist_node_init
 0006:C01E8CE4       klist_add_head
 0006:C01E8D14       klist_add_tail
 0006:C01E8D48       klist_add_after
 0006:C01E8D80       klist_add_before
 0006:C01E8DBC       rest_init
 0006:C01E8E24       zone_wait_table_init
 0006:C01E8EE8       alloc_node_mem_map.constprop.40
 0006:C01E8F68       setup_cpu_cache
 0006:C01E90AC       proc_net_ns_exit
 0006:C01E90D0       loopback_net_exit
 0006:C01E90D8       proto_exit_net
 0006:C01E90E4       sysctl_core_net_exit
 0006:C01E9120       netdev_exit
 0006:C01E913C       dev_proc_net_exit
 0006:C01E9174       default_device_exit
 0006:C01E9240       dev_mc_net_exit
 0006:C01E924C       netlink_net_exit
 0006:C01E9258       rt_secret_timer_exit
 0006:C01E9260       sysctl_route_net_exit
 0006:C01E92A0       ip_rt_do_proc_exit
 0006:C01E92DC       tcp_sk_exit
 0006:C01E930C       raw_exit_net
 0006:C01E9318       arp_net_exit
 0006:C01E9324       icmp_sk_exit
 0006:C01E934C       devinet_exit_net
 0006:C01E938C       ipv4_mib_exit_net
 0006:C01E93D0       ip_fib_net_exit
 0006:C01E9448       fib_net_exit
 0006:C01E9470       ipv4_sysctl_exit_net
 0006:C01E948C       fib_proc_exit
 0006:C01E9498       ip_proc_exit_net
 0006:C01E94D0       xfrm_net_exit
 0006:C01E94F0       smc_drv_probe
 0006:C01E9D8C       smc_drv_remove
 0006:C01E9E20       run_init_process
 0006:C01E9E34       init_post
 0006:C01E9F2C       dump_stack
 0006:C01E9F38       __do_kernel_fault.part.2
 0006:C01E9F9C       panic
 0006:C01EA098       printk
 0006:C01EA0C0       module_alloc_update_bounds
 0006:C01EA104       section_objs
 0006:C01EA138       section_addr
 0006:C01EA158       oom_kill_task
 0006:C01EA220       add_swap_extent
 0006:C01EA2E0       init_list
 0006:C01EA3D0       set_brk
 0006:C01EA464       elf_map
 0006:C01EA59C       dump_seek
 0006:C01EA648       nfsiod_stop
 0006:C01EA668       cfq_slab_kill
 0006:C01EA69C       scrdown
 0006:C01EA768       restore_cur
 0006:C01EA820       brd_free
 0006:C01EA84C       smc_release_attrib
 0006:C01EA88C       input_proc_exit
 0006:C01EA8CC       netdev_create_hash
 0006:C01EA908       arp_ignore
 0006:C01EA990       __sched_text_start
 0006:C01EAAE4       wait_for_completion
 0006:C01EAB00       wait_for_completion_timeout
 0006:C01EAB18       wait_for_completion_interruptible
 0006:C01EAB44       wait_for_completion_interruptible_timeout
 0006:C01EAB5C       wait_for_completion_killable
 0006:C01EAB88       sleep_on_common
 0006:C01EAC24       interruptible_sleep_on
 0006:C01EAC40       interruptible_sleep_on_timeout
 0006:C01EAC5C       sleep_on
 0006:C01EAC78       sleep_on_timeout
 0006:C01EAC94       schedule
 0006:C01EAF7C       _cond_resched
 0006:C01EAFC0       cond_resched_softirq
 0006:C01EB028       io_schedule
 0006:C01EB068       yield
 0006:C01EB094       io_schedule_timeout
 0006:C01EB0D4       console_conditional_schedule
 0006:C01EB0EC       schedule_timeout
 0006:C01EB20C       schedule_timeout_interruptible
 0006:C01EB228       schedule_timeout_killable
 0006:C01EB244       schedule_timeout_uninterruptible
 0006:C01EB260       __wait_on_bit
 0006:C01EB304       out_of_line_wait_on_bit
 0006:C01EB388       __wait_on_bit_lock
 0006:C01EB424       out_of_line_wait_on_bit_lock
 0006:C01EB4A8       mutex_trylock
 0006:C01EB4C8       __mutex_lock_interruptible_slowpath
 0006:C01EB5A0       mutex_lock_interruptible
 0006:C01EB5C0       __mutex_lock_killable_slowpath
 0006:C01EB6A8       mutex_lock_killable
 0006:C01EB6C8       __mutex_unlock_slowpath
 0006:C01EB6F0       mutex_unlock
 0006:C01EB708       __mutex_lock_slowpath
 0006:C01EB7BC       mutex_lock
 0006:C01EB7D4       do_nanosleep
 0006:C01EB8B8       hrtimer_nanosleep_restart
 0006:C01EB928       schedule_hrtimeout_range
 0006:C01EBA70       schedule_hrtimeout
 0006:C01EBA7C       down_read
 0006:C01EBA80       down_write
 0006:C01EBA84       __down
 0006:C01EBAFC       __down_interruptible
 0006:C01EBB9C       __down_timeout
 0006:C01EBC28       __down_killable
 0006:C01EBCE8       __up.isra.0
 0006:C01EBD18       rt_mutex_trylock
 0006:C01EBD68       __rt_mutex_slowlock
 0006:C01EBE50       rt_mutex_slowlock
 0006:C01EBF7C       rt_mutex_lock
 0006:C01EBF8C       rt_mutex_lock_interruptible
 0006:C01EBF9C       rt_mutex_unlock
 0006:C01EC0D8       __down_read
 0006:C01EC18C       __down_write_nested
 0006:C01EC23C       __down_write
 0006:C01EC244       __sched_text_end
 0006:C01EC248       __lock_text_start
 0006:C01ECC34       __param_str_initcall_debug
 0006:C01ECC44       setup_max_cpus
 0006:C01ECC48       linux_proc_banner
 0006:C01ECCA6       linux_banner
 0006:C01ECD38       processor_modes
 0006:C01ECDB8       isa_modes
 0006:C01ECDC8       hwcap_str
 0006:C01ECE08       proc_arch
 0006:C01ECE4C       cpuinfo_op
 0006:C01ECE5C       sigreturn_codes
 0006:C01ECE78       handler
 0006:C01ECE88       __func__.16074
 0006:C01ECE98       __func__.15904
 0006:C01ECEA4       __func__.16031
 0006:C01ECEB8       usermode_action
 0006:C01ECED0       subset.15698
 0006:C01ECEF0       subset.15708
 0006:C01ECF08       __func__.9655
 0006:C01ECF19       __func__.9662
 0006:C01ECF2B       __func__.9685
 0006:C01ECF37       __func__.9678
 0006:C01ECF48       aCC
 0006:C01ECF68       float32Constant
 0006:C01ECF88       float64Constant
 0006:C01ECFC8       countLeadingZerosHigh.5332
 0006:C01ED0C8       sqrtOddAdjustments.5296
 0006:C01ED0E8       sqrtEvenAdjustments.5297
 0006:C01ED108       dyadic_single
 0006:C01ED148       monadic_single
 0006:C01ED188       dyadic_double
 0006:C01ED1C8       monadic_double
 0006:C01ED208       sched_debug_fops
 0006:C01ED270       prio_to_weight
 0006:C01ED310       prio_to_wmult
 0006:C01ED3B0       fair_sched_class
 0006:C01ED3E4       rt_sched_class
 0006:C01ED418       stat_nam
 0006:C01ED420       idle_sched_class
 0006:C01ED458       ktime_zero.11711
 0006:C01ED460       execdomains_proc_fops
 0006:C01ED4C8       tnts
 0006:C01ED4E9       __param_str_pause_on_oops
 0006:C01ED4F7       __param_str_panic
 0006:C01ED4FD       recursion_bug_msg
 0006:C01ED51F       __param_str_time
 0006:C01ED52C       cpu_active_mask
 0006:C01ED530       cpu_present_mask
 0006:C01ED534       cpu_online_mask
 0006:C01ED538       cpu_possible_mask
 0006:C01ED53C       cpu_all_bits
 0006:C01ED540       cpu_bit_bitmap
 0006:C01ED5C4       resource_op
 0006:C01ED5D4       proc_ioports_operations
 0006:C01ED63C       proc_iomem_operations
 0006:C01ED6A4       null_path.25800
 0006:C01ED6AC       __cap_init_eff_set
 0006:C01ED6B4       __cap_full_set
 0006:C01ED6BC       __cap_empty_set
 0006:C01ED6C4       __func__.23758
 0006:C01ED6D8       rcu_migrate_type_count
 0006:C01ED6E0       ktime_zero.9518
 0006:C01ED6E8       pm_qos_array
 0006:C01ED6F8       pm_qos_power_fops
 0006:C01ED760       ktime_zero.5956
 0006:C01ED768       ktime_zero.12532
 0006:C01ED770       CSWTCH.228
 0006:C01ED77C       modules_op
 0006:C01ED78C       proc_modules_operations
 0006:C01ED830       modinfo_attrs
 0006:C01ED844       vermagic
 0006:C01ED868       masks.21180
 0006:C01ED888       __func__.21351
 0006:C01ED898       kallsyms_operations
 0006:C01ED900       kallsyms_op
 0006:C01ED910       pm_states
 0006:C01ED920       __param_str_irqfixup
 0006:C01ED932       __param_str_noirqdebug
 0006:C01ED946       __param_str_qlowmark
 0006:C01ED957       __param_str_qhimark
 0006:C01ED967       __param_str_blimit
 0006:C01ED978       __func__.10999
 0006:C01ED98A       __func__.11046
 0006:C01ED991       __func__.11058
 0006:C01ED99B       __func__.11071
 0006:C01ED9AD       __func__.11147
 0006:C01ED9C0       __func__.11019
 0006:C01ED9D8       fallbacks
 0006:C01EDA28       zone_names
 0006:C01EDA30       __func__.25838
 0006:C01EDA38       shmem_special_inode_operations
 0006:C01EDA94       shmem_aops
 0006:C01EDAD4       shmem_inode_operations
 0006:C01EDB30       shmem_file_operations
 0006:C01EDB98       shmem_dir_inode_operations
 0006:C01EDBF4       shmem_ops
 0006:C01EDC3C       zoneinfo_op
 0006:C01EDC4C       vmstat_op
 0006:C01EDC5C       pagetypeinfo_op
 0006:C01EDC6C       fragmentation_op
 0006:C01EDC7C       vmstat_text
 0006:C01EDD50       migratetype_names
 0006:C01EDD64       fragmentation_file_operations
 0006:C01EDDCC       pagetypeinfo_file_ops
 0006:C01EDE34       proc_vmstat_file_operations
 0006:C01EDE9C       proc_zoneinfo_file_operations
 0006:C01EDF04       vmalloc_op
 0006:C01EDF14       proc_vmalloc_operations
 0006:C01EDF7C       swap_aops
 0006:C01EDFBC       Unused_offset
 0006:C01EDFD6       Bad_offset
 0006:C01EDFED       Unused_file
 0006:C01EE005       Bad_file
 0006:C01EE01C       swaps_op
 0006:C01EE02C       proc_swaps_operations
 0006:C01EE094       slabinfo_op
 0006:C01EE0A4       proc_slabinfo_operations
 0006:C01EE10C       __func__.19999
 0006:C01EE11F       __func__.19905
 0006:C01EE134       __func__.22621
 0006:C01EE140       generic_ro_fops
 0006:C01EE1A8       def_chr_fops
 0006:C01EE210       __func__.23533
 0006:C01EE21C       anon_pipe_buf_ops
 0006:C01EE238       rdwr_pipefifo_fops
 0006:C01EE2A0       pipefs_dentry_operations
 0006:C01EE2BC       write_pipefifo_fops
 0006:C01EE324       read_pipefifo_fops
 0006:C01EE394       page_symlink_inode_operations
 0006:C01EE3F0       band_table
 0006:C01EE408       def_fifo_fops
 0006:C01EE470       anonstring.21801
 0006:C01EE47C       name.21793
 0006:C01EE48C       bad_inode_ops
 0006:C01EE4E8       bad_file_ops
 0006:C01EE550       filesystems_proc_fops
 0006:C01EE5B8       fs_info.20903
 0006:C01EE5D8       mnt_info.20912
 0006:C01EE618       __func__.21385
 0006:C01EE624       mountstats_op
 0006:C01EE634       mountinfo_op
 0006:C01EE644       mounts_op
 0006:C01EE654       simple_super_operations
 0006:C01EE69C       simple_dir_inode_operations
 0006:C01EE6F8       simple_dir_operations
 0006:C01EE760       __func__.18730
 0006:C01EE774       simple_dentry_operations.18558
 0006:C01EE790       page_cache_pipe_buf_ops
 0006:C01EE7AC       default_pipe_buf_ops
 0006:C01EE7C8       user_page_pipe_buf_ops
 0006:C01EE7E4       __func__.23698
 0006:C01EE7F4       bdev_sops
 0006:C01EE83C       def_blk_aops
 0006:C01EE87C       def_blk_fops
 0006:C01EE8E4       inotify_fsnotify_ops
 0006:C01EE8F8       inotify_fops
 0006:C01EE960       eventpoll_fops
 0006:C01EE9C8       anon_inodefs_dentry_operations
 0006:C01EE9E4       anon_aops
 0006:C01EEA24       signalfd_fops
 0006:C01EEA8C       timerfd_fops
 0006:C01EEAF4       eventfd_fops
 0006:C01EEB5C       locks_seq_operations
 0006:C01EEB6C       proc_locks_operations
 0006:C01EEBD4       CSWTCH.85
 0006:C01EEBDC       map
 0006:C01EEC48       buf.19965
 0006:C01EEC4C       proc_pid_maps_op
 0006:C01EEC5C       proc_pid_smaps_op
 0006:C01EEC6C       proc_pagemap_operations
 0006:C01EECD4       proc_clear_refs_operations
 0006:C01EED3C       proc_smaps_operations
 0006:C01EEDA4       proc_maps_operations
 0006:C01EEE0C       proc_reg_file_ops
 0006:C01EEE74       proc_sops
 0006:C01EEEBC       proc_root_inode_operations
 0006:C01EEF18       proc_root_operations
 0006:C01EEF80       proc_base_dentry_operations
 0006:C01EEF9C       lnames
 0006:C01EF01C       proc_def_inode_operations
 0006:C01EF078       proc_fdinfo_file_operations
 0006:C01EF0E0       tid_fd_dentry_operations
 0006:C01EF0FC       proc_pid_link_inode_operations
 0006:C01EF158       proc_tgid_base_inode_operations
 0006:C01EF1B4       proc_tgid_base_operations
 0006:C01EF21C       tgid_base_stuff
 0006:C01EF4BC       pid_dentry_operations
 0006:C01EF4D8       tid_base_stuff
 0006:C01EF718       proc_tid_base_inode_operations
 0006:C01EF774       proc_tid_base_operations
 0006:C01EF7DC       proc_base_stuff
 0006:C01EF7F4       proc_task_inode_operations
 0006:C01EF850       proc_task_operations
 0006:C01EF8B8       proc_self_inode_operations
 0006:C01EF914       proc_coredump_filter_operations
 0006:C01EF97C       proc_fdinfo_inode_operations
 0006:C01EF9D8       proc_fdinfo_operations
 0006:C01EFA40       proc_fd_inode_operations
 0006:C01EFA9C       proc_fd_operations
 0006:C01EFB04       proc_pid_sched_operations
 0006:C01EFB6C       proc_oom_adjust_operations
 0006:C01EFBD4       proc_environ_operations
 0006:C01EFC3C       proc_mem_operations
 0006:C01EFCA4       proc_single_file_operations
 0006:C01EFD0C       proc_info_file_operations
 0006:C01EFD74       proc_mountstats_operations
 0006:C01EFDDC       proc_mountinfo_operations
 0006:C01EFE44       proc_mounts_operations
 0006:C01EFEAC       proc_dir_operations
 0006:C01EFF14       proc_dir_inode_operations
 0006:C01EFF70       proc_link_inode_operations
 0006:C01EFFCC       proc_file_operations
 0006:C01F0034       proc_file_inode_operations
 0006:C01F0090       proc_dentry_operations
 0006:C01F00AC       __func__.13080
 0006:C01F00C0       tty_drivers_op
 0006:C01F00D0       proc_tty_drivers_operations
 0006:C01F0138       cmdline_proc_fops
 0006:C01F01A0       proc_cpuinfo_operations
 0006:C01F0208       devinfo_ops
 0006:C01F0218       proc_devinfo_operations
 0006:C01F0280       int_seq_ops
 0006:C01F0290       proc_interrupts_operations
 0006:C01F02F8       loadavg_proc_fops
 0006:C01F0360       meminfo_proc_fops
 0006:C01F03C8       proc_stat_operations
 0006:C01F0430       uptime_proc_fops
 0006:C01F0498       version_proc_fops
 0006:C01F0500       proc_softirqs_operations
 0006:C01F0568       proc_sys_inode_operations
 0006:C01F05C4       proc_sys_file_operations
 0006:C01F062C       proc_sys_dir_operations
 0006:C01F0688       proc_sys_dir_file_operations
 0006:C01F06F0       proc_sys_dentry_operations
 0006:C01F070C       proc_net_operations
 0006:C01F0774       proc_net_inode_operations
 0006:C01F07D0       proc_kmsg_operations
 0006:C01F0838       proc_kpagecount_operations
 0006:C01F08A0       proc_kpageflags_operations
 0006:C01F0908       check_part
 0006:C01F0910       subtypes
 0006:C01F0950       sysfs_aops
 0006:C01F0990       sysfs_inode_operations
 0006:C01F09EC       sysfs_file_operations
 0006:C01F0A54       sysfs_dentry_ops
 0006:C01F0A70       sysfs_dir_operations
 0006:C01F0AD8       sysfs_dir_inode_operations
 0006:C01F0B34       sysfs_symlink_inode_operations
 0006:C01F0B90       sysfs_ops
 0006:C01F0BD8       __func__.14535
 0006:C01F0BEC       bin_fops
 0006:C01F0C54       devpts_sops
 0006:C01F0C9C       tokens
 0006:C01F0CBC       __func__.18076
 0006:C01F0CCE       __func__.18068
 0006:C01F0CE6       __func__.18138
 0006:C01F0CFA       __func__.18281
 0006:C01F0D18       __func__.18182
 0006:C01F0D2C       __func__.19420
 0006:C01F0D3C       __func__.19474
 0006:C01F0D49       __func__.19500
 0006:C01F0D59       ext2_type_by_mode
 0006:C01F0D68       __func__.19552
 0006:C01F0D76       __func__.19576
 0006:C01F0D90       __func__.19606
 0006:C01F0DA0       ext2_dir_operations
 0006:C01F0E08       ext2_file_inode_operations
 0006:C01F0E64       ext2_file_operations
 0006:C01F0ECC       ext2_nobh_aops
 0006:C01F0F0C       ext2_aops
 0006:C01F0F4C       ext2_aops_xip
 0006:C01F0F8C       ext2_dir_inode_operations
 0006:C01F0FE8       __func__.17693
 0006:C01F0FF4       ext2_special_inode_operations
 0006:C01F1050       tokens_0
 0006:C01F1148       __func__.22235
 0006:C01F1158       ext2_sops
 0006:C01F11A0       ext2_export_ops
 0006:C01F11B4       __func__.22267
 0006:C01F11C1       __func__.22027
 0006:C01F11DC       ext2_fast_symlink_inode_operations
 0006:C01F1238       ext2_symlink_inode_operations
 0006:C01F1294       cramfs_aops
 0006:C01F12D4       cramfs_dir_inode_operations
 0006:C01F1330       cramfs_directory_operations
 0006:C01F1398       cramfs_ops
 0006:C01F13E0       ramfs_dir_inode_operations
 0006:C01F143C       tokens_1
 0006:C01F144C       ramfs_ops
 0006:C01F1494       ramfs_file_inode_operations
 0006:C01F14F0       ramfs_file_operations
 0006:C01F1558       ramfs_aops
 0006:C01F1598       nibblemap
 0006:C01F15D8       minix_dir_inode_operations
 0006:C01F1634       minix_aops
 0006:C01F1674       minix_symlink_inode_operations
 0006:C01F16D0       minix_sops
 0006:C01F1718       minix_file_inode_operations
 0006:C01F1774       minix_file_operations
 0006:C01F17DC       minix_dir_operations
 0006:C01F1844       __func__.33647
 0006:C01F185E       __func__.33628
 0006:C01F1874       nfs_server_list_fops
 0006:C01F18DC       nfs_volume_list_fops
 0006:C01F1944       __func__.22276
 0006:C01F1957       __func__.22310
 0006:C01F1968       __func__.22292
 0006:C01F1974       __func__.22319
 0006:C01F198D       __func__.22353
 0006:C01F199E       __func__.22429
 0006:C01F19B4       nfs_dentry_operations
 0006:C01F19D0       nfs3_dir_inode_operations
 0006:C01F1A2C       nfs_dir_inode_operations
 0006:C01F1A88       nfs_dir_operations
 0006:C01F1AF0       __func__.22599
 0006:C01F1AFC       nfs_file_aops
 0006:C01F1B3C       nfs3_file_inode_operations
 0006:C01F1B98       nfs_file_inode_operations
 0006:C01F1BF4       nfs_file_operations
 0006:C01F1C5C       __func__.23820
 0006:C01F1C6D       __param_str_enable_ino64
 0006:C01F1C80       __func__.33120
 0006:C01F1C8C       nfs_info.33157
 0006:C01F1D04       sec_flavours.33127
 0006:C01F1D64       nfs_mount_option_tokens
 0006:C01F1F34       nfs_secflavor_tokens
 0006:C01F1F9C       nfs_xprt_protocol_tokens
 0006:C01F1FBC       nfs_sops
 0006:C01F2004       nfs_errtbl
 0006:C01F20F4       nfs_commit_direct_ops
 0006:C01F2100       nfs_write_direct_ops
 0006:C01F210C       nfs_read_direct_ops
 0006:C01F2118       __func__.22286
 0006:C01F212C       nfs_v2_clientops
 0006:C01F21C0       nfs_read_full_ops
 0006:C01F21CC       nfs_read_partial_ops
 0006:C01F21D8       __func__.22575
 0006:C01F21EC       nfs_symlink_inode_operations
 0006:C01F2248       nfs_unlink_ops
 0006:C01F2254       nfs_commit_ops
 0006:C01F2260       nfs_write_full_ops
 0006:C01F226C       nfs_write_partial_ops
 0006:C01F2278       __func__.22104
 0006:C01F228E       __func__.22134
 0006:C01F22A0       nfs_referral_inode_operations
 0006:C01F22FC       nfs_mountpoint_inode_operations
 0006:C01F2358       mnt3_errtbl
 0006:C01F23A8       mnt_errtbl
 0006:C01F23D0       __func__.22394
 0006:C01F23E4       nfs_v3_clientops
 0006:C01F2478       nfs_type2fmt
 0006:C01F248A       __func__.16153
 0006:C01F249C       __func__.21057
 0006:C01F24A4       nfsd_version
 0006:C01F24B4       __func__.20991
 0006:C01F24C0       write_op
 0006:C01F250C       exports_operations
 0006:C01F2574       transaction_ops
 0006:C01F25DC       nfs_errtbl.18039
 0006:C01F26C4       CSWTCH.39
 0006:C01F26CC       CSWTCH.91
 0006:C01F26D4       nfs_ftypes
 0006:C01F2714       nfsd_proc_fops
 0006:C01F277C       nfs3_ftypes
 0006:C01F279C       nfs3_ftypes_0
 0006:C01F27DC       nlmclnt_cancel_ops
 0006:C01F27E8       __func__.33111
 0006:C01F27F8       nlmclnt_unlock_ops
 0006:C01F2804       __func__.31202
 0006:C01F2818       __func__.31211
 0006:C01F282C       __func__.31737
 0006:C01F2832       __param_str_nlm_max_connections
 0006:C01F284C       __param_str_nsm_use_hostnames
 0006:C01F2864       __param_str_nlm_tcpport
 0006:C01F2876       __param_str_nlm_udpport
 0006:C01F2888       __param_str_nlm_timeout
 0006:C01F289A       __param_str_nlm_grace_period
 0006:C01F28B4       nlm_port_max
 0006:C01F28B8       nlm_port_min
 0006:C01F28BC       nlm_timeout_max
 0006:C01F28C0       nlm_timeout_min
 0006:C01F28C4       nlm_grace_period_max
 0006:C01F28C8       nlm_grace_period_min
 0006:C01F28CC       __func__.31341
 0006:C01F28E4       nlmsvc_grant_ops
 0006:C01F28F0       nlmsvc_callback_ops
 0006:C01F28FC       nlm4svc_callback_ops
 0006:C01F2908       jffs2_dir_inode_operations
 0006:C01F2964       jffs2_dir_operations
 0006:C01F29CC       jffs2_file_address_operations
 0006:C01F2A0C       jffs2_file_inode_operations
 0006:C01F2A68       jffs2_file_operations
 0006:C01F2AD0       __func__.19826
 0006:C01F2AE6       __func__.19836
 0006:C01F2AF3       __func__.19967
 0006:C01F2B07       __func__.19803
 0006:C01F2B17       __func__.19810
 0006:C01F2B25       __func__.20017
 0006:C01F2B3B       __func__.19953
 0006:C01F2B49       __func__.20004
 0006:C01F2B53       __func__.19973
 0006:C01F2B5E       __func__.19985
 0006:C01F2B6B       __func__.20042
 0006:C01F2B88       __func__.19911
 0006:C01F2BA3       __func__.20075
 0006:C01F2BB8       jffs2_symlink_inode_operations
 0006:C01F2C14       __func__.17972
 0006:C01F2C2C       __func__.19850
 0006:C01F2C54       jffs2_super_operations
 0006:C01F2C9C       __func__.20250
 0006:C01F2CAD       __func__.19792
 0006:C01F2CD2       __func__.18216
 0006:C01F2CE5       oob_cleanmarker
 0006:C01F2CF4       romfs_dtype_table
 0006:C01F2CFC       romfs_modemap
 0006:C01F2D0C       romfs_dir_operations
 0006:C01F2D74       romfs_aops
 0006:C01F2DB4       romfs_super_ops
 0006:C01F2DFC       sysvipc_proc_fops
 0006:C01F2E64       shm_file_operations
 0006:C01F2ECC       __func__.21432
 0006:C01F2ED7       __func__.22581
 0006:C01F2EE5       __func__.23042
 0006:C01F2EF9       __func__.23129
 0006:C01F2F0C       __func__.23092
 0006:C01F2F1D       __func__.20570
 0006:C01F2F2A       __func__.20618
 0006:C01F2F3C       __func__.20631
 0006:C01F2F50       __func__.20536
 0006:C01F2F62       __func__.20724
 0006:C01F2F78       __func__.20743
 0006:C01F2F94       __func__.20753
 0006:C01F2FAE       __func__.20763
 0006:C01F2FC9       __func__.20959
 0006:C01F2FE4       partitions_op
 0006:C01F2FF4       diskstats_op
 0006:C01F3004       proc_diskstats_operations
 0006:C01F306C       proc_partitions_operations
 0006:C01F30D4       scsi_command_size_tbl
 0006:C01F30DC       bsg_fops
 0006:C01F3144       compressed_formats
 0006:C01F3180       __func__.9131
 0006:C01F3195       __func__.9270
 0006:C01F31AC       kobject_actions
 0006:C01F31C4       __func__.9180
 0006:C01F31D0       digits.9559
 0006:C01F31E0       hex_asc
 0006:C01F334C       crc32table_le
 0006:C01F374C       crc32table_be
 0006:C01F3B4C       lenfix.5408
 0006:C01F434C       distfix.5409
 0006:C01F43CC       order.5440
 0006:C01F43F2       lext.5354
 0006:C01F4430       lbase.5353
 0006:C01F446E       dext.5356
 0006:C01F44AE       dbase.5355
 0006:C01F44F0       configuration_table
 0006:C01F4568       extra_lbits
 0006:C01F45DC       extra_dbits
 0006:C01F4654       bl_order
 0006:C01F4668       extra_blbits
 0006:C01F46B4       nla_attr_minlen
 0006:C01F46CC       proc_fb_seq_ops
 0006:C01F46DC       fb_proc_fops
 0006:C01F4744       fb_fops
 0006:C01F47AC       default_2_colors
 0006:C01F47C4       default_8_colors
 0006:C01F47DC       default_4_colors
 0006:C01F47F4       default_16_colors
 0006:C01F480C       modedb
 0006:C01F54F4       fb_cvt_vbi_tab
 0006:C01F54FC       dummy_con
 0006:C01F5560       devlist
 0006:C01F5600       memory_fops
 0006:C01F5668       kmsg_fops
 0006:C01F56D0       full_fops
 0006:C01F5738       zero_fops
 0006:C01F57A0       null_fops
 0006:C01F5808       kmem_fops
 0006:C01F5870       mem_fops
 0006:C01F58D8       twist_table.19095
 0006:C01F58F8       urandom_fops
 0006:C01F5960       random_fops
 0006:C01F59C8       hung_up_tty_fops
 0006:C01F5A30       tty_fops
 0006:C01F5A98       console_fops
 0006:C01F5B00       ptychar
 0006:C01F5B14       baud_table
 0006:C01F5B90       baud_bits
 0006:C01F5C0C       tty_ldiscs_seq_ops
 0006:C01F5C1C       tty_ldiscs_proc_fops
 0006:C01F5C84       pty_ops
 0006:C01F5CF8       ptm_unix98_ops
 0006:C01F5D6C       pty_unix98_ops
 0006:C01F5DE0       __param_str_legacy_count
 0006:C01F5DF4       misc_proc_fops
 0006:C01F5E5C       misc_fops
 0006:C01F5EC4       vcs_fops
 0006:C01F5F2C       fn_handler
 0006:C01F5F7C       cur_chars.20361
 0006:C01F5F81       ret_diacr.20344
 0006:C01F5F87       app_map.20368
 0006:C01F5F8C       aUvwxylsrqmnnmp
 0006:C01F5F9D       pad_chars.20367
 0006:C01F5FB4       x86_keycodes
 0006:C01F61B4       kbd_ids
 0006:C01F6394       __param_str_brl_nbchords
 0006:C01F63AA       __param_str_brl_timeout
 0006:C01F63C0       NR_TYPES
 0006:C01F63C4       max_vals
 0006:C01F6400       con_ops
 0006:C01F6474       utf8_length_changes.20475
 0006:C01F648C       double_width.20448
 0006:C01F64EC       __param_str_underline
 0006:C01F64F9       __param_str_italic
 0006:C01F6503       __param_str_default_blu
 0006:C01F6514       __param_arr_default_blu
 0006:C01F652C       __param_str_default_grn
 0006:C01F653C       __param_arr_default_grn
 0006:C01F6554       __param_str_default_red
 0006:C01F6564       __param_arr_default_red
 0006:C01F657C       __param_str_consoleblank
 0006:C01F6589       __param_str_default_utf8
 0006:C01F659C       proc_sysrq_trigger_operations
 0006:C01F6604       __func__.14314
 0006:C01F661B       __func__.10239
 0006:C01F662A       __func__.13901
 0006:C01F6637       __func__.13927
 0006:C01F6644       __func__.13858
 0006:C01F665A       __func__.13881
 0006:C01F666C       cpu_state_attr
 0006:C01F6680       enabled
 0006:C01F6688       disabled
 0006:C01F6691       __func__.14207
 0006:C01F669D       __func__.14196
 0006:C01F66A3       __func__.14344
 0006:C01F66B2       __func__.14328
 0006:C01F66C4       __func__.18784
 0006:C01F66DB       __func__.18903
 0006:C01F66ED       __func__.18877
 0006:C01F6700       firmware_attr_data_tmpl
 0006:C01F6720       __func__.18890
 0006:C01F6730       __func__.18963
 0006:C01F6744       __param_str_max_part
 0006:C01F6751       __param_str_rd_size
 0006:C01F675D       __param_str_rd_nr
 0006:C01F6768       loopback_ethtool_ops
 0006:C01F681C       loopback_ops
 0006:C01F686C       version
 0006:C01F68A9       invert3.21421
 0006:C01F68B1       __func__.21438
 0006:C01F68BC       chip_ids
 0006:C01F68FC       smc_netdev_ops
 0006:C01F694C       smc_ethtool_ops
 0006:C01F6A00       __param_str_watchdog
 0006:C01F6A10       __param_str_nowait
 0006:C01F6A20       CSWTCH.45
 0006:C01F6A40       mtd_fops
 0006:C01F6AB0       __func__.15219
 0006:C01F6AC2       __func__.15295
 0006:C01F6ADF       keyboard_ids.17503
 0006:C01F6AE8       input_handlers_seq_ops
 0006:C01F6AF8       input_devices_seq_ops
 0006:C01F6B08       input_devices_fileops
 0006:C01F6B70       input_handlers_fileops
 0006:C01F6BD8       input_fops
 0006:C01F6C40       mousedev_imex_seq
 0006:C01F6C46       mousedev_imps_seq
 0006:C01F6C4C       mousedev_ids
 0006:C01F700C       mousedev_fops
 0006:C01F7074       __param_str_tap_time
 0006:C01F7086       __param_str_yres
 0006:C01F7094       __param_str_xres
 0006:C01F70A4       a26CksDmt
 0006:C01F70EC       xl_table
 0006:C01F7104       atkbd_unxlate_table
 0006:C01F7204       atkbd_set2_keycode
 0006:C01F72E4       aRsplmh
 0006:C01F7604       atkbd_scroll_keys
 0006:C01F7612       atkbd_set3_keycode
 0006:C01F7A12       __param_str_extra
 0006:C01F7A1E       __param_str_scroll
 0006:C01F7A2B       __param_str_softraw
 0006:C01F7A39       __param_str_softrepeat
 0006:C01F7A4A       __param_str_reset
 0006:C01F7A56       __param_str_set
 0006:C01F7A60       params.17945
 0006:C01F7A65       rates.17951
 0006:C01F7A70       psmouse_protocols
 0006:C01F7B78       seq.17898
 0006:C01F7B81       __param_str_resync_time
 0006:C01F7B95       __param_str_resetafter
 0006:C01F7BA8       __param_str_smartscroll
 0006:C01F7BBC       __param_str_rate
 0006:C01F7BC9       __param_str_resolution
 0006:C01F7BDC       __param_str_proto
 0006:C01F7BEA       newabs_mask.17700
 0006:C01F7BEF       newabs_rslt.17702
 0006:C01F7BF4       newabs_rel_mask.17701
 0006:C01F7BF9       oldabs_mask.17703
 0006:C01F7BFE       oldabs_rslt.17704
 0006:C01F7C03       rates.17596
 0006:C01F7C0B       alps_model_data
 0006:C01F7C84       ps2pp_list.17622
 0006:C01F7D0C       rtc_days_in_month
 0006:C01F7D18       rtc_ydays
 0006:C01F7D4C       aDummy_0
 0006:C01F7D60       dummy_id
 0006:C01F7D90       __param_str_use_spi_crc
 0006:C01F7DA8       CSWTCH.27
 0006:C01F7DB4       mmc_ops
 0006:C01F7DC4       tacc_mant
 0006:C01F7E04       tacc_exp
 0006:C01F7E24       tran_mant
 0006:C01F7E34       tran_exp
 0006:C01F7E54       mmc_sd_ops
 0006:C01F7E64       tacc_mant_0
 0006:C01F7EA4       tacc_exp_0
 0006:C01F7EC4       tran_mant_0
 0006:C01F7ED4       tran_exp_0
 0006:C01F7EF4       mmc_sdio_ops
 0006:C01F7F04       speed_val
 0006:C01F7F14       speed_unit
 0006:C01F7F34       cis_tpl_list
 0006:C01F7F54       dispatch_type.19220
 0006:C01F7F64       hid_hiddev_list
 0006:C01F7F94       types.19428
 0006:C01F7FB8       hid_mouse_ignore_list
 0006:C01F8158       hid_ignore_list
 0006:C01F8A68       hid_blacklist
 0006:C01F9088       __param_str_debug
 0006:C01F9094       hid_keyboard
 0006:C01F9194       hid_hat_to_axis
 0006:C01F91DC       hid_usage_table
 0006:C01F9FEC       systems.14238
 0006:C01FA000       units.14239
 0006:C01FA0A0       table.14262
 0006:C01FA0AC       events
 0006:C01FA12C       names
 0006:C01FA1AC       soundcore_fops
 0006:C01FA220       sockfs_dentry_operations
 0006:C01FA23C       socket_file_ops
 0006:C01FA2A4       nargs
 0006:C01FA2B8       bad_sock_fops
 0006:C01FA320       proto_seq_fops
 0006:C01FA388       proto_seq_ops
 0006:C01FA398       __func__.33404
 0006:C01FA3A2       mask.34003
 0006:C01FA3B2       mask.34006
 0006:C01FA3C0       dev_seq_fops
 0006:C01FA428       softnet_seq_fops
 0006:C01FA490       ptype_seq_fops
 0006:C01FA4F8       ptype_seq_ops
 0006:C01FA508       dev_seq_ops
 0006:C01FA518       softnet_seq_ops
 0006:C01FA528       __func__.32442
 0006:C01FA53C       dev_mc_seq_fops
 0006:C01FA5A4       dev_mc_seq_ops
 0006:C01FA5B4       neigh_stat_seq_ops
 0006:C01FA5C4       nl_neightbl_policy
 0006:C01FA5E8       nl_ntbl_parm_policy
 0006:C01FA628       neigh_stat_seq_fops
 0006:C01FA690       ifla_policy
 0006:C01FA6E4       ifla_info_policy
 0006:C01FA6F4       rtm_min
 0006:C01FA734       rta_max
 0006:C01FA774       fmt_ulong
 0006:C01FA779       fmt_hex
 0006:C01FA77E       fmt_dec
 0006:C01FA784       operstates
 0006:C01FA7A0       fmt_long_hex
 0006:C01FA7C0       eth_header_ops
 0006:C01FA7D4       prio2band
 0006:C01FA7E4       netlink_ops
 0006:C01FA83C       netlink_seq_fops
 0006:C01FA8A4       netlink_seq_ops
 0006:C01FA8B4       ctrl_policy
 0006:C01FA8D4       rt_cpu_seq_ops
 0006:C01FA8E4       rt_cache_seq_ops
 0006:C01FA8F4       rt_cache_seq_fops
 0006:C01FA95C       rt_cpu_seq_fops
 0006:C01FA9C4       mtu_plateau
 0006:C01FA9D8       ip_tos2prio
 0006:C01FA9E8       inet_csk_timer_bug_msg
 0006:C01FA9F4       aUnknownTimerVa
 0006:C01FAA0B       new_state
 0006:C01FAA1B       __func__.31947
 0006:C01FAA24       raw_seq_ops
 0006:C01FAA34       raw_seq_fops
 0006:C01FAA9C       __func__.28666
 0006:C01FAAB0       arp_seq_fops
 0006:C01FAB18       arp_seq_ops
 0006:C01FAB28       icmp_pointers
 0006:C01FABC0       ifa_ipv4_policy
 0006:C01FABE0       __func__.33972
 0006:C01FABF8       inet_sockraw_ops
 0006:C01FAC50       inet_dgram_ops
 0006:C01FACA8       inet_stream_ops
 0006:C01FAD00       igmp_mc_seq_fops
 0006:C01FAD68       igmp_mcf_seq_fops
 0006:C01FADD0       igmp_mcf_seq_ops
 0006:C01FADE0       igmp_mc_seq_ops
 0006:C01FADF0       rtm_ipv4_policy
 0006:C01FAE30       fib_props
 0006:C01FAE90       fib_seq_ops
 0006:C01FAEA0       type2flags.31776
 0006:C01FAED0       fib_seq_fops
 0006:C01FAF38       sockstat_seq_fops
 0006:C01FAFA0       netstat_seq_fops
 0006:C01FB008       snmp_seq_fops
 0006:C01FB070       snmp4_net_list
 0006:C01FB2C8       snmp4_ipextstats_list
 0006:C01FB330       snmp4_ipstats_list
 0006:C01FB3C0       icmpmibmap
 0006:C01FB420       snmp4_tcp_list
 0006:C01FB498       snmp4_udp_list
 0006:C01FB4D0       ic_bootp_cookie
 0006:C01FB4D4       pnp_seq_fops
 0006:C01FB53C       v.30732
 0006:C01FB57C       __param_str_hystart_low_window
 0006:C01FB599       __param_str_hystart_detect
 0006:C01FB5B2       __param_str_hystart
 0006:C01FB5C4       __param_str_tcp_friendliness
 0006:C01FB5DF       __param_str_bic_scale
 0006:C01FB5F3       __param_str_initial_ssthresh
 0006:C01FB60E       __param_str_beta
 0006:C01FB61D       __param_str_fast_convergence
 0006:C01FB638       xfrm_aalg_list
 0006:C01FB648       xfrm_ealg_list
 0006:C01FB658       xfrm_calg_list
 0006:C01FB668       xfrm_aead_list
 0006:C01FB678       unix_seq_fops
 0006:C01FB6E0       unix_seq_ops
 0006:C01FB6F0       unix_stream_ops
 0006:C01FB748       unix_dgram_ops
 0006:C01FB7A0       unix_seqpacket_ops
 0006:C01FB7F8       __func__.27993
 0006:C01FB808       packet_seq_fops
 0006:C01FB870       packet_seq_ops
 0006:C01FB880       packet_ops
 0006:C01FB8D8       packet_ops_spkt
 0006:C01FB930       __func__.19984
 0006:C01FB93A       __func__.20007
 0006:C01FB94E       __func__.19949
 0006:C01FB961       __func__.19961
 0006:C01FB96F       __func__.19989
 0006:C01FB980       __func__.20070
 0006:C01FB993       __func__.20065
 0006:C01FB9A0       __func__.20034
 0006:C01FB9AC       rpc_default_ops
 0006:C01FB9B8       __func__.19944
 0006:C01FB9C5       __func__.20014
 0006:C01FB9D3       __func__.19979
 0006:C01FB9E2       __func__.19766
 0006:C01FB9F3       __func__.20085
 0006:C01FBA08       __func__.32723
 0006:C01FBA18       __func__.32873
 0006:C01FBA2C       __func__.32789
 0006:C01FBA38       xs_tcp_default_timeout
 0006:C01FBA4C       xs_udp_default_timeout
 0006:C01FBA60       null_credops
 0006:C01FBA88       authnull_ops
 0006:C01FBAA4       unix_credops
 0006:C01FBACC       authunix_ops
 0006:C01FBAE8       generic_credops
 0006:C01FBB10       generic_auth_ops
 0006:C01FBB2C       __func__.20198
 0006:C01FBB3D       __param_str_pool_mode
 0006:C01FBB4E       __func__.33476
 0006:C01FBB60       __func__.29850
 0006:C01FBB72       __func__.29886
 0006:C01FBB88       rpcb_next_version
 0006:C01FBB98       rpcb_next_version6
 0006:C01FBBB0       rpcb_getport_ops
 0006:C01FBBBC       rpcb_inaddr_loopback
 0006:C01FBBCC       empty_iov
 0006:C01FBBD4       cache_content_op
 0006:C01FBBE4       cache_flush_operations
 0006:C01FBC4C       cache_file_operations
 0006:C01FBCB4       content_file_operations
 0006:C01FBD1C       rpc_dentry_operations
 0006:C01FBD38       __func__.20430
 0006:C01FBD48       rpc_pipe_fops
 0006:C01FBDB0       __func__.20489
 0006:C01FBDBB       __func__.20382
 0006:C01FBDCD       __func__.20437
 0006:C01FBDD9       __func__.20469
 0006:C01FBDE4       rpc_info_operations
 0006:C01FBE4C       svc_pool_stats_seq_ops
 0006:C01FBE5C       rpc_proc_fops
 0006:C01FBED0       kallsyms_addresses
 0006:C020D2F0       kallsyms_num_syms
 0006:C020D300       kallsyms_names
 0006:C023ACA0       kallsyms_markers
 0006:C023ADC0       kallsyms_token_table
 0006:C023B140       kallsyms_token_index
 0006:C023B14C       a148BejmptCgmqw
 0006:C023B340       aEarlycon
 0006:C023B349       a4MalformedEarl
 0006:C023B369       aTooManyBootIni
 0006:C023B389       aInitMainC
 0006:C023B395       a4ParameterSIsO
 0006:C023B3BB       aTooManyBootEnv
 0006:C023B3DA       aDevConsole
 0006:C023B3E7       a4WarningUnable
 0006:C023B417       a4FailedToExecu_0
 0006:C023B430       a4FailedToExecu
 0006:C023B462       aSbinInit
 0006:C023B46D       aEtcInit
 0006:C023B477       aBinInit
 0006:C023B481       aBinSh
 0006:C023B490       aFoundTryPassin
 0006:C023B4BD       aEarlyOptions
 0006:C023B4CB       a5S
 0006:C023B4D1       a5KernelCommand
 0006:C023B4ED       aBootingKernel
 0006:C023B4FC       a4StartKernelBu
 0006:C023B545       a2StartKernelBu
 0006:C023B57C       a2InitrdOverwri
 0006:C023B5B7       aCallingPfI
 0006:C023B5CA       aInitcallPfRetu
 0006:C023B5F4       aErrorCodeD
 0006:C023B603       aPreemptionImba
 0006:C023B619       aDisabledInterr
 0006:C023B62E       aInitcallPfRetu_0
 0006:C023B654       aTermLinux
 0006:C023B65F       aReadonly
 0006:C023B669       aVfsMountedRoot
 0006:C023B69F       aDev
 0006:C023B6A5       aUU_0
 0006:C023B6AB       aVfsCannotOpenR
 0006:C023B6D4       aPleaseAppendAC
 0006:C023B725       aVfsUnableToMou
 0006:C023B748       aListOfAllParti
 0006:C023B761       aNoFilesystemCo
 0006:C023B7A4       aAndPressEnter
 0006:C023B7B6       a3VfsUnableToMo
 0006:C023B828       a6WaitingForRoo
 0006:C023B84A       a3S
 0006:C023B851       a3RamdiskErrorW
 0006:C023B881       a3RamdiskEofWhi
 0006:C023B8AF       a3RamdiskIncomp
 0006:C023B8D8       aDevRam
 0006:C023B8E1       a5RamdiskSImage
 0006:C023B909       a0RamdiskSDecom
 0006:C023B936       a5RamdiskRomfsF
 0006:C023B966       a5RamdiskCramfs
 0006:C023B997       a5RamdiskSquash
 0006:C023B9CA       a5RamdiskMinixF
 0006:C023B9FA       a5RamdiskExt2Fi
 0006:C023BA54       aAgeStartingAtD
 0006:C023BAC0       aEviceSize
 0006:C023BACC       a3RamdiskCouldN
 0006:C023BB24       aIsk
 0006:C023BB2C       aDoneDiskD
 0006:C023BB3C       aErrorClosingTh
 0006:C023BB55       aDiskD
 0006:C023BB8C       aDone
 0006:C023BBC0       aKay
 0006:C023BBC5       aDevRootOld
 0006:C023BBD3       aOld
 0006:C023BBD8       aLinuxrc
 0006:C023BBE1       a5TryingToMoveO
 0006:C023BC0C       aRootInitrd
 0006:C023BC20       aDoesNotExistIg
 0006:C023BC3B       a5UnmountingOld
 0006:C023BC53       a5TryingToFreeR
 0006:C023BC79       aJunkInCompress
 0006:C023BC94       a070707
 0006:C023BCB8       aSeHNewcOption
 0006:C023BCCA       a070701
 0006:C023BCD1       aNoCpioMagic
 0006:C023BCDF       aBrokenPadding
 0006:C023BCEE       aCanTAllocateBu
 0006:C023BD05       aCompressionMet
 0006:C023BD2A       a6TryingToUnpac
 0006:C023BD5C       aInitInitramfsC
 0006:C023BD6D       a6RootfsImageIs
 0006:C023BDAA       aCanTAllocateLi
 0006:C023BDC9       aTrailer
 0006:C023BDD4       aCanTAllocateDi
 0006:C023BDF4       a6CalibratingDe
 0006:C023BE28       a6CalibratingDe_0
 0006:C023BE77       a6CalibratingDe_1
 0006:C023BE95       aCLu02luBogomip
 0006:C023BEB6       a4WarningBadCon
 0006:C023BEF8       aIngOldStylePar
 0006:C023BF1F       aCpuD_0
 0006:C023BF25       a10s
 0006:C023BF2B       a3d
 0006:C023BF31       a10u
 0006:C023BF37       aS_1
 0006:C023BF3C       aS
 0006:C023BF41       aErr10lu
 0006:C023BF4D       a4BadIrqU
 0006:C023BF5B       a3TryingToSetIr
 0006:C023BF81       a2IdkHowToImple
 0006:C023BF9F       aRebootFailedSy
 0006:C023BFBF       aArchArmKernelP
 0006:C023BFD9       aCpuDSSS
 0006:C023BFF3       aPcIsAtS
 0006:C023C000       aLrIsAtS
 0006:C023C00D       aPc08lxLr08lxPs
 0006:C023C060       aR1008lxR908lxR
 0006:C023C084       aR708lxR608lxR5
 0006:C023C0B4       aR308lxR208lxR1
 0006:C023C0E4       aFlagsSIrqsOSFi
 0006:C023C120       aTable08xDac08x
 0006:C023C139       aControl08xS
 0006:C023C14A       aPidDComm20s
 0006:C023C15F       aThumb
 0006:C023C204       aC32
 0006:C023C209       aUk432
 0006:C023C210       aUk532
 0006:C023C217       aUk632
 0006:C023C21E       aAbt32
 0006:C023C225       aUk832
 0006:C023C22C       aUk932
 0006:C023C233       aUk1032
 0006:C023C23B       aUnd32
 0006:C023C242       aUk1232
 0006:C023C24A       aUk1332
 0006:C023C252       aUk1432
 0006:C023C25A       aSys32
 0006:C023C261       a3PtraceTooMany
 0006:C023C282       a4PtraceCanTHan
 0006:C023C2A6       aPtraceCancelBp
 0006:C023C2CC       a3SDCorruptedTh
 0006:C023C36C       aProcessorSRevD
 0006:C023C388       aBogomipsLu02lu
 0006:C023C3AC       aPuImplementer0
 0006:C023C3C5       aCpuArchitectur
 0006:C023C3DB       aCpuPart07x
 0006:C023C3EC       aCpuVariant0x02
 0006:C023C410       a0xX
 0006:C023C416       aCpuPart0x03x
 0006:C023C429       aCpuRevisionD
 0006:C023C43C       aHardwareS
 0006:C023C44B       aRevision04x
 0006:C023C45C       aSerial08x08x
 0006:C023C470       aViptAliasing
 0006:C023C484       aOnaliasing
 0006:C023C48F       aVivtAsidTagged
 0006:C023C4A0       aCpuConfigurati
 0006:C023C4DA       aCpuS08xRevisio
 0006:C023C509       aSC
 0006:C023C50E       aCpuSDataCacheS
 0006:C023C538       aMachineConfigu
 0006:C023C574       aMachineS
 0006:C023C581       aSystemRam
 0006:C023C58C       a4IgnoringUnrec
 0006:C023C5B1       aSwp
 0006:C023C5B5       aHalf
 0006:C023C5BA       aThumb_0
 0006:C023C5C0       a26bit
 0006:C023C5C6       aFastmult
 0006:C023C5CF       aFpa
 0006:C023C5D3       aVfp
 0006:C023C5DC       aJava
 0006:C023C5E1       aIwmmxt
 0006:C023C5E8       aCrunch
 0006:C023C5EF       aThumbee
 0006:C023C5F7       aNeon
 0006:C023C5FC       aVfpv3
 0006:C023C602       aVfpv3d16
 0006:C023C60B       aMem
 0006:C023C610       aUndefinedUnkno
 0006:C023C622       a4t
 0006:C023C625       a5t
 0006:C023C628       a5te
 0006:C023C62C       a5tej
 0006:C023C631       a6tej
 0006:C023C636       a11
 0006:C023C63C       a12
 0006:C023C642       a13
 0006:C023C648       a14
 0006:C023C64E       a15
 0006:C023C654       a16
 0006:C023C65A       a17
 0006:C023C660       aReserved
 0006:C023C669       aVideoRam
 0006:C023C673       aKernelText
 0006:C023C67F       aKernelData
 0006:C023C68B       aTimer
 0006:C023C691       aS0x08lxTo0x08l
 0006:C023C6A9       a04lx
 0006:C023C6B1       a08x
 0006:C023C6B7       a0X
 0006:C023C6BF       a0X_0
 0006:C023C6C5       aCode
 0006:C023C6CC       aBadPcValue
 0006:C023C6DA       a2KernelBugAtSD
 0006:C023C6F3       aArchArmKernelT
 0006:C023C70B       aSCalledButNotI
 0006:C023C748       aXchgBadDataSiz
 0006:C023C779       aS_2
 0006:C023C784       a08lx
 0006:C023C78F       aExceptionStack
 0006:C023C79F       aInternalErrorS
 0006:C023C7BD       aProcessSPidDSt
 0006:C023C7E7       aStack_0
 0006:C023C7EF       aFatalException_0
 0006:C023C80C       aFatalException
 0006:C023C81C       a6SDUndefinedIn
 0006:C023C846       aOopsUndefinedI
 0006:C023C868       aUnexpectedFiqR
 0006:C023C89A       aYouMayHaveAHar
 0006:C023C8BE       a2BadModeInSHan
 0006:C023C8E2       aOopsBadMode
 0006:C023C8F2       a3DSObsoleteSys
 0006:C023C91A       aOopsBadSyscall
 0006:C023C92D       aBranchThroughZ
 0006:C023C941       aDSArmSyscallD
 0006:C023C95A       aOopsBadSyscall_0
 0006:C023C970       a3DSBadDataAbor
 0006:C023C9A3       aUnknownDataAbo
 0006:C023C9BB       aSDBadPte08lx
 0006:C023C9D2       aSDBadPmd08lx
 0006:C023C9E9       aSDBadPgd08lx
 0006:C023CA00       aPrefetchAbort
 0006:C023CA0F       aDataAbort
 0006:C023CA1A       aAddressExcepti
 0006:C023CA2C       aFpSendSig
 0006:C023CA38       aFpPrintk
 0006:C023CA42       aKernFpEnter
 0006:C023CA50       aArmExidxInitTe
 0006:C023CA65       aArmExidxDevini
 0006:C023CA7D       aArmExidx
 0006:C023CA88       a3SBadRelocatio
 0006:C023CAB4       a3SOutOfBoundsR
 0006:C023CAFC       a3SRelocationOu
 0006:C023CB3A       a3SUnknownReloc
 0006:C023CB59       a3ModuleSAddRel
 0006:C023CB83       a4UnwindCorrupt
 0006:C023CBA4       a4UnwindUnknown
 0006:C023CBCD       a4UnwindIndexNo
 0006:C023CBEF       a4UnwindUnsuppo_0
 0006:C023CC34       a4UnwindUnsuppo
 0006:C023CC6C       a4UnwindRefuseT
 0006:C023CC9D       a4UnwindSpareEn
 0006:C023CCBE       a4UnwindUnhandl
 0006:C023CCE6       aArchArmMmDmaMa
 0006:C023CD00       a3SNoPmdTables
 0006:C023CD16       a3SNoPteTables
 0006:C023CD2C       a3SNotInitialis
 0006:C023CD44       a4SSCoherentDma
 0006:C023CDA4       aFpDmaMaskLlx
 0006:C023CDB7       a4CoherentAlloc
 0006:C023CDF2       aHomeKemurdzhia
 0006:C023CE61       a3SFreeingWrong
 0006:C023CE91       a2SBadPageInKer
 0006:C023CEB7       a3STryingToFree
 0006:C023CEE8       a1PgdP
 0006:C023CEF5       a108lxPgd08lx
 0006:C023CF0B       aBad
 0006:C023CF11       aPte08lx
 0006:C023CF1E       aPpte08lx
 0006:C023CF2C       a7SUnhandledPag
 0006:C023CF66       aNullPointerDer
 0006:C023CF7F       aPagingRequest
 0006:C023CF8E       a1UnableToHandl
 0006:C023CFC6       aOops
 0006:C023CFCB       aArchArmMmFault
 0006:C023CFDF       aVmKillingProce
 0006:C023CFF7       a1UnhandledFaul
 0006:C023D023       aVectorExceptio
 0006:C023D034       aAlignmentExcep
 0006:C023D048       aTerminalExcept
 0006:C023D05B       aExternalAbortO
 0006:C023D077       aSectionTransla
 0006:C023D20A       aInitrdIsDeprec
 0006:C023D24C       aDPagesOfRam
 0006:C023D25D       aDFreePages
 0006:C023D26C       aDReservedPages
 0006:C023D27F       aDSlabPages
 0006:C023D28E       aDPagesShared
 0006:C023D29F       aDPagesSwapCach
 0006:C023D2B5       a3Initrd0x08lx0
 0006:C023D303       aArchArmMmInitC
 0006:C023D34C       aOnDisablingIni
 0006:C023D38C       aIngMemmap
 0006:C023D399       a6Memory
 0006:C023D3A4       aLdmb
 0006:C023D3AB       aLumbTotal
 0006:C023D3E4       aDataDkInitLukH
 0006:C023D404       a6FreeingSMemor
 0006:C023D41F       aInitrd
 0006:C023D427       aEnablingWorkAr
 0006:C023D43C       aUnableToMapMem
 0006:C023D458       aToGrabPage
 0006:C023D467       a6CpuTestingWri
 0006:C023D490       aFailedS
 0006:C023D49C       aOk
 0006:C023D4A0       aArchArmMmIorem
 0006:C023D4B6       a2RemapAreaPteP
 0006:C023D4DE       aArchArmMmPgdC
 0006:C023D4F0       a4OnlyCachepoli
 0006:C023D52C       a3ErrorUnknownO
 0006:C023D55B       aBuffered_0
 0006:C023D564       a4NocacheIsDepr
 0006:C023D592       aUncached
 0006:C023D5A4       aSDeprecatedUse
 0006:C023D5C6       a4VmallocAreaTo
 0006:C023D5F4       a4VmallocAreaIs
 0006:C023D623       a4BugNotCreatin
 0006:C023D668       a4BugMappingFor
 0006:C023D6A8       a3MmCpuDoesNotS
 0006:C023D6F2       a3MmInvalidDoma
 0006:C023D739       a3MmCannotCreat
 0006:C023D781       a4BugMapFor0x08
 0006:C023D7CE       aDis
 0006:C023D7F4       aAcheS
 0006:C023D7FD       a5IgnoringRamAt
 0006:C023D878       aP
 0006:C023D87D       aVmalloc_0
 0006:C023D886       aEcc
 0006:C023D88B       aNowb
 0006:C023D890       aNocache
 0006:C023D898       aCachepolicy
 0006:C023D8A5       aAlignment
 0006:C023D8AF       a3LdmstmPc08lxI
 0006:C023D914       aMWithSBitSet
 0006:C023D926       aUserLu
 0006:C023D932       aSystemLu
 0006:C023D940       aSkippedLu
 0006:C023D94E       aHalfLu
 0006:C023D95A       aDwordLu
 0006:C023D96C       aLu_1
 0006:C023D974       aUserFaultsIS
 0006:C023D98A       a3AlignmentTrap
 0006:C023D9BB       a3AlignmentTrap_0
 0006:C023D9FB       aAlignmentTrapS
 0006:C023DA48       aIgnored
 0006:C023DA50       aFixup
 0006:C023DA56       aFixupWarn
 0006:C023DA61       aSignal
 0006:C023DA68       aSignalWarn
 0006:C023DA74       a7SResumingVicA
 0006:C023DA8F       a7SSuspendingVi
 0006:C023DAAC       a3SCannotRegist
 0006:C023DACA       a3SFailedToRegi
 0006:C023DAEC       a3STooFewVicsIn
 0006:C023DB1D       aVic
 0006:C023DB21       aVic_0
 0006:C023DB25       a6Congratulatio
 0006:C023DB47       aVirtarm
 0006:C023DB4F       aNwfpe
 0006:C023DB55       a4NetwinderFloa
 0006:C023DB94       a7NwfpeSDTakesE
 0006:C023DBCC       aSchedDebug
 0006:C023DBD8       a3BadScheduling
 0006:C023DC08       aSchedulingWhil
 0006:C023DC31       aKernelSchedRtC
 0006:C023DC43       aKernelSchedFai
 0006:C023DC57       aKernelSchedC
 0006:C023DC66       aCfsRqD
 0006:C023DC74       a30sLd06ld
 0006:C023DC89       aExecClock
 0006:C023DC94       aMinVruntime
 0006:C023DCA1       aMinVruntime_0
 0006:C023DCAE       aMaxVruntime
 0006:C023DCBB       aSpread
 0006:C023DCC2       aSpread0
 0006:C023DCCA       a30sLd
 0006:C023DCD9       a30sD
 0006:C023DCE7       aNrSpreadOver
 0006:C023DCF6       aRtRqD
 0006:C023DD03       a30sLd_0
 0006:C023DD12       aRtNrRunning
 0006:C023DD20       aRtThrottled
 0006:C023DD2D       aRtTime
 0006:C023DD35       aRtRuntime
 0006:C023DD40       aSchedDebugVers
 0006:C023DD65       aNowAtLu06ldMse
 0006:C023DD7D       a40sLd
 0006:C023DD8C       aJiffies
 0006:C023DD94       a40sLd06ld
 0006:C023DDA9       aSysctlSchedLat
 0006:C023DDBE       aSysctlSchedMin
 0006:C023DDDB       aSysctlSchedWak
 0006:C023DDFB       aSysctlSchedChi
 0006:C023DE19       aSysctlSchedFea
 0006:C023DE2F       aCpuD_1
 0006:C023DE38       a30sLu
 0006:C023DE47       aNrSwitches
 0006:C023DE53       aNrLoadUpdates
 0006:C023DE63       aNrUninterrupti
 0006:C023DE76       aNextBalance
 0006:C023DE83       aCurrPid
 0006:C023DE8D       aCpuLoad0
 0006:C023DE99       aCpuLoad1
 0006:C023DEA5       aCpuLoad2
 0006:C023DEB1       aCpuLoad3
 0006:C023DEBD       aCpuLoad4
 0006:C023DEC9       aRunnableTasksT
 0006:C023DFB1       a15s5d9ld06ld9l
 0006:C023DFCF       a15ld15ld15ld06
 0006:C023DFFF       aSDThreadsD
 0006:C023E016       a35s14ld06ld
 0006:C023E029       aSeExecStart
 0006:C023E037       aSeVruntime
 0006:C023E043       aSeSumExecRunti
 0006:C023E057       aSeAvgOverlap
 0006:C023E066       aSeAvgWakeup
 0006:C023E074       a35s21ld
 0006:C023E081       aNrVoluntarySwi
 0006:C023E0B0       aELoadWeight
 0006:C023E0BE       aPrio
 0006:C023E0C3       aClockDelta
 0006:C023E0CF       a61313sC
 0006:C023E0DE       aCRunning
 0006:C023E0EC       aC08lx
 0006:C023E0F7       aC5lu5d6d0x08lx
 0006:C023E110       a6TaskPcStackPi
 0006:C023E140       aKernelForkC
 0006:C023E14E       aMmMmapSem
 0006:C023E15C       aIncludeLinuxCr
 0006:C023E171       aTaskStruct
 0006:C023E17D       aIncludeLinuxSe
 0006:C023E196       a6ForkProcessSU
 0006:C023E1D1       aSighandCache
 0006:C023E1DF       aSignalCache
 0006:C023E1EC       aFilesCache
 0006:C023E1F8       aFsCache
 0006:C023E201       aMmStruct
 0006:C023E20B       aVmAreaStruct
 0006:C023E21A       aPersonalityLd
 0006:C023E22A       aDD16sS
 0006:C023E23C       aExecdomains
 0006:C023E248       aLinux
 0006:C023E24E       a0KernelPanicNo
 0006:C023E271       a0RebootingInDS
 0006:C023E28E       a4DisablingLock
 0006:C023E2BF       a4EndTrace016ll
 0006:C023E2DF       a4CutHere
 0006:C023E308       a4WarningAtSDPs
 0006:C023E324       aTainted
 0006:C023E32E       aNotTainted
 0006:C023E33A       aKernelPrintkC
 0006:C023E350       a5lu06lu
 0006:C023E35D       a4LogBufLenAllo
 0006:C023E380       a5LogBufLenD
 0006:C023E394       a6DebugIgnoring
 0006:C023E3BA       aSuspendingCons
 0006:C023E3F3       a0S
 0006:C023E3F9       a6TurnOffBootCo
 0006:C023E418       a6ConsoleHandov
 0006:C023E449       a6ConsoleSDEnab
 0006:C023E464       aKernelExitC
 0006:C023E472       aIncludeLinuxPt
 0006:C023E489       aAieeKillingInt
 0006:C023E4AA       aAttemptedToKil
 0006:C023E4CB       a1FixingRecursi
 0006:C023E4FC       a6NoteSDExitedW
 0006:C023E52A       aAttemptedToKil_0
 0006:C023E542       aIncludeLinuxPi
 0006:C023E560       aKernelSoftirqC
 0006:C023E571       aAttemptToKillT
 0006:C023E599       aKsoftirqdD
 0006:C023E5A6       aKsoftirqdForIF
 0006:C023E5BF       a3HuhEnteredSof
 0006:C023E60C       aHi
 0006:C023E63D       aBad_0
 0006:C023E643       aS0Llx0LlxS
 0006:C023E65A       aIoports
 0006:C023E662       aIomem
 0006:C023E668       a4TryingToFreeN
 0006:C023E6A2       aCheckRegion
 0006:C023E6AF       aRelaxed
 0006:C023E6B7       aStrict
 0006:C023E6BE       aKernelResource
 0006:C023E6D0       aExpandedResour
 0006:C023E740       aS_3
 0006:C023E745       aPciMem
 0006:C023E754       aKernelSysctlC
 0006:C023E764       aSLu
 0006:C023E76A       a6WarningProces
 0006:C023E7B0       aInodeNr
 0006:C023E7B9       aInodeState
 0006:C023E7C5       aFileNr
 0006:C023E7CD       aFileMax
 0006:C023E7D6       aNrOpen
 0006:C023E7DE       aDentryState
 0006:C023E7EB       aOverflowuid
 0006:C023E7F7       aOverflowgid
 0006:C023E803       aLeasesEnable
 0006:C023E811       aDirNotifyEnabl
 0006:C023E823       aLeaseBreakTime
 0006:C023E834       aAioNr
 0006:C023E83B       aAioMaxNr
 0006:C023E846       aInotify
 0006:C023E84E       aEpoll
 0006:C023E864       aErcommitMemory
 0006:C023E874       aPanicOnOom
 0006:C023E881       aOomKillAllocat
 0006:C023E89A       aOomDumpTasks
 0006:C023E8A9       aOvercommitRati
 0006:C023E8BA       aPageCluster
 0006:C023E8C7       aDirtyBackgroun
 0006:C023E8DE       aDirtyBackgroun_0
 0006:C023E8F5       aDirtyRatio
 0006:C023E901       aDirtyBytes
 0006:C023E90D       aDirtyWriteback
 0006:C023E927       aDirtyExpireCen
 0006:C023E93E       aNrPdflushThrea
 0006:C023E951       aSwappiness
 0006:C023E95C       aLowmemReserveR
 0006:C023E971       aDropCaches
 0006:C023E97D       aMinFreeKbytes
 0006:C023E98D       aPercpuPagelist
 0006:C023E9A6       aMaxMapCount
 0006:C023E9B4       aLaptopMode
 0006:C023E9C0       aBlockDump
 0006:C023E9CB       aVfsCachePressu
 0006:C023E9DE       aMmapMinAddr
 0006:C023E9EC       aScanUnevictabl
 0006:C023EA03       aSchedMinGranul
 0006:C023EA1C       aSchedLatencyNs
 0006:C023EA2D       aSchedWakeupGra
 0006:C023EA49       aSchedSharesRat
 0006:C023EA60       aSchedSharesThr
 0006:C023EA74       aSchedMigration
 0006:C023EA89       aSchedNrMigrate
 0006:C023EA9A       aTimerMigration
 0006:C023EAAA       aSchedRtPeriodU
 0006:C023EABD       aSchedRtRuntime
 0006:C023EAD1       aSchedCompatYie
 0006:C023EAE4       aCoreUsesPid
 0006:C023EAF2       aCorePattern
 0006:C023EAFF       aRealRootDev
 0006:C023EB0D       aPrintFatalSign
 0006:C023EB21       aCtrlAltDel
 0006:C023EB2E       aModprobe
 0006:C023EB37       aModulesDisable
 0006:C023EB48       aHotplug
 0006:C023EB50       aSysrq
 0006:C023EB56       aCadPid
 0006:C023EB5E       aThreadsMax
 0006:C023EB6A       aPidMax
 0006:C023EB72       aPanicOnOops
 0006:C023EB80       aPrintkRatelimi
 0006:C023EB91       aPrintkRatelimi_0
 0006:C023EBA8       aNgroupsMax
 0006:C023EBB4       aRandomizeVaSpa
 0006:C023EBC7       aSoftlockupPani
 0006:C023EBD8       aSoftlockupThre
 0006:C023EBEA       aHungTaskPanic
 0006:C023EBFA       aHungTaskCheckC
 0006:C023EC10       aHungTaskTimeou
 0006:C023EC27       aHungTaskWarnin
 0006:C023EC3A       aMaxLockDepth
 0006:C023EC49       aPoweroffCmd
 0006:C023EC56       aVm
 0006:C023EC59       a6WarningSUses3
 0006:C023EC9C       a6WarningSUsesD
 0006:C023ECED       a2CapableCalled
 0006:C023ED16       aKernelCapabili
 0006:C023ED2A       aKernelPtraceC
 0006:C023ED3A       aKernelTimerC
 0006:C023ED49       a3HuhEnteredPWi
 0006:C023ED88       a3ScheduleTimeo
 0006:C023EDB6       aUidCache
 0006:C023EDC0       aKernelSignalC
 0006:C023EDD0       aSDPotentiallyU
 0006:C023EE00       aSigqueue
 0006:C023EE09       a0PowerDown
 0006:C023EE19       a4SFailedToAllo_0
 0006:C023EE43       a4FailedToStart
 0006:C023EE7B       a0SystemHalted
 0006:C023EE8E       a0RestartingSys
 0006:C023EEA5       a0RestartingSys_0
 0006:C023EECE       aKernelSysC
 0006:C023EEDB       aPathSbinBinUsr
 0006:C023EEFE       aKernelKmodC
 0006:C023EF0C       aQ
 0006:C023EF12       a3RequestModule
 0006:C023EF3F       aKhelper
 0006:C023EF47       aPathSbinUsrSbi
 0006:C023EF6A       aKernelWorkqueu
 0006:C023EF7D       aSD_0
 0006:C023EF83       a3BugWorkqueueL
 0006:C023EFBA       a3LastFunction
 0006:C023EFD1       aPidHashTableEn
 0006:C023F004       aCouldNotAllocP
 0006:C023F01E       aKernelRcupdate
 0006:C023F030       aHi_0
 0006:C023F034       aHu
 0006:C023F038       aLi
 0006:C023F03C       aKernelParamsC
 0006:C023F04C       aParameters
 0006:C023F057       a3SStringParame
 0006:C023F079       a3SStringParame_0
 0006:C023F09B       a3SMissingParam
 0006:C023F0BB       a3SStringDoesnT
 0006:C023F0E3       a4SDErrorCreati
 0006:C023F104       a3ModuleSFailed
 0006:C023F139       a3TheSystemWill
 0006:C023F15E       a3SExpectsArgum
 0006:C023F178       a3SCanOnlyTakeI
 0006:C023F19B       a3SNeedsAtLeast
 0006:C023F1BF       a4ParseArgsOpti
 0006:C023F1EC       a3SUnknownParam
 0006:C023F20B       a3SSTooLargeFor
 0006:C023F235       a3SSInvalidForP
 0006:C023F25D       aPosixClockRegi
 0006:C023F28A       aPosixTimersCac
 0006:C023F29D       aKthreadd
 0006:C023F2A6       aKernelKfifoC
 0006:C023F2B5       aKernelPosixCpu
 0006:C023F2CF       a6RtWatchdogTim
 0006:C023F2EF       aKernelHrtimerC
 0006:C023F300       aNsproxy
 0006:C023F308       aSpMutex
 0006:C023F313       aKernelSrcuC
 0006:C023F321       aNhMutex
 0006:C023F32C       aKernelNotifier
 0006:C023F33E       aNotes
 0006:C023F344       aUeventHelper
 0006:C023F352       aUeventSeqnum
 0006:C023F360       aProcessD
 0006:C023F36B       a3PmQosParamCpu
 0006:C023F39A       a3PmQosParamNet
 0006:C023F3C9       a3PmQosParamNet_0
 0006:C023F3FB       aNetworkThrough
 0006:C023F40E       aNetworkLatency
 0006:C023F41E       aCpuDmaLatency
 0006:C023F42E       aCredPutCredRcu
 0006:C023F45A       aKernelCredC
 0006:C023F468       aPCredGuardMute
 0006:C023F47D       aCredJar
 0006:C023F486       aAsyncWaitingI
 0006:C023F49A       aAsyncContinuin
 0006:C023F4C1       aAsyncI
 0006:C023F4CA       aCallingLliPfI
 0006:C023F4E2       aInitcallLliPfR
 0006:C023F511       aAsyncMgr
 0006:C023F51B       aKernelAsyncC
 0006:C023F52A       aTimekeeping
 0006:C023F536       a5ClockInsertin
 0006:C023F564       a5ClockDeleting
 0006:C023F591       aPmtmr
 0006:C023F597       aWarningClockPm
 0006:C023F5D5       aAcpiPm
 0006:C023F5DD       aWarningClockBo
 0006:C023F61D       aAvailableClock
 0006:C023F633       aCurrentClockso
 0006:C023F647       aTimerList
 0006:C023F652       aP_0
 0006:C023F657       aTimerListVersi
 0006:C023F678       aMaxClockBasesD
 0006:C023F68E       aNowAtLdNsecs
 0006:C023F6A0       aCpuD
 0006:C023F6A9       aClockD
 0006:C023F6B5       aBaseP
 0006:C023F6C8       aIndexD
 0006:C023F6E4       aTionLuNsecs
 0006:C023F6F5       aGetTime
 0006:C023F705       aActiveTimers
 0006:C023F715       aD_1
 0006:C023F71C       aS02lx
 0006:C023F726       aExpiresAtLuLuN
 0006:C023F759       aTickDeviceMode
 0006:C023F774       aPerCpuDeviceD
 0006:C023F788       aClockEventDevi
 0006:C023F79D       aNull
 0006:C023F7B8       aEventHandler
 0006:C023F7E0       aMinDeltaNsLu
 0006:C023F7FC       aLu_2
 0006:C023F80B       aShiftD
 0006:C023F820       aModeD
 0006:C023F835       aNextEventLdNse
 0006:C023F851       aSetNextEvent
 0006:C023F863       aKernelTimeCloc
 0006:C023F87D       aKernelTimeTick
 0006:C023F899       aKernelFutexC
 0006:C023F8A8       a3FixupOwnerRet
 0006:C023F8DB       aKernelRtmutexC_0
 0006:C023F8EC       aKernelRtmutexC
 0006:C023F904       a4MaximumLockDe
 0006:C023F934       aKernelUpC
 0006:C023F940       a4SymbolSIsBein
 0006:C023F999       a4PleaseSeeTheF
 0006:C023FA08       aLive
 0006:C023FA0D       aUnloading
 0006:C023FA17       aLoading
 0006:C023FA1F       aSU
 0006:C023FA25       aU
 0006:C023FA2A       aS_4
 0006:C023FA2E       aPermanent
 0006:C023FA3B       a0xP
 0006:C023FA41       aModules
 0006:C023FA49       aSGaveUpWaiting
 0006:C023FA75       aSOutOfMemoryLo
 0006:C023FA90       aKernelModuleC
 0006:C023FAA0       a3SModuleSysfsN
 0006:C023FAC5       a3SModuleIsAlre
 0006:C023FAE6       aHolders
 0006:C023FAF4       aGnuLinkonceThi
 0006:C023FB0D       a4NoModuleFound
 0006:C023FB2B       a4SModuleHasNoS
 0006:C023FB55       aVersions
 0006:C023FB60       aModinfo
 0006:C023FB69       aVermagic
 0006:C023FB72       a3SVersionMagic
 0006:C023FB9C       aStaging
 0006:C023FBA4       a4SModuleIsFrom
 0006:C023FC00       aInit
 0006:C023FC16       aPlAndAdditiona
 0006:C023FC2F       aDualBsdGpl
 0006:C023FC3C       aDualMitGpl
 0006:C023FC49       aDualMplGpl
 0006:C023FC56       a4SModuleLicens
 0006:C023FC81       aNdiswrapper
 0006:C023FC8D       aDriverloader
 0006:C023FC9A       aSPleaseCompile
 0006:C023FCBF       a4SUnknownSymbo
 0006:C023FCD9       aParam
 0006:C023FCE1       aKsymtab
 0006:C023FCEB       aKcrctab
 0006:C023FCF5       aKsymtabGpl
 0006:C023FD03       aKcrctabGpl
 0006:C023FD11       aKsymtabGplFutu
 0006:C023FD26       aKcrctabGplFutu
 0006:C023FD3B       aCtors
 0006:C023FD5C       aYmbolSOwnedByS
 0006:C023FD74       aExTable
 0006:C023FD7F       aDebug
 0006:C023FD86       aVerbose
 0006:C023FD90       aObsparm
 0006:C023FD9A       a4SIgnoringObso
 0006:C023FDBF       aSections
 0006:C023FDC8       a3ModuleLenLuTr
 0006:C023FE28       aOnventionSLoad
 0006:C023FE50       aDModulesLinked
 0006:C023FE66       aSS_1
 0006:C023FE6C       aLastUnloadedS
 0006:C023FE81       aLive_0
 0006:C023FE86       aComing
 0006:C023FE8D       aGoing
 0006:C023FE93       aInitstate
 0006:C023FE9D       aRefcnt
 0006:C023FEA4       aSrcversion
 0006:C023FEAF       aKernelKallsyms
 0006:C023FEC1       a0LxCSS
 0006:C023FED3       a0LxCS
 0006:C023FEE0       aKallsyms
 0006:C023FEE9       a0xLx
 0006:C023FEEF       aLxLxS
 0006:C023FEFF       aLxLx
 0006:C023FF0A       aPower
 0006:C023FF10       a3FreezingOfTas
 0006:C023FF62       a3S_0
 0006:C023FF6A       aElapsedD02dSec
 0006:C023FF85       aFreezingUserSp
 0006:C023FFA8       aFreezingRemain
 0006:C023FFD0       aDone_0
 0006:C023FFD6       aKernelPowerPro
 0006:C023FFED       aRestartingTask
 0006:C0240003       a3PmSomeDevices
 0006:C024002A       a3PmSomeDevices_0
 0006:C0240054       aKernelPowerSus
 0006:C024006B       a6PmSyncingFile
 0006:C024008B       aStandby
 0006:C0240093       aPoweroff
 0006:C024009C       aPowerOff
 0006:C02400A6       aKernelSoftlock
 0006:C02400BA       aWatchdogD
 0006:C02400C6       a3WatchdogForIF
 0006:C02400E1       a3BugSoftLockup
 0006:C0240117       aSoftlockupHung
 0006:C024012E       aKhungtaskd
 0006:C024014C       aBlockedForMore
 0006:C0240171       a3Echo0ProcSysK
 0006:C02401BF       aHungTaskBlocke
 0006:C02401D8       aIrqDDescPDepth
 0006:C024020F       aHandleIrqP
 0006:C0240225       aChipP
 0006:C0240234       aActionP
 0006:C0240244       aActionHandlerP
 0006:C0240268       aIrqInprogress
 0006:C0240277       aIrqDisabled
 0006:C0240284       aIrqPending
 0006:C0240290       aIrqReplay
 0006:C024029B       aIrqAutodetect
 0006:C02402AA       aIrqWaiting
 0006:C02402B6       aIrqLevel
 0006:C02402C0       aIrqMasked
 0006:C02402CB       aIrqNoprobe
 0006:C02402D7       aIrqNorequest
 0006:C02402E5       aIrqNoautoen
 0006:C02402F2       a6NrIrqsD
 0006:C0240301       a4IrqDDeviceSRe
 0006:C0240350       aDummy
 0006:C0240356       aKernelIrqManag
 0006:C024036A       aUnbalancedIrqD
 0006:C024038A       aTryingToFreeIr
 0006:C02403B3       aTryingToFreeAl
 0006:C02403F8       a3SettingTrigge
 0006:C024042C       aIrqDS
 0006:C0240454       aRequestedD
 0006:C0240464       a4IrqDSIrqfDisa
 0006:C02404A2       a3ExitingTaskSD
 0006:C02404DE       a6IrqLockupDete
 0006:C0240500       a4MisroutedIrqF
 0006:C0240551       a4MisroutedIrqF_0
 0006:C0240585       a4ThisMaySignif
 0006:C02405E4       aIrqDNobodyCare
 0006:C0240623       a3Handlers
 0006:C0240631       a3P
 0006:C024063B       aS_5
 0006:C0240641       a0DisablingIrqD
 0006:C0240657       a3TryingToInsta
 0006:C0240687       a3TryingToInsta_0
 0006:C02406B1       a3BugBadSetIrqC
 0006:C02406D8       aChained
 0006:C02406E1       a3TryingToInsta_1
 0006:C024070E       a4TryingToInsta
 0006:C0240742       a3TryingToSetIr_0
 0006:C0240774       aIpC
 0006:C0240779       a3TryingToIniti
 0006:C02407A0       a3TryingToClean
 0006:C02407C4       a3DestroyingIrq
 0006:C02407F2       a3TryingToInsta_2
 0006:C0240820       aYingToInstallC
 0006:C0240840       a3TryingToMarkI
 0006:C0240867       a3TryingToMarkI_0
 0006:C024088A       aKernelIrqDevre
 0006:C02408C0       aEdUMs
 0006:C02408CA       aSpurious
 0006:C02408D3       aIrq
 0006:C02408D7       a6HierarchicalR
 0006:C02408FC       aOstype
 0006:C0240903       aOsrelease
 0006:C024090D       aHostname
 0006:C0240916       aDomainname
 0006:C0240921       a6BootmemSNidTd_0
 0006:C024095F       a6BootmemSNidTd_1
 0006:C0240989       aMmBootmemC
 0006:C0240996       a6BootmemSNidTd_2
 0006:C02409C9       a6BootmemSSilen
 0006:C02409FA       a6BootmemSNidTd_3
 0006:C0240A38       a1BootmemAllocO
 0006:C0240A5F       aOutOfMemory
 0006:C0240A6D       a6BootmemSNidTd_4
 0006:C0240AB7       a6BootmemSNidTd_5
 0006:C0240AEC       a6BootmemSNidTd
 0006:C0240B11       aMmFilemapC
 0006:C0240B1E       aMmMempoolC
 0006:C0240B2B       aMmOomKillC
 0006:C0240B39       a4TriedToKillIn
 0006:C0240B51       a4TriedToKillAn
 0006:C0240B74       a3KilledProcess
 0006:C0240B8F       a4SInvokedOomKi
 0006:C0240BD1       a6PidUidTgidTot
 0006:C0240C0C       a65d5d5d8lu8lu3
 0006:C0240C37       a3SKillProcessD
 0006:C0240C69       aOutOfMemoryOom
 0006:C0240C92       aOutOfMemoryAnd
 0006:C0240CBE       aOutOfMemoryFro
 0006:C0240CF8       aOutOfMemoryCom
 0006:C0240D2D       aOutOfMemoryPan
 0006:C0240D5C       aBadPageStateLu
 0006:C0240D87       a1BugBadPageSta
 0006:C0240DB8       a1PagePFlagsPCo
 0006:C0240DF7       aMmPageAllocC
 0006:C0240E07       aYes
 0006:C0240E0B       aSPerCpu
 0006:C0240E18       aCpu4dHi5dBtch4
 0006:C0240E3B       aActiveAnonLuAc
 0006:C0240EEE       aSFreeLukbMinLu
 0006:C0240FB0       aLowmemReserve
 0006:C0240FC2       aLuLukb
 0006:C0240FCD       aLdTotalPagecac
 0006:C0240FE8       aBuiltIZonelist
 0006:C0241031       a7
 0006:C0241035       aCMminitMemmapI
 0006:C024107F       aIncludeLinuxGf
 0006:C0241093       a4SPageAllocati
 0006:C02410C8       aFailedToAlloca
 0006:C02410EA       a6SHashTableEnt
 0006:C024111F       a7OnNodeDTotalp
 0006:C024113E       a7FreeAreaInitN
 0006:C0241180       a7SZoneLuPagesU
 0006:C02411A9       a4SZoneLuPagesE
 0006:C02411D7       a7SZoneLuPagesR
 0006:C02411F9       aNormal
 0006:C0241200       a7SZoneLuPagesL
 0006:C0241229       aMovable
 0006:C0241231       aMmPageWritebac
 0006:C0241245       aPdflush
 0006:C024124D       aPdflushBogusWa
 0006:C0241264       aMmPdflushC
 0006:C0241271       aMmReadaheadC
 0006:C0241280       aMmTruncateC
 0006:C024128E       aMmVmscanC
 0006:C024129A       a3ShrinkSlabPfN
 0006:C02412D1       aKswapdD
 0006:C02412DA       aFailedToStartK
 0006:C02412FD       aSOrphanedPage
 0006:C0241310       aMmShmemC
 0006:C024131B       aShmemInodeCach
 0006:C024132D       a3CouldNotRegis
 0006:C024134A       a3CouldNotKernM
 0006:C0241369       aDevZero
 0006:C0241372       aTmpfs
 0006:C0241378       aMmPrioTreeC
 0006:C0241387       aSLu_0
 0006:C024138F       aNodeDZone8s
 0006:C0241430       aLu
 0006:C0241435       a12sLu
 0006:C0241444       aProtectionLu
 0006:C024145E       aLu_3
 0006:C0241464       aPagesets
 0006:C0241471       aCpuICountIHigh
 0006:C02414C6       aAllUnreclaimab
 0006:C0241528       aNode4dZone8sTy
 0006:C0241547       a6lu
 0006:C024154D       aNodeDZone8s_0
 0006:C0241560       a12lu
 0006:C0241567       aBuddyinfo
 0006:C0241571       aPagetypeinfo
 0006:C024157E       aVmstat
 0006:C0241585       aZoneinfo
 0006:C024158E       aPageBlockOrder
 0006:C02415A4       aPagesPerBlockL
 0006:C02415BB       a43s
 0006:C02415C2       aFreePagesCount
 0006:C02415ED       a6d
 0006:C02415F2       a23s
 0006:C0241600       aOfBlocksType
 0006:C0241610       aNrFreePages
 0006:C024161E       aNrInactiveAnon
 0006:C024162F       aNrActiveAnon
 0006:C024163E       aNrInactiveFile
 0006:C024164F       aNrActiveFile
 0006:C024165E       aNrUnevictable
 0006:C024166D       aNrMlock
 0006:C0241676       aNrAnonPages
 0006:C0241684       aNrMapped
 0006:C024168E       aNrFilePages
 0006:C024169C       aNrDirty
 0006:C02416A5       aNrWriteback
 0006:C02416B2       aNrSlabReclaima
 0006:C02416C6       aNrSlabUnreclai
 0006:C02416DC       aNrPageTablePag
 0006:C02416F0       aNrUnstable
 0006:C02416FC       aNrBounce
 0006:C0241706       aNrVmscanWrite
 0006:C0241716       aNrWritebackTem
 0006:C0241728       aPgpgin
 0006:C024172F       aPgpgout
 0006:C0241737       aPswpin
 0006:C024173E       aPswpout
 0006:C0241746       aPgallocNormal
 0006:C0241755       aPgallocMovable
 0006:C0241765       aPgfree
 0006:C024176C       aPgactivate
 0006:C0241777       aPgdeactivate
 0006:C0241784       aPgfault
 0006:C024178C       aPgmajfault
 0006:C0241797       aPgrefillNormal
 0006:C02417A7       aPgrefillMovabl
 0006:C02417B8       aPgstealNormal
 0006:C02417C7       aPgstealMovable
 0006:C02417D7       aPgscanKswapdNo
 0006:C02417EC       aPgscanKswapdMo
 0006:C0241802       aPgscanDirectNo
 0006:C0241817       aPgscanDirectMo
 0006:C024182D       aPginodesteal
 0006:C024183A       aSlabsScanned
 0006:C0241848       aKswapdSteal
 0006:C0241855       aKswapdInodeste
 0006:C0241867       aPageoutrun
 0006:C0241872       aAllocstall
 0006:C024187D       aPgrotated
 0006:C0241887       aUnevictablePgs
 0006:C024189E       aUnevictablePgs_0
 0006:C02418B6       aUnevictablePgs_1
 0006:C02418CE       aUnevictablePgs_2
 0006:C02418E6       aUnevictablePgs_3
 0006:C0241900       aUnevictablePgs_4
 0006:C0241918       aUnevictablePgs_5
 0006:C0241931       aUnevictablePgs_6
 0006:C024194C       aUnmovable
 0006:C0241956       aReclaimable
 0006:C0241962       aReserve
 0006:C024196A       aIsolate
 0006:C0241972       aBdi
 0006:C0241976       aReadAheadKb
 0006:C0241984       aMinRatio
 0006:C024198E       aMaxRatio
 0006:C0241998       aMmPageIsolatio
 0006:C02419AC       aMm
 0006:C02419AF       a7MminitZonelis
 0006:C02419CF       aGeneral
 0006:C02419D7       aC0S
 0006:C02419E0       aC
 0006:C02419E5       aCMminitPagefla_0
 0006:C0241A2D       aCMminitPagefla_1
 0006:C0241A6C       aCMminitPagefla
 0006:C0241AAF       aCMminitPagefla_2
 0006:C0241AE7       aCMminitPagefla_3
 0006:C0241B3C       aMmMmInitC
 0006:C0241B49       aMmFremapC
 0006:C0241B55       aMmMadviseC
 0006:C0241B68       aBadPageMapLuMe
 0006:C0241B91       a1BugBadPageMap
 0006:C0241BCC       a1AddrPVmFlags0
 0006:C0241C08       a1VmaVmOpsFault
 0006:C0241C23       a1VmaVmFileFOpM
 0006:C0241C44       aMmMemoryC
 0006:C0241C50       aSSLxLx
 0006:C0241C5E       aMmMlockC
 0006:C0241C69       aMmMmapC
 0006:C0241C73       aMmMprotectC
 0006:C0241C81       aMmRmapC
 0006:C0241C8B       aAnonVma
 0006:C0241C94       a0xP0xP7ld
 0006:C0241CA3       aPagesD
 0006:C0241CAD       aPhysLx
 0006:C0241CB7       aIoremap
 0006:C0241CC0       aVmalloc
 0006:C0241CC9       aVmap
 0006:C0241CD0       aUser
 0006:C0241CD5       aVpages
 0006:C0241CDD       aVmallocinfo
 0006:C0241CE9       aMmVmallocC
 0006:C0241CF6       a4VmapAllocatio
 0006:C0241D44       a3TryingToVfree
 0006:C0241D6B       a3TryingToVfree_0
 0006:C0241D9A       a1ReadErrorOnSw
 0006:C0241DC4       a1WriteErrorOnS
 0006:C0241DEF       aLuPagesInSwapC
 0006:C0241E08       aSwapCacheStats
 0006:C0241E3D       aFreeSwapLdkb
 0006:C0241E5C       aLukb
 0006:C0241E65       a3SwapFreeS08lx
 0006:C0241E7C       a4SwapDupSwapEn
 0006:C0241E9E       a3SwapDupS08lx
 0006:C0241EB4       aPartition
 0006:C0241EBE       aFile
 0006:C0241EC4       aFilenameTypeSi
 0006:C0241EEA       aSSUUD
 0006:C0241EFA       aSwaps
 0006:C0241F00       aMmSwapfileC
 0006:C0241F0E       aSwapspace2
 0006:C0241F19       a3UnableToFindS
 0006:C0241F41       a4UnableToHandl
 0006:C0241F6D       a4SwapAreaShort
 0006:C0241F9C       a4EmptySwapFile
 0006:C0241FB0       a3SwaponSwapfil
 0006:C0241FCF       a6AddingUkSwapO
 0006:C0242014       a4SwapoffCleare
 0006:C024203D       aPoolinfo01
 0006:C024204D       a16s4u4zu4zu2u
 0006:C0242066       a3SSDmaPoolDest
 0006:C024208E       a3DmaPoolDestro
 0006:C02420AF       a3SSDmaPoolFree
 0006:C02420DD       a3DmaPoolFreeSP
 0006:C0242104       aMmDmapoolC
 0006:C0242111       aPools
 0006:C0242117       aMmSlabC
 0006:C0242121       aSlabsFullAccou
 0006:C024213D       aSlabsPartialIn
 0006:C0242162       aSlabsFreeInuse
 0006:C0242184       aFreeObjectsAcc
 0006:C02421A2       aSlabsPartialIn_0
 0006:C02421C7       a3SlabCacheSErr
 0006:C02421E4       a17s6lu6lu6u4u4
 0006:C0242200       aTunables4u4u4u
 0006:C0242218       aSlabdata6lu6lu
 0006:C0242233       aSlabinfoVersio
 0006:C024224C       aNameActiveObjs
 0006:C024229D       aTunablesLimitB
 0006:C02422CD       aSlabdataActive
 0006:C0242302       aSlabinfo
 0006:C024230B       a3SlabErrorInSC
 0006:C0242332       aCanTFreeAllObj
 0006:C0242349       a3EnableCpucach
 0006:C0242376       aDDD
 0006:C0242380       a3SEarlyErrorIn
 0006:C024239F       a3SlabCacheWith
 0006:C02423CE       a3KmemCacheCrea_0
 0006:C02423F8       a3KmemCacheCrea
 0006:C0242429       aKmemCacheCreat
 0006:C024245A       aKmemCache
 0006:C0242465       aSize32
 0006:C024246D       aSize32Dma
 0006:C024247A       aSize64
 0006:C0242482       aSize64Dma
 0006:C024248F       aSize96
 0006:C0242497       aSize96Dma
 0006:C02424A4       aSize128
 0006:C02424AD       aSize128Dma
 0006:C02424BB       aSize192
 0006:C02424C4       aSize192Dma
 0006:C02424D2       aSize256
 0006:C02424DB       aSize256Dma
 0006:C02424E9       aSize512
 0006:C02424F2       aSize512Dma
 0006:C0242500       aSize1024
 0006:C024250A       aSize1024Dma
 0006:C0242519       aSize2048
 0006:C0242523       aSize2048Dma
 0006:C0242532       aSize4096
 0006:C024253C       aSize4096Dma
 0006:C024254B       aSize8192
 0006:C0242555       aSize8192Dma
 0006:C0242564       aSize16384
 0006:C024256F       aSize16384Dma
 0006:C024257F       aSize32768
 0006:C024258A       aSize32768Dma
 0006:C02425A0       a5536
 0006:C02425A5       aSize65536Dma
 0006:C02425B5       aSize131072
 0006:C02425CC       aDma
 0006:C02425D2       aSize262144
 0006:C02425DE       aSize262144Dma
 0006:C02425FC       aIze524288Dma
 0006:C024260C       aSize1048576
 0006:C024262C       aIze2097152
 0006:C0242638       aSize2097152Dma
 0006:C024264A       aSize4194304
 0006:C024265C       a4194304Dma
 0006:C0242669       a3VfsCloseFileC
 0006:C0242694       aNcludeLinuxDca
 0006:C02426CC       a6VfsFileMaxLim
 0006:C024273C       aSecondsHaveANi
 0006:C024275A       aSSUmount
 0006:C0242767       aSSLock
 0006:C024277C       aRenameMutex
 0006:C0242789       aSSDquotDqioMut
 0006:C02427A0       aSSDquotDqonoff
 0006:C02427BA       aSSDquotDqptrSe
 0006:C02427D0       aFsSuperC
 0006:C0242808       aCharMajorD
 0006:C0242816       aFsExecC
 0006:C0242820       aBinfmt04x
 0006:C024282C       a4SFailedToAllo
 0006:C024284D       a5RecursiveCore
 0006:C0242878       a6CoreDumpToSPi
 0006:C0242898       aPipeLu
 0006:C02428A3       aPipe
 0006:C02428A9       aFsPipeC
 0006:C02428B3       aFsNameiC
 0006:C024291C       aDentryPILxNSSt
 0006:C024295A       a4VfsMovingNega
 0006:C0242980       aDeleted
 0006:C024298B       aDeleted_0
 0006:C0242995       aDentryCache
 0006:C02429A2       aNamesCache
 0006:C02429AE       aDentry
 0006:C02429B5       aInodeIMutex
 0006:C02429C5       aInodeIAllocSem
 0006:C02429D9       a7InitSpecialIn
 0006:C0242A08       aCache
 0006:C0242A0F       aFsAttrC
 0006:C0242A19       a4AllocFdSlotDN
 0006:C0242A39       aSS_2
 0006:C0242A40       aFsFilesystemsC
 0006:C0242A51       aS_6
 0006:C0242A56       aFsNamespaceC
 0006:C0242A65       aRo
 0006:C0242A69       aRw_0
 0006:C0242A6D       a00
 0006:C0242A73       aDevice
 0006:C0242A7B       aNoDevice
 0006:C0242A85       aMountedOn
 0006:C0242A92       aWithFstype
 0006:C0242A9F       aIIUU
 0006:C0242AAC       aSharedI
 0006:C0242AB7       aMasterI
 0006:C0242AC2       aPropagateFromI
 0006:C0242AD5       aUnbindable
 0006:C0242AE1       aNamespaceSem
 0006:C0242AF0       aMntCache
 0006:C0242AFA       aFailedToAlloca_0
 0006:C0242B24       aCacheHashTable
 0006:C0242B44       a4SSysfsInitErr
 0006:C0242B6C       aCreateError
 0006:C0242B88       aRootfs
 0006:C0242B8F       aCanTAllocateIn
 0006:C0242BB0       aNosuid
 0006:C0242BB8       aNodev
 0006:C0242BBF       aNoexec
 0006:C0242BC7       aNoatime
 0006:C0242BD0       aNodiratime
 0006:C0242BDC       aRelatime
 0006:C0242BE6       aStrictatime
 0006:C0242BF4       aSync
 0006:C0242BF9       aDirsync
 0006:C0242C02       aMand
 0006:C0242C08       aPLock
 0006:C0242C11       aSecurity
 0006:C0242C1B       aSystem_1
 0006:C0242C23       aTrusted
 0006:C0242C2C       aUser_0
 0006:C0242C32       a4SSPassedInAFi
 0006:C0242C68       aAttrMutex
 0006:C0242C75       aFsLibfsC
 0006:C0242C80       aIncludeLinuxHi
 0006:C0242C98       aBdev
 0006:C0242C9D       a7SDDirtiedInod
 0006:C0242CC6       aFsFsWritebackC
 0006:C0242CD8       aFsPnodeC
 0006:C0242CE3       aFsSpliceC
 0006:C0242CEF       aEmergencySyncC
 0006:C0242D08       aFsSyncC
 0006:C0242D12       a3BufferIOError
 0006:C0242D47       aFsBufferC
 0006:C0242D53       a4EmergencyThaw_0
 0006:C0242D6C       a4EmergencyThaw
 0006:C0242D88       aFindGetBlockSl
 0006:C0242DC4       aBState0x08lxBS
 0006:C0242DE1       aDeviceBlocksiz
 0006:C0242DF7       a4LostPageWrite
 0006:C0242E22       a3VfsBrelseTryi
 0006:C0242E4E       a3GetblkInvalid
 0006:C0242E7C       a3LogicalBlockS
 0006:C0242E97       a3SRequestedOut
 0006:C0242ECF       a6WarningProces_0
 0006:C0242F0F       a6FixYourInitsc
 0006:C0242F29       aBufferHead
 0006:C0242F35       aFsBioC
 0006:C0242F3E       a3BioUnableToFi
 0006:C0242F5C       aBioD
 0006:C0242F63       aBioCreateSlabS
 0006:C0242F80       aBioCanTAllocat
 0006:C0242F9A       aBioCanTCreateS
 0006:C0242FB8       aBiovec1
 0006:C0242FC1       aBiovec4
 0006:C0242FCA       aBiovec16
 0006:C0242FD4       aBiovec64
 0006:C0242FDE       aBiovec128
 0006:C0242FE9       aBiovec256
 0006:C0242FF4       aFsBlockDevC
 0006:C0243003       a3VfsFilesystem
 0006:C0243022       aBdev_0
 0006:C0243028       aBdevBdMutex
 0006:C0243038       aBdevBdFsfreeze
 0006:C0243051       a4VfsBusyInodes
 0006:C024308A       a6SDetectedCapa
 0006:C02430BD       a3VfsFilesystem_0
 0006:C02430DE       aBdevCache
 0006:C02430E9       aCannotRegister
 0006:C0243108       aCannotCreateBd
 0006:C0243125       aFsDirectIoC
 0006:C0243134       aFsMpageC
 0006:C024313F       aFsnotifyEvent
 0006:C024314E       aFsnotifyEventH
 0006:C0243164       aFsNotifyNotifi
 0006:C024317D       aFsNotifyGroupC
 0006:C024318F       aGroupNotificat
 0006:C02431AA       aFsNotifyInodeM
 0006:C02431C1       aDnotifyStruct
 0006:C02431D0       aDnotifyMarkEnt
 0006:C02431E3       aUnableToAlloca
 0006:C0243212       aFsNotifyDnotif
 0006:C024322E       aFsNotifyInotif
 0006:C0243253       aInotifyClosing
 0006:C02432AE       a4EntryGroupPIn
 0006:C02432D1       aInotifyRegiste
 0006:C02432FC       aInotifyKernMou
 0006:C024331A       aInotifyInodeMa
 0006:C0243333       aInotifyEventPr
 0006:C024334E       aFsNotifyInotif_0
 0006:C024336F       aInotifyfs
 0006:C0243379       aMaxUserInstanc
 0006:C024338C       aMaxUserWatches
 0006:C02433A8       aEvents
 0006:C02433AF       aEventpollEpi
 0006:C02433BD       aEventpollPwq
 0006:C02433CB       aEpMtx
 0006:C02433D4       aEventpoll
 0006:C02433E0       aAnonInode
 0006:C02433EC       a3AnonInodeInit
 0006:C024340E       aAnonInodefs
 0006:C024341B       aSignalfd
 0006:C0243426       aTimerfd
 0006:C0243430       aEventfd
 0006:C024343A       aFsAioC
 0006:C0243443       aKiocb
 0006:C0243449       aKioctx
 0006:C0243450       aAio
 0006:C0243454       aAioRunIocbIocb
 0006:C0243479       a7ExitAioIoctxS
 0006:C02434A2       aAccess
 0006:C02434A9       aPosix
 0006:C02434B0       aMandatory
 0006:C02434BA       aNoinode
 0006:C02434C4       aAdvisory
 0006:C02434CE       aRead
 0006:C02434D4       aNone_0
 0006:C02434DA       aWrite
 0006:C02434E0       aRw
 0006:C02434E6       aUnlck
 0006:C02434EC       aDS
 0006:C02434F3       a6sS
 0006:C02434FB       aFlockMsnfs
 0006:C024350D       aFlockAdvisory
 0006:C024351F       aLease
 0006:C0243527       aBreaking
 0006:C0243532       aActive
 0006:C024353D       aBreaker
 0006:C0243548       aUnknownUnknown
 0006:C024356C       aDNone0
 0006:C0243579       aLdEof
 0006:C0243582       aLdLd
 0006:C024358B       a0Eof
 0006:C0243596       aFileLockCache
 0006:C02435A6       aFsLocksC
 0006:C02435B1       a3LocksDeleteLo
 0006:C02435D5       aSvc
 0006:C02435DA       aAdd
 0006:C02435DF       aDel
 0006:C02435E4       aUnexport
 0006:C02435EE       aGetfd
 0006:C02435FC       aCore
 0006:C0243601       aRsdtzw
 0006:C0243608       aIncludeLinuxSw
 0006:C0243620       aStack
 0006:C0243628       aHeap
 0006:C0243630       aVdso
 0006:C024364C       a08llx02x02xLuN
 0006:C0243663       aC_0
 0006:C0243770       aVmpeak8luKbVms
 0006:C024380A       aDePutEntrySAlr
 0006:C024382A       aProcInodeCache
 0006:C024383B       aProcReadSuperG
 0006:C0243868       aMounts
 0006:C024386F       aSysvipc
 0006:C0243877       aFsNfsd
 0006:C024387F       aBus
 0006:C0243883       aProc
 0006:C0243889       a25s20s20s10s
 0006:C02438A2       aSoftLimit
 0006:C02438B8       aUnits
 0006:C02438C4       a20s
 0006:C02438CB       aUnlimited
 0006:C02438D5       a25s20lu
 0006:C02438E3       aPosLliFlags0O
 0006:C02438F9       aSelf
 0006:C02438FE       aFdinfo
 0006:C0243905       aEnviron
 0006:C024390D       aAuxv
 0006:C0243912       aStatus
 0006:C0243919       aPersonality
 0006:C024392C       aCmdline
 0006:C0243934       aStatm
 0006:C024393A       aCwd
 0006:C024393E       aExe
 0006:C0243942       aMountinfo
 0006:C024394C       aClearRefs
 0006:C0243958       aMaps
 0006:C024395D       aPagemap
 0006:C0243965       aWchan
 0006:C024396B       aOomScore
 0006:C0243975       aOomAdj
 0006:C024397D       aMountstats
 0006:C0243988       aCoredumpFilter
 0006:C0243998       aMaxCpuTime
 0006:C02439A5       aMaxFileSize
 0006:C02439BC       aSize
 0006:C02439C1       aMaxStackSize
 0006:C02439D0       aMaxCoreFileSiz
 0006:C02439E8       aEsidentSet
 0006:C02439F4       aMaxProcesses
 0006:C0243A02       aMaxOpenFiles
 0006:C0243A1C       aMemory
 0006:C0243A23       aMaxAddressSpac
 0006:C0243A35       aMaxFileLocks
 0006:C0243A44       aMaxPendingSign
 0006:C0243A58       aMaxMsgqueueSiz
 0006:C0243A6A       aMaxNicePriorit
 0006:C0243A7C       aMaxRealtimePri
 0006:C0243C8E       aRoups
 0006:C0243C96       aThreadsD
 0006:C0243CA3       aSigqLuLu
 0006:C0243CB2       aSigpnd
 0006:C0243CBB       aShdpnd
 0006:C0243CC4       aSigblk
 0006:C0243CCD       aSigign
 0006:C0243CD6       aSigcgt
 0006:C0243CDF       aCapinh
 0006:C0243CE8       aCapprm
 0006:C0243CF1       aCapeff
 0006:C0243CFA       aCapbnd
 0006:C0243D03       aVoluntaryCtxtS
 0006:C0243D41       aDDDDDDD
 0006:C0243D57       aRRunning
 0006:C0243D63       aSSleeping
 0006:C0243D70       aDDiskSleep
 0006:C0243D7F       aTStopped
 0006:C0243D8B       aTTracingStop
 0006:C0243D9C       aZZombie
 0006:C0243DA7       aXDead
 0006:C0243DB0       a3dDD
 0006:C0243DBB       a3d7d
 0006:C0243DC4       aDevTty
 0006:C0243DCE       aConsole
 0006:C0243DD7       aVtmaster
 0006:C0243DE1       aSerial
 0006:C0243DE8       aPtyMaster_0
 0006:C0243DF3       aPtySlave
 0006:C0243DFD       aTypeDD
 0006:C0243E08       a20sDev8s
 0006:C0243E19       aSystemDevTty
 0006:C0243E2A       aSystemConsole
 0006:C0243E3A       aDevPtmx
 0006:C0243E44       aDevVc0
 0006:C0243E4E       aSystemVtmaster
 0006:C0243E5F       aTtyLdisc
 0006:C0243E69       aTtyDriver
 0006:C0243E74       aTtyLdiscs
 0006:C0243E7F       aTtyDrivers
 0006:C0243E8B       aCpuinfo
 0006:C0243E93       aCharacterDevic
 0006:C0243EA7       aBlockDevices
 0006:C0243EB8       aDevices
 0006:C0243EC0       aInterrupts
 0006:C0243ECB       aLu02luLu02luLu
 0006:C0243EF4       aLoadavg
 0006:C0243EFC       aMeminfo
 0006:C0243F04       aMemtotal8luKbM
 0006:C02441ED       aCpuLluLluLluLl
 0006:C0244220       aCpuDLluLluLluL
 0006:C0244254       aIntrLlu
 0006:C024425E       aCtxtLluBtimeLu
 0006:C02442A6       aSoftirqLlu
 0006:C02442B3       aLu02luLu02lu
 0006:C02442C8       aUptime
 0006:C02442E0       aCpu8d
 0006:C02442E8       a8s
 0006:C02442ED       a10u_0
 0006:C02442F3       aSoftirqs
 0006:C02442FC       aFsProcProcSysc
 0006:C0244312       aSys
 0006:C0244316       aSelfNet
 0006:C024431F       aKmsg
 0006:C0244324       aKpagecount
 0006:C024432F       aKpageflags
 0006:C024433A       aUnknownBlockUU
 0006:C024434F       a8lu8lu8llu8u8l
 0006:C0244384       aSpD
 0006:C024438A       aSlaves
 0006:C0244391       a6S
 0006:C0244399       aUnableToReadPa
 0006:C02443BA       a4SPDIgnoredSta
 0006:C02443F8       a4SPDSizeLluExc
 0006:C0244427       aCEnablingNativ
 0006:C0244444       aCLimitedToEndO
 0006:C024445F       a3SPDCouldNotBe
 0006:C0244484       aUnknownPartiti
 0006:C024449E       aWholeDisk
 0006:C02444A9       aAlignmentOffse
 0006:C02444BA       aAix
 0006:C02444C1       aSD_1
 0006:C02444CD       aDm
 0006:C02444D2       aEzd
 0006:C02444D8       aFsSysfsSysfsH
 0006:C02444E9       aFsSysfsInodeC
 0006:C02444FA       aFsSysfsFileC
 0006:C024450A       a3MissingSysfsA
 0006:C0244541       aBufferMutex
 0006:C0244550       aFillReadBuffer
 0006:C0244579       aSysfsd
 0006:C0244580       a0LastSysfsFile
 0006:C0244598       aFsSysfsDirC
 0006:C02445C8       aFilenameS
 0006:C02445D8       aFsSysfsSymlink
 0006:C02445EF       a7SysfsCouldNot
 0006:C0244613       a7SCouldNotGetR
 0006:C0244636       aSysfsDirCache
 0006:C0244646       a3SysfsCouldNot
 0006:C0244662       aSysfs
 0006:C0244668       aBbMutex
 0006:C0244673       aFsSysfsBinC
 0006:C0244682       aFsSysfsGroupC
 0006:C0244693       a4SysfsGroupPNo
 0006:C02446C1       aUidU
 0006:C02446C9       aGidU
 0006:C02446D1       aMode03o
 0006:C02446DC       a3DevptsGetRoot
 0006:C02446FF       a3DevptsCalledW
 0006:C0244725       aFsDevptsInodeC
 0006:C0244737       aDevpts
 0006:C024473E       aModeO
 0006:C0244746       aFsExt2BallocC
 0006:C0244757       aBlockAllocatio
 0006:C0244787       aReservationWin
 0006:C02447B5       aBadReservation_0
 0006:C02447D8       aBadReservation
 0006:C0244801       aWindowMapCompl
 0006:C0244817       aExt2GetGroupDe
 0006:C024482B       aBlockGroupGrou
 0006:C024486E       aGroupDescripto
 0006:C02448BB       aCannotReadBloc
 0006:C02448FA       aInvalidBlockBi
 0006:C024492F       aExt2FreeBlocks
 0006:C0244940       aFreeingBlocksN
 0006:C024497A       aFreeingBlocksI
 0006:C02449B4       aBitAlreadyClea
 0006:C02449D6       aExt2NewBlocksN
 0006:C02449FA       aExt2NewBlocks
 0006:C0244A0A       aAllocatingBloc
 0006:C0244A48       aBlockLuBlocksC
 0006:C0244A85       aRecLenIsSmalle
 0006:C0244AA5       aUnalignedDirec
 0006:C0244ABF       aRecLenIsTooSma
 0006:C0244AE1       aDirectoryEntry
 0006:C0244AFF       aInodeOutOfBoun
 0006:C0244B13       aSizeOfDirector
 0006:C0244B4A       aBadEntryInDire
 0006:C0244B9D       aExt2CheckPage
 0006:C0244BAD       aEntryInDirecto
 0006:C0244BF2       aBadPageInLu
 0006:C0244C03       aZeroLengthDire
 0006:C0244C1F       aDirLuSizeLldEx
 0006:C0244C4A       aFsExt2DirC
 0006:C0244C58       aKaddrPDeP
 0006:C0244C69       aReadInodeBitma
 0006:C0244C7B       aCannotReadInod
 0006:C0244CBB       aExt2FreeInode
 0006:C0244CCB       aReservedOrNone
 0006:C0244CED       aBitAlreadyClea_0
 0006:C0244D0F       aExt2ReleaseIno
 0006:C0244D22       aCanTGetDescrip
 0006:C0244D44       aExt2NewInode
 0006:C0244D53       aReservedInodeO
 0006:C0244D97       aExt2BlockToPat
 0006:C0244DAA       aBlock0
 0006:C0244DB4       aBlockBig
 0006:C0244DC0       aExt2FreeBranch
 0006:C0244DD3       aReadFailureIno
 0006:C0244DF6       aExt2GetInode
 0006:C0244E05       aBadInodeNumber_0
 0006:C0244E1B       aUnableToReadIn
 0006:C0244E54       aRSyncingExt2In
 0006:C0244E75       aDeletedInodeRe
 0006:C0244E93       aSbLu
 0006:C0244E9B       aMinixdf
 0006:C0244EA4       aGrpid
 0006:C0244EAB       aNogrpid
 0006:C0244EB4       aResuidU
 0006:C0244EBF       aResgidU
 0006:C0244ECA       aErrorsRemountR
 0006:C0244EDD       aErrorsContinue
 0006:C0244EEE       aErrorsPanic
 0006:C0244EFC       aNouid32
 0006:C0244F05       aDebug_0
 0006:C0244F0C       aOldalloc
 0006:C0244F16       aNobh
 0006:C0244F1C       aNoreservation
 0006:C0244F2B       aExt2NoUserXatt
 0006:C0244F56       aExt2NoAclOptio
 0006:C0244F7A       aExt2XipOptionN
 0006:C0244F99       a3Ext2FsQuotaOp
 0006:C0244FC6       aReservationsOn
 0006:C0244FD7       aReservationsOf
 0006:C0244FE9       aExt2InodeCache
 0006:C0244FFA       aEiTruncateMute
 0006:C024500E       aExt2FsWarningR
 0006:C0245050       aExt2FsWarningM
 0006:C0245097       aExt2FsWarningM_1
 0006:C02450E0       aExt2FsWarningM_0
 0006:C024512D       aExt2FsWarningC
 0006:C0245170       aExtIiFsSSBsLuF
 0006:C02451B8       a05b
 0006:C02451BD       a950809
 0006:C02451C6       a2Ext2FsErrorDe
 0006:C02451E9       aExt2FsPanicFro
 0006:C024520C       aRemountingFile
 0006:C024522D       a4Ext2FsWarning
 0006:C0245252       aSb
 0006:C0245256       aExt2FsInvalidS
 0006:C024527D       aExt2FsUnableTo_0
 0006:C024529F       aExt2FsUnableTo_1
 0006:C02452E4       aTOnRev0FsRunni
 0006:C0245312       aExt2FsSCouldnT
 0006:C024535E       aExt2FsSCouldnT_0
 0006:C02453AF       a3Ext2FsBlocksi
 0006:C02453DC       aExt2FsCouldnTR
 0006:C024540B       aExt2FsMagicMis
 0006:C0245432       aExt2FsUnsuppor
 0006:C0245457       aVfsUnsupported
 0006:C024547E       aExt2FsFragsize
 0006:C02454BA       aExt2FsBlocksPe
 0006:C02454E3       aExt2FsFragment
 0006:C024550F       aExt2FsInodesPe
 0006:C0245538       aExt2FsNotEnoug
 0006:C0245554       aExt2FsUnableTo
 0006:C024557F       aExt2CheckDescr
 0006:C0245596       aBlockBitmapFor
 0006:C02455CA       aInodeBitmapFor
 0006:C02455FE       aInodeTableForG
 0006:C0245631       a3Ext2FsCorrupt
 0006:C024565D       a3Ext2FsGetRoot
 0006:C0245680       aMountingExt3Fi
 0006:C02456A1       aVfsCanTFindAnE
 0006:C02456D0       aExt2FsGroupDes
 0006:C02456F7       aRefusingChange
 0006:C0245735       aExt2FsSCouldnT_1
 0006:C0245788       aUpdatingToRevD
 0006:C02457D6       aBsddf
 0006:C02457DC       aBsdgroups
 0006:C02457E6       aSysvgroups
 0006:C02457F1       aSbU
 0006:C02457F7       aCheckNone
 0006:C0245802       aNocheck
 0006:C024580A       aOrlov
 0006:C0245810       aNouserXattr
 0006:C024581D       aXip
 0006:C0245821       aGrpquota
 0006:C024582A       aNoquota
 0006:C0245832       aUsrquota
 0006:C024583B       a3CramfsWrongEn
 0006:C0245857       a3CramfsWrongMa
 0006:C024586F       a3CramfsUnsuppo
 0006:C024589B       a3CramfsRootIsN
 0006:C02458BF       a6CramfsEmptyFi
 0006:C02458DB       a3CramfsBadRoot
 0006:C02458FB       a3CramfsBadComp
 0006:C0245923       aCramfs
 0006:C024592A       aZlibInflateres
 0006:C0245946       aErrorDWhileDec
 0006:C0245965       aPDPD
 0006:C0245975       aTryingToFreeBl
 0006:C024599B       aMinixFreeBlock_0
 0006:C02459C8       aMinixFreeBlock
 0006:C02459F8       aBadInodeNumber
 0006:C0245A29       aUnableToReadIn_0
 0006:C0245A45       aMinixFreeInode
 0006:C0245A75       aMinixFreeInode_0
 0006:C0245AA7       aMinixFreeInode_1
 0006:C0245AD2       aMinixNewInodeB
 0006:C0245AF4       aMinixFsBlockTo
 0006:C0245B26       aMinixFsBlockTo_0
 0006:C0245B5C       aMinixFsWarning
 0006:C0245BA4       aMinixFsWarning_0
 0006:C0245BEE       aIoErrorSyncing
 0006:C0245C17       aMinixInodeCach
 0006:C0245C68       aMended
 0006:C0245C70       aMinixFsMountin
 0006:C0245CB9       aMinixFsGetRoot
 0006:C0245CDA       aMinixFsBadSupe_0
 0006:C0245D18       aCanTAllocateMa
 0006:C0245D2C       aMinixFsBadSupe
 0006:C0245D54       aDAMinixFilesys
 0006:C0245D8C       aSBlocksizeTooS
 0006:C0245DB4       aFsUnableToRead
 0006:C0245DD4       aMinix
 0006:C0245DDA       aFsMinixDirC
 0006:C0245DE9       aNfsFreeClientU
 0006:C0245E1C       aCouldnTCreateR
 0006:C0245E50       aEdcache
 0006:C0245E5A       aNfsProbeFsinfo
 0006:C0245E72       aNfsProbeFsinfo_0
 0006:C0245E8E       aNfsProbeFsinfo_1
 0006:C0245EAC       aNvServerPortDe
 0006:C0245EDC       aLlxLlx
 0006:C0245EE6       aVUSS7s17sS
 0006:C0245EFF       aNo
 0006:C0245F08       aRverPortUseHos
 0006:C0245F22       aVUSS3dS
 0006:C0245F34       aNfsPutClientD
 0006:C0245F4E       aFsNfsClientC
 0006:C0245F5E       aNfsFreeServer
 0006:C0245F75       aNfsFreeServer_0
 0006:C0245F8C       aNfsInitServer
 0006:C0245FA3       aNfsGetClientSV
 0006:C0245FBF       aNfsGetClientLd
 0006:C0245FE4       aNfsGetClientPN
 0006:C0246005       aNfsGetClientPS
 0006:C0246028       aNfsInitServerE
 0006:C024604B       aNfsInitClient0
 0006:C0246073       aSCannotCreateR
 0006:C024609E       aNfsInitClientX
 0006:C02460C1       aNfsInitServer0
 0006:C02460E5       aNfsInitServerX
 0006:C0246108       aNfsCreateServe
 0006:C024612F       aServerFsidLlxL
 0006:C0246147       aNfsCloneServer
 0006:C024616A       aClonedFsidLlxL
 0006:C0246182       aNfsCloneServer_0
 0006:C024619F       aNfsCloneServer_1
 0006:C02461C2       aFsNfsfs
 0006:C02461CB       aServers
 0006:C02461D3       aVolumes
 0006:C02461E0       aFsyncDirSSData
 0006:C02461FE       aNfsMknodSLdS
 0006:C0246216       aNfsMkdirSLdS
 0006:C024622E       aNfsCreateSLdS
 0006:C024624C       aOpenDirSS
 0006:C0246264       aReadingCookieL
 0006:C0246288       aNfsNfsDoFilldi
 0006:C02462C4       aSDoFilldirFill
 0006:C0246304       aReaddirSSStart
 0006:C024632C       aNfsReaddirSear
 0006:C0246384       aSearchingForCo
 0006:C02463A0       aNfsSSearchingP
 0006:C02463CC       aNfsSExaminingC
 0006:C02463EB       aNfsFoundCookie
 0006:C024640F       aNfsSReturnsD
 0006:C0246424       aNfsUncachedRea
 0006:C0246456       aNfsReaddirSSRe
 0006:C024647C       aLlseekDirSSLld
 0006:C02464A0       aOkupSS
 0006:C02464B4       aNkSSSS
 0006:C02464C8       aNfsSillyRename
 0006:C02464E9       aNfsLx
 0006:C02464F4       aX
 0006:C02464FA       aNfsTryingToRen
 0006:C024651A       aNfsRmdirSLdS
 0006:C0246532       aNfsSymlinkSLdS_0
 0006:C0246550       aNfsSymlinkSLdS
 0006:C0246577       aSSSHasDudInode
 0006:C0246590       aNfsSSSIsValid
 0006:C02465A9       aNfsSSSIsInvali
 0006:C02465C4       aNfsPermissionS
 0006:C02465F0       aNfsDentryDelet
 0006:C024660F       aNfsUnlinkSLdS
 0006:C0246628       aNfsSafeRemoveS
 0006:C0246641       aNfsRenameSSSSC
 0006:C0246665       aNfsReleasePage
 0006:C024667C       aNfsSpliceReadS
 0006:C024669E       aNfsFsyncFileSS
 0006:C02466C2       aNfsFlushSS
 0006:C02466DC       aLeaseSS
 0006:C02466EA       aNfsMmapSS
 0006:C02466FC       aNfsVmPageMkwri
 0006:C024672B       aNfsReadSSLuLu
 0006:C0246746       aNfsLlseekFileS
 0006:C0246770       aUnderPageLdLlu
 0006:C024678C       aWriteEndSSLdUL
 0006:C02467AC       aNfsWriteBeginS
 0006:C02467D3       aNfsSpliceWrite
 0006:C02467F6       aNfsWriteSSLuLd
 0006:C0246812       a6NfsAttemptToW
 0006:C0246848       aTleaseSSArgLd
 0006:C0246864       aFsFileC
 0006:C02468A8       aFsFlockSSTXFlX
 0006:C02468CC       aLockSSTXFlXRLl
 0006:C02468F8       aOpenFileSS
 0006:C0246914       aIdatePagePLu
 0006:C0246929       aNfsGetRootGeta
 0006:C024694B       aNfsGetRootGetR_0
 0006:C0246970       aNfsGetRootGetR
 0006:C0246996       aRpcCreatingWor
 0006:C02469BC       aNfsiod
 0006:C02469C3       aNfsInodeCache
 0006:C02469D3       aNfsSLdDataCach
 0006:C02469F9       aFsNfsInodeC
 0006:C0246A08       aNfsSSLdCtDInfo
 0006:C0246A29       aNfsChangeAttrC
 0006:C0246A5C       aNfsMtimeChange
 0006:C0246A89       aNfsIsizeChange
 0006:C0246AB6       a7SInodeLdModeC
 0006:C0246AE3       a3NfsServerSErr
 0006:C0246B36       aNfsNfsFhgetSLd
 0006:C0246B54       aNfsFhgetIgetFa
 0006:C0246B7B       aNfsRevalidatin
 0006:C0246BC0       aIledErrorD
 0006:C0246BD0       aNfsRevalidateI
 0006:C0246C09       aNfsSLdRevalida
 0006:C0246C2E       aSStatfsErrorD
 0006:C0246C45       aVersU
 0006:C0246C4E       aRsizeU
 0006:C0246C58       aWsizeU
 0006:C0246C62       aBsizeU
 0006:C0246C6C       aNamlenU
 0006:C0246C77       aAcregminU
 0006:C0246C84       aAcregmaxU
 0006:C0246C91       aAcdirminU
 0006:C0246C9E       aAcdirmaxU
 0006:C0246CAB       aProtoS
 0006:C0246CB5       aPortU
 0006:C0246CBE       aTimeoLu
 0006:C0246CC9       aRetransU
 0006:C0246CD5       aSecS
 0006:C0246CDD       aMountaddrPi4
 0006:C0246CF8       aPi6
 0006:C0246D08       aUnspecified
 0006:C0246D14       aMountversU
 0006:C0246D22       aMountportU
 0006:C0246D30       aMountprotoUdp
 0006:C0246D40       aMountprotoTcp
 0006:C0246D50       aMountprotoAuto
 0006:C0246D61       aFsc
 0006:C0246D66       aStatversS
 0006:C0246D72       a10
 0006:C0246D76       aOpts
 0006:C0246D7F       aAgeLu
 0006:C0246D8A       aCaps
 0006:C0246D93       aCaps0xX
 0006:C0246D9D       aWtmultU
 0006:C0246DA8       aDtsizeU
 0006:C0246DB3       aSecFlavorU
 0006:C0246DC4       aPseudoflavorU
 0006:C0246DD5       aEvents_0
 0006:C0246DE0       aLu_0
 0006:C0246DE5       aBytes
 0006:C0246DEF       aLu_4
 0006:C0246DF4       aAddrS
 0006:C0246DFD       aNfsXdevGetSb
 0006:C0246E14       aXX
 0006:C0246E1A       aNfsXdevGetSb0
 0006:C0246E35       aNfsXdevGetSbDE
 0006:C0246E59       aNfsXdevGetSbDS
 0006:C0246E84       aRsingIpv4Addre
 0006:C0246E9C       aNfsMountOption
 0006:C0246EC1       aNfsNfsMountOpt
 0006:C0246EDB       aNfsParsingNfsM
 0006:C0246F01       aNfsParsingSecS
 0006:C0246F1D       aNfsUnrecognize
 0006:C0246F42       aNfsUnrecognize_0
 0006:C0246F6A       aNfsInvalidLook
 0006:C0246F94       aRelaxingParsin
 0006:C0246FAE       aNfsIgnoringMou
 0006:C0246FD8       aUnrecognizedMo
 0006:C0246FF8       a6NfsNotEnoughM
 0006:C0247023       a6NfsBadMountOp
 0006:C0247052       aNfsDeviceNameN
 0006:C024707C       aNfsNotEnoughMe
 0006:C02470A9       aNfsServerHostn
 0006:C02470C8       aNfsExportPathn
 0006:C02470E7       aNfsMntpathS
 0006:C02470FB       aNfsUnableToMou
 0006:C0247125       aNfsMountProgra_0
 0006:C0247154       aNfsNfsMountDat
 0006:C0247188       aNfsNfsMountDat_0
 0006:C02471BC       aNfsNotEnoughMe_0
 0006:C02471EC       aNfsMountProgra
 0006:C024721B       aNfsInvalidRoot
 0006:C0247239       aKrb5
 0006:C024723E       aKrb5i
 0006:C0247244       aKrb5p
 0006:C024724A       aLkey
 0006:C024724F       aLkeyi
 0006:C0247255       aLkeyp
 0006:C024725B       aSpkm
 0006:C0247260       aSpkmi
 0006:C0247266       aSpkmp
 0006:C024726C       aSoft
 0006:C0247272       aHard
 0006:C0247278       aPosix_0
 0006:C024727F       aNocto
 0006:C0247286       aNoac
 0006:C024728C       aNolock
 0006:C0247294       aNoacl
 0006:C024729B       aNordirplus
 0006:C02472A7       aNosharecache
 0006:C02472B5       aNoresvport
 0006:C02472C1       aPos
 0006:C02472C5       aPositive
 0006:C02472CE       aSpkm3
 0006:C02472D4       aSpkm3i
 0006:C02472DB       aSpkm3p
 0006:C02472E2       aRdma
 0006:C02472E7       aBg
 0006:C02472EA       aFg
 0006:C02472ED       aRetryS
 0006:C02472F6       aSloppy
 0006:C02472FD       aNointr
 0006:C0247304       aNoposix
 0006:C024730C       aFscS
 0006:C0247313       aNofsc
 0006:C0247319       aRsizeS
 0006:C0247322       aWsizeS
 0006:C024732B       aBsizeS
 0006:C0247334       aRetransS
 0006:C024733F       aAcregminS
 0006:C024734B       aAcregmaxS
 0006:C0247357       aAcdirminS
 0006:C0247363       aAcdirmaxS
 0006:C024736F       aActimeoS
 0006:C024737A       aNamlenS
 0006:C0247384       aMountportS
 0006:C0247391       aMountversS
 0006:C024739E       aNfsversS
 0006:C02473A9       aMinorversionU
 0006:C02473B9       aMountprotoS
 0006:C02473C7       aClientaddrS
 0006:C02473D5       aMounthostS
 0006:C02473E2       aMountaddrS
 0006:C02473EF       aLookupcacheS
 0006:C02473FE       aNfsStatToErrno
 0006:C0247432       aNfsReaddirRepl
 0006:C0247470       aAddirHeaderIsS
 0006:C02474A4       aGiantFilenameI
 0006:C02474D0       aReaddirReplyTr
 0006:C02474EA       aNfsReadReplyHe
 0006:C024751E       aNfsReadHeaderI
 0006:C024758C       aCReadresOkCoun
 0006:C02475A9       aNfsServerRetur
 0006:C02475CE       aNfsReadlinkRep
 0006:C0247606       aNfsReadlinkHea
 0006:C0247644       aRverCheatingIn
 0006:C024767A       aGetattr
 0006:C0247682       aSetattr
 0006:C024768A       aLookup
 0006:C0247691       aReadlink
 0006:C024769A       aRead_0
 0006:C024769F       aCreate
 0006:C02476A6       aRemove
 0006:C02476AD       aRename
 0006:C02476B4       aSymlink
 0006:C02476BC       aMkdir
 0006:C02476C2       aRmdir
 0006:C02476C8       aReaddir
 0006:C02476D0       aStatfs
 0006:C02476EC       aMmitCall
 0006:C024773C       aLu_5
 0006:C0247748       a5uWriteVerifyF
 0006:C0247768       aUCommitFailedW
 0006:C0247788       aNfs5uCommitVer
 0006:C02477C4       aNfsNfsDirectIo
 0006:C02477F4       aNfsDirectReadS
 0006:C0247816       aNfs5uInitiated_0
 0006:C0247860       aFsNfsDirectC
 0006:C0247870       aNfsDirectWrite
 0006:C02478F4       aSPagelistC
 0006:C0247901       a3NfsInvalidUnl
 0006:C0247923       aNfsPage
 0006:C024792C       aFsNfsProcC
 0006:C024793A       aNfsCallFsinfo
 0006:C024794C       aNfsReplyFsinfo
 0006:C0247962       aNfsCallStatfs
 0006:C0247974       aNfsReplyStatfs
 0006:C0247990       aLlReaddirD
 0006:C02479A0       aNfsReplyReaddi
 0006:C02479B7       aNfsCallRmdirS
 0006:C02479CB       aNfsReplyRmdirD
 0006:C02479E0       aNfsCallLinkS
 0006:C02479F3       aNfsReplyLinkD
 0006:C0247A07       aNfsCallRenameS
 0006:C0247A22       aNfsReplyRename
 0006:C0247A38       aNfsCallRemoveS
 0006:C0247A4D       aNfsReplyRemove
 0006:C0247A63       aNfsCallReadlin
 0006:C0247A77       aNfsReplyReadli
 0006:C0247A8F       aNfsCallLookupS
 0006:C0247AA4       aNfsReplyLookup
 0006:C0247ABA       aNfsCallGetattr
 0006:C0247AD4       aLyGetattrD
 0006:C0247AE4       aSCallGetattr
 0006:C0247AF6       aSReplyGetattrD
 0006:C0247B0D       aSCallStatfs
 0006:C0247B1E       aSReplyStatfsD
 0006:C0247B34       aNfsCallMknodS
 0006:C0247B48       aNfsReplyMknodD
 0006:C0247B5D       aNfsCallMkdirS
 0006:C0247B71       aNfsReplyMkdirD
 0006:C0247B86       aNfsCallSymlink
 0006:C0247B9C       aNfsReplySymlin
 0006:C0247BB3       aNfsCallCreateS
 0006:C0247BC8       aNfsReplyCreate
 0006:C0247BDE       aNfsCallSetattr
 0006:C0247BF8       aLySetattrD
 0006:C0247C08       aNfs5uInitiated
 0006:C0247C4A       aNfsReadDoneSLd
 0006:C0247C6A       aNfsS5uStatusD
 0006:C0247C8C       aSReadpagePLdLu
 0006:C0247CAC       aSReadpagesSLdD
 0006:C0247CC5       aNfsReadData
 0006:C0247CD8       a5uNfsCommitDon
 0006:C0247D00       aUInitiatedWrit
 0006:C0247D3E       aFsNfsWriteC
 0006:C0247D58       aIteSLldDLld
 0006:C0247D6E       aErrorD
 0006:C0247D7C       aMarkedForCommi
 0006:C0247D90       aDeferCommit
 0006:C0247D9F       aServerRebootDe
 0006:C0247DB8       aNfs5uNfsWriteb
 0006:C0247DE1       aNfsFaultyNfsSe
 0006:C0247E25       a4NfsServerWrot
 0006:C0247E54       aNfs5uWriteSLld
 0006:C0247E74       aNfsCommitSLldD
 0006:C0247E98       aMismatch
 0006:C0247EA3       aNfsNfsUpdatepa
 0006:C0247ECD       aNfsNfsUpdatepa_0
 0006:C0247F00       aNfsWriteData
 0006:C0247F0F       aNfsFollowMount
 0006:C0247F2C       aSEnter
 0006:C0247F37       aNfsDoSubmount
 0006:C0247F4E       aSSubmountingOn
 0006:C0247F68       aSDone
 0006:C0247F72       aNfsDoSubmountP
 0006:C0247F8E       aSDoneReturnedD
 0006:C0247FC0       aD_0
 0006:C0247FC7       aNfsReceivedUAu
 0006:C0247FE6       aNfsFlavorUD
 0006:C0247FFA       aServer
 0006:C0248008       aNdingMntReques
 0006:C024802C       aTRequestSuccee
 0006:C0248048       aIledToCreateMn
 0006:C0248072       aNfsMntRequestF
 0006:C0248096       aNfsMntServerRe
 0006:C02480BA       aMount
 0006:C02480C0       aTftpbootS
 0006:C02480DC       aOrtOfRpcDDOnPi
 0006:C02480FC       aTNfsUnknownOpt
 0006:C0248148       aNg
 0006:C024814D       a3RootNfsNoNfsS
 0006:C024817F       a3RootNfsUnable_0
 0006:C02481F4       aNfsdPort
 0006:C0248200       a3RootNfsUnable
 0006:C024824A       aRootNfsMountdP
 0006:C0248267       a3RootNfsServer
 0006:C02482A0       aTimeoU
 0006:C02482A9       aNfsvers2
 0006:C02482B3       aNfsvers3
 0006:C02482C4       aLMknodSUU
 0006:C02482DC       aAllSetattrPost
 0006:C02482F8       aNfsReplySetatt
 0006:C0248328       aSinfo
 0006:C024832F       aSReplyFsinfoD
 0006:C024834C       aLAccess
 0006:C024835C       aEplyAccessD
 0006:C0248374       aLReaddirSD
 0006:C024838C       aLFsstat
 0006:C024839C       aAllPathconf
 0006:C02483B0       aEplyPathconfD
 0006:C02483C8       aGiantFilehandl
 0006:C02483F8       aAdCountDoesnTM
 0006:C0248422       aNfsFhTruncated
 0006:C024843C       aEaddirplus
 0006:C0248447       aFsstat
 0006:C024844E       aFsinfo
 0006:C0248455       aPathconf
 0006:C024845E       aCommit
 0006:C0248465       aNfsMountpointT
 0006:C024847C       aNfsCongestionK
 0006:C024848E       a3ExportEeekFil
 0006:C02484CC       aSNpdPd
 0006:C02484DB       aUnableToStartN
 0006:C0248507       a4SUnexpectedEr
 0006:C024857C       aSSvcDrcMaxPage
 0006:C024859C       aReatingService
 0006:C02485AD       aNfsdDispatchVe
 0006:C02485CD       aNfsdFailedToDe
 0006:C02485F0       aNfsdDroppingRe
 0006:C0248620       aNfsdFailedToEn
 0006:C0248640       aFsNfsExports
 0006:C024864F       aFsNfs
 0006:C0248656       aDC
 0006:C024865B       aUUUUC
 0006:C0248669       a6InstallingKnf
 0006:C02486A6       a15s4u
 0006:C02486AF       aSCD
 0006:C02486B6       aC4U
 0006:C02486BE       aFilehandle
 0006:C02486C9       aUnlockIp
 0006:C02486D3       aUnlockFilesyst
 0006:C02486E5       aPoolThreads
 0006:C02486F2       aPoolStats
 0006:C02486FD       aPortlist
 0006:C0248706       aMaxBlockSize
 0006:C0248715       aNfsdStatfsS
 0006:C0248728       aNfsdReaddirSDB
 0006:C024874A       aNfsdRmdirSS
 0006:C0248762       aNfsdRemoveSS
 0006:C024877A       aNfsdSymlinkSSS
 0006:C024879A       aNfsdLinkS
 0006:C02487B0       aNfsdSS
 0006:C02487C2       aNfsdRenameSS
 0006:C02487DE       aNfsdSS_1
 0006:C02487F8       aNfsdReadlinkS
 0006:C024880B       a6NfsdNonStanda
 0006:C024882C       aNfsdLookupSS
 0006:C0248844       aNfsdMkdirSS
 0006:C024885C       a4NfsdProcMkdir
 0006:C02488BC       aDD_0
 0006:C02488C4       aIncludeLinuxNf
 0006:C02488DF       a4FhLockSSAlrea
 0006:C0248902       a4NfsdProcCreat
 0006:C0248931       aNfsdExistingSV
 0006:C024895A       aNfsdWriteSDByt
 0006:C024897C       aNfsdGetattrS
 0006:C024898F       aNfsdSetattrSVa
 0006:C02489B6       aNfsdReadSDByte
 0006:C02489D7       a5OversizedRead
 0006:C0248A05       aNfsdAcceptable
 0006:C0248A26       a4NfsdRequestFr
 0006:C0248A4F       a3FhUpdateFhNot
 0006:C0248A6F       a3FhUpdateSSSti
 0006:C0248A94       aNfsdFhComposeE
 0006:C0248AC8       a3FhComposeFhSS
 0006:C0248AF2       a3FhComposeCall
 0006:C0248B20       aD08x08x08x08x0
 0006:C0248B42       aNfsdFhVerifyS
 0006:C0248B57       aNfsdFindFhDent
 0006:C0248B96       aNfsdFhVerifyJu
 0006:C0248BB7       aFhVerifySSPerm
 0006:C0248BEE       aNfsdSyncFileS
 0006:C0248C02       aNfsdWriteDefer
 0006:C0248C18       aNfsdWriteResum
 0006:C0248C2F       aNfsdWriteSyncD
 0006:C0248C44       aNfsdWriteCompl
 0006:C0248C66       aNfsdNfsdLookup
 0006:C0248C8C       aDCreateParentS
 0006:C0248CB0       aNfsdCreateDent
 0006:C0248CD9       a4NfsdBadFileTy
 0006:C0248D03       aNfsdFreeingRea
 0006:C0248D25       aNfsdAllocating
 0006:C0248D4D       aNfsdKmallocFai
 0006:C0248D84       aDomainS
 0006:C0248D8F       aFoundFsidtypeD
 0006:C0248DA2       aFoundFsidLengt
 0006:C0248DB8       aPathSeemsToBeS
 0006:C0248DCF       aFoundThePathS
 0006:C0248DE2       aDomainFsidtype
 0006:C0248E00       aSD0x
 0006:C0248E0E       aExpExportExpor
 0006:C0248E3D       aExpExportExpor_0
 0006:C0248E65       aFsloc
 0006:C0248E6B       aUuid_0
 0006:C0248E70       aSecinfo
 0006:C0248E78       a5NfsdCouldnTVa
 0006:C0248E9E       aRefer
 0006:C0248EA4       aReplicas
 0006:C0248EAD       aPathDomainFlag
 0006:C0248EC2       aFsidD
 0006:C0248ECB       aAnonuidU
 0006:C0248ED7       aAnongidU
 0006:C0248EE3       aS_7
 0006:C0248EF0       aUuid
 0006:C0248EF7       aSecD
 0006:C0248EFF       aVersion11
 0006:C0248F0E       aPathClientFlag
 0006:C0248F2A       aExpExportCalle
 0006:C0248F57       aNfsdCreatingEx
 0006:C0248F85       aNfsdUnexportCo
 0006:C0248FAC       aExpRootfhPathN
 0006:C0248FC9       aNfsdExpRootfhS
 0006:C0248FEE       aNfsdInitializi
 0006:C0249011       aNfsdShuttingDo
 0006:C0249035       aNfsdExportShut
 0006:C0249056       aInsecure
 0006:C024905F       aNoRootSquash
 0006:C024906E       aAllSquash
 0006:C0249079       aNoWdelay
 0006:C0249083       aNohide
 0006:C024908A       aCrossmnt
 0006:C0249093       aNoSubtreeCheck
 0006:C02490A4       aInsecureLocks
 0006:C02490B3       aMsnfs
 0006:C02490B9       aNfsdExport
 0006:C02490C5       aNfsdFh
 0006:C02490CD       aNfsdInitializi_0
 0006:C02490E7       a3NfsdFailedToA
 0006:C0249110       aNfsdLoopInRepc
 0006:C0249131       a4NfsdDisabling
 0006:C024914F       a4NfsdCachedRep
 0006:C0249177       a4NfsdBadRepcac
 0006:C0249196       a4NfsdAllRepcac
 0006:C02491BD       aNfsdRcReplstat
 0006:C02491DE       aRcUUUFhUUUUUIo
 0006:C0249206       aThUU
 0006:C024920F       aU03u
 0006:C0249218       aRaU
 0006:C024921F       aNfsdPathconf3S
 0006:C0249235       aNfsdFsinfo3S
 0006:C024924B       aNfsdFsstat3S
 0006:C0249261       aNfsdReaddir3SD
 0006:C0249286       aNfsdReaddir3SD_0
 0006:C02492AB       aNfsdLink3S
 0006:C02492C4       aNfsdSS_0
 0006:C02492D8       aNfsdRename3SS
 0006:C02492F6       aNfsdSS_2
 0006:C0249308       aNfsdRmdir3SS
 0006:C0249338       aS_8
 0006:C024933E       aNfsdMknod3SS
 0006:C0249359       aNfsdMkdir3SS
 0006:C0249374       aNfsdSymlink3SS
 0006:C02493A8       aSS_3
 0006:C02493B2       aStable
 0006:C02493E4       aSdRead3SLuByte
 0006:C0249405       aNfsdReadlink3S
 0006:C024941B       aNfsdAccess3S0x
 0006:C0249484       aOmmit3SULu
 0006:C024949A       aFsNfsdNfs3xdrC
 0006:C02494AC       aNfsdInodeLocke
 0006:C02494D8       aLockdReclaimin
 0006:C0249530       a3LockdUnableTo
 0006:C0249584       a5LockdUnexpect
 0006:C02495C8       aStatusD
 0006:C02495D4       aLockdUnlockFai
 0006:C02495F8       aLockdUnexpecte
 0006:C024961D       aLockdCancelCal
 0006:C0249645       aLockdCancelSta_0
 0006:C0249668       aLockdCancelFai
 0006:C0249694       a5LockdWeirdRet
 0006:C02496BF       aLockdCallProce_0
 0006:C02496DF       aLockdRpcCallRe
 0006:C0249702       aLockdServerInG
 0006:C0249721       a4LockdSpurious
 0006:C024974B       aLockdServerRet
 0006:C024976C       aFsLockdClntpro
 0006:C0249780       aLockdCallProce
 0006:C02497A8       aUS
 0006:C02497AE       aNlmAllocCallFa
 0006:C02497DA       aLockdBlockingL
 0006:C0249837       a4SVfsIsOutOfSy
 0006:C0249865       aLockdLockAttem
 0006:C02498AD       aLockdClntProcR
 0006:C02498CA       a4LockdFailedTo
 0006:C024990D       aLockdHostGarba
 0006:C024992D       aNlmGcHostsSkip
 0006:C024995F       aLockdDeleteHos
 0006:C0249976       aFsLockdHostC
 0006:C0249986       aLockdNlmBindHo
 0006:C02499A4       aLockdNextRebin
 0006:C02499C7       aLockdCouldnTCr
 0006:C02499F1       aLockdRebindHos
 0006:C0249A08       aLockdGetHostS
 0006:C0249A1C       aLockdNlmLookup
 0006:C0249A47       aLockdNlmLookup_0
 0006:C0249A75       aLockdNlmLookup_1
 0006:C0249A9F       aHostHMutex
 0006:C0249AAE       aHostHRwsem
 0006:C0249ABD       aLockdNlmLookup_2
 0006:C0249AE5       aNone_2
 0006:C0249AEC       aLockdSHostSVer
 0006:C0249B15       aLockdSHostSVer_0
 0006:C0249B3F       aLockdReleaseHo
 0006:C0249B57       aLockdShuttingD
 0006:C0249B79       aLockdNukingAll
 0006:C0249B95       a4LockdCouldnTS
 0006:C0249BBF       aLockdDHostsLef
 0006:C0249BD6       aSCntDUseDExpLd
 0006:C0249C00       aKingServiceSta
 0006:C0249C21       aLockdRequestFr
 0006:C0249C39       a3LockdDownNoUs
 0006:C0249C5B       aFsLockdSvcC
 0006:C0249C6A       a3LockdDownNoLo
 0006:C0249C8C       a4LockdUpNoPidD
 0006:C0249CAD       a4LockdUpCreate
 0006:C0249CD1       a4LockdUpMakeso
 0006:C0249CF9       a4LockdUpSvcRqs
 0006:C0249D2C       a4LockdUpKthrea
 0006:C0249D57       aNlmGracePeriod
 0006:C0249D68       aNlmTimeout
 0006:C0249D74       aNlmUdpport
 0006:C0249D80       aNlmTcpport
 0006:C0249D8C       aNsmUseHostname
 0006:C0249D9E       aNsmLocalState
 0006:C0249DAE       aLockdNlmsvcIns
 0006:C0249DD3       aLockdUnlinking
 0006:C0249DF1       aLockdFreeingBl
 0006:C0249E0D       aLockdNlmsvcLoo
 0006:C0249E42       aLockdCheckFPPd
 0006:C0249E73       aLockdNlmsvcDef
 0006:C0249EAE       aLockdVfsUnbloc
 0006:C0249EDC       a4LockdNotifica
 0006:C0249F07       aLockdGrantMsgR
 0006:C0249F26       aLockdNlmsvcNot
 0006:C0249F56       a4LockdGrantFor
 0006:C0249F79       aLockdCreatedBl
 0006:C0249F95       aLockdNlmsvcLoc_0
 0006:C0249FCF       aLockdNlmsvcLoc_1
 0006:C0249FFE       aLockdVfsLockFi
 0006:C024A020       aLockdNlmsvcLoc
 0006:C024A040       aLockdNlmsvcTes
 0006:C024A070       aLockdNlmsvcTes_0
 0006:C024A0A9       aLockdConflicti
 0006:C024A0D2       aSomehost
 0006:C024A0DB       aLockdNlmsvcCan
 0006:C024A109       aLockdNlmsvcUnl
 0006:C024A137       aGrantReplyLook
 0006:C024A162       aNlmsvcFindBloc
 0006:C024A183       aNlmsvcRetryBlo
 0006:C024A1A7       aNlmsvcRetryBlo_0
 0006:C024A1E5       aRevisitBlockPF
 0006:C024A200       aLockdGrantBloc
 0006:C024A21E       aLockdLockStill
 0006:C024A242       a4LockdUnexpect
 0006:C024A268       aLockdGrantingB
 0006:C024A287       aLockdNullCalle
 0006:C024A2A4       aLockdShareCall
 0006:C024A2C1       aLockdShareStat
 0006:C024A2E1       aLockdGrantedRe
 0006:C024A32C       aCalled
 0006:C024A338       aLockdCancelMsg
 0006:C024A355       aLockdLockMsgCa
 0006:C024A372       aLockdTestMsgCa
 0006:C024A38F       aLockdGrantedCa
 0006:C024A3AC       aLockdGrantedSt
 0006:C024A3CC       aLockdLockCalle
 0006:C024A3E9       aLockdLockStatu
 0006:C024A408       aLockdNmLockCal
 0006:C024A438       aCalled_0
 0006:C024A45C       aSDVersD
 0006:C024A47C       aKReturnedD
 0006:C024A4A8       aLockdUnshareSt
 0006:C024A4C8       aLockdSmNotifyC
 0006:C024A4E5       a4LockdRejected
 0006:C024A50E       aLockdUnlockCal
 0006:C024A52B       aLockdUnlockSta
 0006:C024A54B       aLockdCancelCal_0
 0006:C024A568       aLockdCancelSta
 0006:C024A588       aLockdUnlockFai_0
 0006:C024A5A8       aFsLockdSvcsubs
 0006:C024A5F0       aNlmLookupFile
 0006:C024A600       aCreatingFileFo
 0006:C024A612       aFileFMutex
 0006:C024A621       aLockdOpenFaile
 0006:C024A640       aLockdFoundFile
 0006:C024A670       aAseFilePCtD
 0006:C024A68C       aSSLd
 0006:C024A699       aClosingFile
 0006:C024A6A6       a4LockdAttemptT
 0006:C024A6D2       aLockdNlmsvcMar
 0006:C024A6F0       aLockdNlmsvcFre
 0006:C024A713       a4LockdCouldnTR
 0006:C024A743       aRpcStatd
 0006:C024A74D       aLockdFailedToC
 0006:C024A786       aLockdNsmUpcall
 0006:C024A7AF       aLockdXdrDecSta
 0006:C024A7CD       aLockdXdrDecSta_0
 0006:C024A814       aLockdCannotMon
 0006:C024A82E       aLockdNsmStateC
 0006:C024A84E       aLockdNsmUnmoni
 0006:C024A868       a5LockdCannotUn
 0006:C024A887       a4InvalidHostna
 0006:C024A8E4       aLockdCreatedNs
 0006:C024A90B       aPi6U
 0006:C024A914       aUnsupportedAdd
 0006:C024A92F       aLockdNeverSawR
 0006:C024A95D       aLockdHostSSReb
 0006:C024AA74       aEstRes
 0006:C024AA7C       aCancelRes
 0006:C024AA87       aUnlockRes
 0006:C024AA92       aGrantedRes
 0006:C024AA9E       aLockdBadFhandl
 0006:C024AAF0       aP_1
 0006:C024AB08       aSStatusUPidDTy
 0006:C024AB38       aXdrAfterEncode
 0006:C024AB78       aLled
 0006:C024ABF0       aSReturnedD
 0006:C024AC2C       aLable
 0006:C024AC34       a4NullCompresso
 0006:C024AC76       a4Jffs2Compress
 0006:C024ACB0       a5Jffs2RenameLi
 0006:C024AD05       a4CanTAllocateD
 0006:C024AD2B       a4IgetFailedFor
 0006:C024AD49       aFsJffs2FileC
 0006:C024AD78       aAteFragAt08xPP
 0006:C024AD92       aFsJffs2Nodelis
 0006:C024ADA6       a3Jffs2ErrorDSC_0
 0006:C024ADE9       a2RefP0x08xIsNo
 0006:C024AE1F       a3Jffs2ErrorDSA_0
 0006:C024AEA8       aThenFreeSize0x
 0006:C024AECB       aJffs2FullDnode
 0006:C024AEDC       aJffs2RawDirent
 0006:C024AEED       aJffs2RawInode
 0006:C024AEFD       aJffs2TmpDnode
 0006:C024AF0D       aJffs2Refblock
 0006:C024AF1C       aJffs2NodeFrag
 0006:C024AF2C       aJffs2InodeCach
 0006:C024AF3E       a4ErrorReadingN
 0006:C024AF65       a4ShortReadFrom
 0006:C024AF9F       a4NodeCrc08xCal
 0006:C024AFD9       a4DataCrc08xCal
 0006:C024B013       a4ErrorJffs2Dec
 0006:C024B03B       a4ArghNodeAdded
 0006:C024B06D       a4Nextblock0x08
 0006:C024B081       a4NoNextblock
 0006:C024B091       aExpectedAt08x
 0006:C024B0A5       a5EeeeekJffs2Ma
 0006:C024B0E0       a5RawNodeAt0x08
 0006:C024B111       aFsJffs2Nodemgm
 0006:C024B160       aShortReadFromO
 0006:C024B190       a4NodeTotlenOnF
 0006:C024B1D3       a4WriteErrorInO
 0006:C024B210       a4ShortWriteInO
 0006:C024B2E0       a4EepBlock0x08x
 0006:C024B324       aFsJffs2Readino
 0006:C024B339       a4Jffs2WarningD_2
 0006:C024B38A       a4Jffs2WarningD_3
 0006:C024B3C7       a3Jffs2ErrorDSC_1
 0006:C024B414       a3Jffs2ErrorDSS
 0006:C024B48C       aAt0x08xRead08x
 0006:C024B4B6       a3Jffs2ErrorDSC_2
 0006:C024B4F6       a4Jffs2WarningD_4
 0006:C024B558       aT08xZuInsteadO
 0006:C024B5B8       a4x08x08x
 0006:C024B618       aJffs2NoticeDSH
 0006:C024B679       a3Jffs2ErrorDSI
 0006:C024B6CD       a3Jffs2ErrorDSR
 0006:C024B708       a5Jffs2NoticeDS
 0006:C024B763       a3Jffs2ErrorDSF_1
 0006:C024B7A0       a4Jffs2WarningD
 0006:C024B7E8       a3Jffs2ErrorDSA
 0006:C024B812       a3Jffs2ErrorDSR_0
 0006:C024B854       a3Jffs2ErrorDSN
 0006:C024B8A7       a3Jffs2ErrorDSU
 0006:C024B914       aNodetype04xAt0
 0006:C024B948       aNknownRwcompat
 0006:C024B976       a5Jffs2NoticeDS_1
 0006:C024B9EC       aForInoUReturne
 0006:C024BA0E       a3Jffs2ErrorDSA_1
 0006:C024BA94       a4Jffs2WarningD_0
 0006:C024BAD0       a5Jffs2NoticeDS_0
 0006:C024BB1C       a3Jffs2ErrorDSF
 0006:C024BB71       a3Jffs2ErrorDSC_3
 0006:C024BBCB       a4Jffs2WarningD_5
 0006:C024BC39       a3Jffs2ErrorDSC_4
 0006:C024BC97       a3Jffs2ErrorDSA_2
 0006:C024BCE9       a3Jffs2ErrorDSA_3
 0006:C024BD41       a3Jffs2ErrorDSA_4
 0006:C024BD92       a3Jffs2ErrorDSE
 0006:C024BDE9       a3Jffs2ErrorDSC_5
 0006:C024BE2B       a3Jffs2ErrorDSR_1
 0006:C024BE6E       aFSem
 0006:C024BE94       aEn0x08xSizeofR
 0006:C024BECD       aFsJffs2WriteC
 0006:C024BEDE       a5WriteOfZdByte
 0006:C024BF1F       a5NotMarkingThe
 0006:C024BF7A       a2ErrorInJffs2W
 0006:C024BFB9       a2DirectoryInod
 0006:C024BFFF       a4EepWeDidnTAct
 0006:C024C047       a4DeletingInode
 0006:C024C07F       a5Jffs2ScanMake
 0006:C024C0C3       a4EepOfs0x08xNo
 0006:C024C0E9       a4Ofs0x08xHasAl
 0006:C024C118       a4EmptyFlashAt0
 0006:C024C141       a4MagicBitmaskI
 0006:C024C18B       a4OldJffs2Bitma
 0006:C024C1B1       a4YouCannotUseO
 0006:C024C1EF       a5Jffs2ScanEras
 0006:C024C245       a5FurtherSuchEv
 0006:C024C286       a5Jffs2ScanEras_0
 0006:C024C2F6       a4NodeAt0x08xWi
 0006:C024C346       a4PerhapsTheFil
 0006:C024C389       a5Jffs2ScanInod
 0006:C024C3F8       aNodeNodeCrcFai
 0006:C024C443       a3DirentAt08xHa
 0006:C024C481       a5Jffs2ScanDire
 0006:C024C4E1       a5CleanmarkerNo
 0006:C024C525       a5CleanmarkerNo_0
 0006:C024C56C       a5ReadOnlyCompa
 0006:C024C5B2       a5IncompatibleF
 0006:C024C5F0       a4Jffs2ScanMedi
 0006:C024C628       aAnC
 0006:C024C66C       aDJffs2Nodes
 0006:C024C67B       a5EmptyBlocksDB
 0006:C024C6B4       aAderCrcFailedO
 0006:C024C704       a4NodeCrcFailed_0
 0006:C024C75C       a4DataCrcFailed
 0006:C024C7B4       a4NodeCrcFailed
 0006:C024C81C       aEntNodeAt0x08x
 0006:C024C840       a4NameCrcFailed
 0006:C024C8D0       a0x04x
 0006:C024C8D8       a5WriteOfDBytes
 0006:C024C918       a4Jffs2ReserveS
 0006:C024C966       a4Jffs2WriteDir
 0006:C024C9A3       a2CheckedAllIno
 0006:C024CA08       aCCheckPhase
 0006:C024CA18       aFsJffs2GcC
 0006:C024CA26       a4ReturnedError
 0006:C024CA64       a4EepRetGcNodeF
 0006:C024CA96       a4EepEndOfRawLi
 0006:C024CAD2       a4EraseBlockAt0
 0006:C024CB23       a2InodeUAlready
 0006:C024CB66       a4KmallocOfMdat
 0006:C024CBA6       a4ReadOfOldMeta
 0006:C024CBEE       a4Jffs2ReserveS_2
 0006:C024CC3E       a4ErrorWritingN_0
 0006:C024CC5F       a4NodeReadFaile
 0006:C024CCD2       a4Jffs2GarbageC_0
 0006:C024CD78       aXXInsteadOfExp
 0006:C024CDE4       aTchCalculatedC
 0006:C024CDFF       a4DataInTheRang
 0006:C024CE40       a4Jffs2GarbageC
 0006:C024CE80       a4Jffs2ReserveS_0
 0006:C024CECC       a4ErrorWritingN
 0006:C024CEF1       a4Jffs2GarbageC_1
 0006:C024CF2B       a4Jffs2GarbageC_2
 0006:C024CF62       a4ReadCachePage
 0006:C024CF8C       a4Jffs2ReserveS_1
 0006:C024CFD9       a4Jffs2GCDeleti_0
 0006:C024D028       a4Jffs2GCDeleti
 0006:C024D08B       a4ButItSObsolet
 0006:C024D0BB       a3ErrorGarbageC
 0006:C024D0E6       a4RawNodeAt0x08
 0006:C024D11E       a4DeletionDiren
 0006:C024D155       a3Jffs2FollowLi
 0006:C024D188       a3Jffs2ErrorDSC
 0006:C024D1E4       a4EraseAt0x08ll
 0006:C024D238       a4Jffs2WarningD_1
 0006:C024D298       a4NewlyErasedBl
 0006:C024D2D6       a4FailedToAlloc_0
 0006:C024D321       a4ReadOfNewlyEr
 0006:C024D36A       a4ShortReadFrom_0
 0006:C024D3AF       a4NewlyErasedBl_0
 0006:C024D3EC       a4WriteCleanMar
 0006:C024D421       a4ShortWriteToN
 0006:C024D466       a4KmallocForStr
 0006:C024D4BE       a4EraseAt0x08xF_0
 0006:C024D504       a4EraseAt0x08xF
 0006:C024D535       aJffs2GcdMtdD
 0006:C024D574       aThread
 0006:C024D57D       aFsJffs2Backgro
 0006:C024D593       a4ForkFailedFor
 0006:C024D5C8       a5DeviceNodeHas
 0006:C024D5EC       a5ReadDeviceNum
 0006:C024D619       a4Jffs2ReadInod
 0006:C024D64C       a5EepReadInodeF
 0006:C024D682       a6Jffs2FlashSiz
 0006:C024D6C4       a3Jffs2TooFewEr
 0006:C024D6E9       aCAllocSem
 0006:C024D6F7       aCEraseFreeSem
 0006:C024D729       a20012006RedHat
 0006:C024D743       aJffs2I
 0006:C024D74B       a3Jffs2ErrorFai
 0006:C024D77D       a3Jffs2ErrorFai_0
 0006:C024D7C8       aInitialiseSlab
 0006:C024D808       aSystem_0
 0006:C024D810       aFsJffs2SuperC
 0006:C024D854       aIsU
 0006:C024D85D       aJffs2
 0006:C024D863       a3Jffs2ErrorDSE_0
 0006:C024D8B4       a3Jffs2ErrorDSF_0
 0006:C024D925       aFsJffs2DebugC
 0006:C024D936       a3Jffs2ErrorDSE_1
 0006:C024D998       aSFree08xDirty0
 0006:C024DA10       aFsJffs2WbufC
 0006:C024DA20       a2Jffs2FlushWbu
 0006:C024DA59       a4Jffs2FlushWbu
 0006:C024DA86       a4Jffs2FlushWbu_0
 0006:C024DAC1       a2MallocFailure
 0006:C024DAF8       a2OldDataAreAlr
 0006:C024DB3A       a4FailedToAlloc_1
 0006:C024DB7C       a4FailedToAlloc
 0006:C024DBC2       a2RecoveryOfWbu
 0006:C024DBFA       a5RecoveryOfWbu
 0006:C024DC21       a3Jffs2ErrorDSF_2
 0006:C024DC5D       a3Jffs2ErrorDSI_0
 0006:C024DC99       a2Jffs2FlushWbu_0
 0006:C024DCF1       a2Jffs2FlushWbu_1
 0006:C024DD3A       a2Jffs2FlashWri
 0006:C024DD72       a2WbufWasPrevio
 0006:C024DD94       a4MtdRead0xZxBy
 0006:C024DDD8       aReadOobForEbAt
 0006:C024DE20       a3CannotWriteOo
 0006:C024DE73       a4Jffs2MarkingE
 0006:C024DEA0       a3InconsistentD
 0006:C024DEC4       aCWbufSem
 0006:C024DED1       a4Jffs2FlashSiz
 0006:C024DEF8       a6Jffs2WriteBuf
 0006:C024DF35       aRtime
 0006:C024DF3B       a4InflateinitFa
 0006:C024DF52       a5InflateReturn
 0006:C024DF6A       a4DeflateinitFa
 0006:C024DF81       a4FailedToAlloc_2
 0006:C024DFB7       a4FailedToAlloc_3
 0006:C024DFED       aZlib
 0006:C024DFF2       aFsRomfsStorage
 0006:C024E005       a3RomfsReadErro
 0006:C024E030       aHeBlockLayer
 0006:C024E03F       a4VfsCanTFindAR
 0006:C024E071       a3RomfsBadIniti
 0006:C024E09C       a5RomfsMounting
 0006:C024E0C9       a6RomfsMtdC2007
 0006:C024E0EE       aRomfsI
 0006:C024E0F6       a3RomfsErrorFai_0
 0006:C024E128       a3RomfsErrorFai
 0006:C024E157       aRomfs
 0006:C024E15D       aIdsRwMutex
 0006:C024E16C       a10d10d4o10lu10
 0006:C024E1C4       aNSetToD
 0006:C024E1D1       aSysvipcMsg
 0006:C024E23C       aMeRtimeCtime
 0006:C024E256       a10d10d4o10lu5u
 0006:C024E288       aSysvipcSem
 0006:C024E294       aKeySemidPermsN
 0006:C024E2EA       a10d10d4o10lu5u_0
 0006:C024E330       aIpcShmC
 0006:C024E33A       aSysv08x
 0006:C024E343       aSysvipcShm
 0006:C024E34F       aKeyShmidPermsS
 0006:C024E3C3       aShmmax
 0006:C024E3CA       aShmall
 0006:C024E3D1       aShmmni
 0006:C024E3D8       aMsgmax
 0006:C024E3DF       aMsgmnb
 0006:C024E3E6       aAutoMsgmni
 0006:C024E3F2       aSecurityCapabi
 0006:C024E406       aSAll
 0006:C024E40D       aCryptoApiC
 0006:C024E41A       aCryptomgr
 0006:C024E424       aCryptoDigestC
 0006:C024E434       aAnticipatory
 0006:C024E441       aAsIosched
 0006:C024E44C       aSIosched
 0006:C024E457       aEqSysfsLock
 0006:C024E467       aBlockElevatorC
 0006:C024E478       aDefault
 0006:C024E483       a6IoSchedulerSR
 0006:C024E4A4       a3IOSchedulerSN
 0006:C024E4C3       a3DefaultIOSche
 0006:C024E4F4       aNoop
 0006:C024E4F9       a3SForcedDispat
 0006:C024E541       a3SBadInsertion
 0006:C024E560       a3ElevatorTypeS
 0006:C024E580       a3ElevatorSwitc
 0006:C024E5A2       aNone_3
 0006:C024E5A8       aS_0
 0006:C024E5AE       a6SDevSTypeXFla
 0006:C024E5D0       a6SectorLluNrCn
 0006:C024E5F0       a6BioPBiotailPB
 0006:C024E61C       a6Cdb
 0006:C024E627       a02x
 0006:C024E62D       aBlockBlkCoreC
 0006:C024E63E       aQSysfsLock
 0006:C024E64D       a3SWantUBytesDo
 0006:C024E671       a6AttemptToAcce
 0006:C024E69C       a6SRwLdWantLuLi
 0006:C024E6C0       a3GenericMakeRe
 0006:C024E70D       a3BioTooBigDevi
 0006:C024E731       a7SDSBlockLuOnS
 0006:C024E750       a3SOverMaxSizeL
 0006:C024E76D       a3SOverMaxSegme
 0006:C024E78E       a3EndRequestIOE
 0006:C024E7BE       aEndThat
 0006:C024E7C9       a3SBioIdxDVcntD
 0006:C024E7E7       a3BlkRequestBot
 0006:C024E800       a3SBadReturnD
 0006:C024E816       aKblockd
 0006:C024E81E       aFailedToCreate
 0006:C024E838       aBlkdevRequests
 0006:C024E848       aBlkdevQueue
 0006:C024E855       a3SAdjustedDept
 0006:C024E872       aBlockBlkTagC
 0006:C024E882       a3STagDIsMissin
 0006:C024E89C       a3SAttemptToCle
 0006:C024E8C7       a3SRequestPForD
 0006:C024E8FB       aBlockBlkSysfsC
 0006:C024E90D       aIostats
 0006:C024E915       aRqAffinity
 0006:C024E921       aNomerges
 0006:C024E92A       aRotational
 0006:C024E935       aOptimalIoSize
 0006:C024E945       aMinimumIoSize
 0006:C024E955       aPhysicalBlockS
 0006:C024E969       aLogicalBlockSi
 0006:C024E97C       aHwSectorSize
 0006:C024E98B       aScheduler
 0006:C024E995       aMaxHwSectorsKb
 0006:C024E9A7       aMaxSectorsKb
 0006:C024E9B6       aNrRequests
 0006:C024E9C2       a3SPrepareFlush
 0006:C024E9E4       a3BlkQueueOrder
 0006:C024EA08       aBlockBlkBarrie
 0006:C024EA1C       a6SSetToMinimum
 0006:C024EA36       a6SSetToMinimum_0
 0006:C024EA51       a5SWarningDevic
 0006:C024EA7A       aBlockBlkSettin
 0006:C024EA8F       aBlkdevIoc
 0006:C024EA9A       aBlockBlkIocC
 0006:C024EAAA       aBlockBlkExecC
 0006:C024EABB       aIncludeLinuxSc
 0006:C024EAD7       aBlockBlkSoftir
 0006:C024EAEB       aBlockBlkTimeou
 0006:C024EAFF       a3BlockBadEhRet
 0006:C024EB1C       aRegisterBlkdev
 0006:C024EB49       aRegisterBlkdev_0
 0006:C024EB76       aBlockGenhdC
 0006:C024EB84       aBlkext
 0006:C024EB8B       aBlockMajorDD
 0006:C024EB9D       aBlockMajorD
 0006:C024EBAC       aMajorMinorBloc
 0006:C024EBC9       a4d7dSLuLuLluUL
 0006:C024EBFE       aDiskstats
 0006:C024EC08       aPartitions
 0006:C024EC1B       aAnge1
 0006:C024EC22       a4d7d10lluS
 0006:C024EC36       a9s
 0006:C024EC40       a05x
 0006:C024EC45       aSS10lluS
 0006:C024EC54       aDriverS
 0006:C024EC61       aDriver
 0006:C024EC6D       aRemovable
 0006:C024EC77       aExtRange
 0006:C024EC81       a4ProgramSIsUsi
 0006:C024ECCD       aBsg
 0006:C024ECD1       a3BsgTooManyBsg
 0006:C024ECEF       aBsgCmd
 0006:C024ECF7       a3BsgFailedCrea
 0006:C024ED1B       a6BlockLayerScs
 0006:C024ED63       aBlockBsgC
 0006:C024ED6F       aBsgS
 0006:C024ED76       aBlockNoopIosch
 0006:C024ED8B       aLuExitProbabil
 0006:C024EDA4       aLuProbabilityO
 0006:C024EDEF       aLuMsNewThinkti
 0006:C024EE05       aLluSectorsNewS
 0006:C024EE25       aBlockAsIosched
 0006:C024EE38       aRqStateD
 0006:C024EE46       aEstTime
 0006:C024EE4F       aReadExpire
 0006:C024EE5B       aWriteExpire
 0006:C024EE68       aAnticExpire
 0006:C024EE75       aReadBatchExpir
 0006:C024EE87       aWriteBatchExpi
 0006:C024EE9A       aBlockDeadlineI
 0006:C024EEB3       aWritesStarved
 0006:C024EEC2       aFrontMerges
 0006:C024EECF       aFifoBatch
 0006:C024EEDA       aBlockCfqIosche
 0006:C024EEEE       a3CfqBadPrioX
 0006:C024EF03       aCfqQueue
 0006:C024EF0D       aCfqIoContext
 0006:C024EF1C       a3CfqCicLinkFai
 0006:C024EF36       aQuantum
 0006:C024EF3E       aFifoExpireSync
 0006:C024EF4F       aFifoExpireAsyn
 0006:C024EF61       aBackSeekMax
 0006:C024EF6F       aBackSeekPenalt
 0006:C024EF81       aSliceSync
 0006:C024EF8C       aSliceAsync
 0006:C024EF98       aSliceAsyncRq
 0006:C024EFA7       aSliceIdle
 0006:C024EFB2       aGzip
 0006:C024EFB7       aBzip2
 0006:C024EFBD       aLzma
 0006:C024EFC2       aCouldNotAlloca
 0006:C024EFE2       aCouldNotAlloca_0
 0006:C024F001       aCompressedFile
 0006:C024F023       aDataIntegrityE
 0006:C024F04C       aOutOfMemoryWhi
 0006:C024F079       aOutOfMemoryWhi_0
 0006:C024F0A5       aOutOfMemoryWhi_1
 0006:C024F0CD       aOutOfMemoryWhi_2
 0006:C024F0F6       aNotAGzipFile
 0006:C024F106       aReadError
 0006:C024F111       aWriteError
 0006:C024F11D       aUncompressionE
 0006:C024F131       aUnexpectedEof
 0006:C024F140       aBadHeader
 0006:C024F14B       a4IdrRemoveCall
 0006:C024F183       aLibIdrC
 0006:C024F18D       a4IdaRemoveCall
 0006:C024F1C5       aIdrLayerCache
 0006:C024F1D5       aInvalidKobject
 0006:C024F1EE       aMustHaveAKtype
 0006:C024F258       aHingIsSeriousl
 0006:C024F272       a3KobjectPS
 0006:C024F287       aLibKobjectC
 0006:C024F295       a4KobjectSPIsNo
 0006:C024F2E4       aKobjectPAttemp
 0006:C024F320       a3SFailedForSWi
 0006:C024F38A       a3SFailedForSD
 0006:C024F3A4       aDevpathOldS
 0006:C024F3B3       a3KobjectCanNot
 0006:C024F3DB       a3KobjectSPTrie
 0006:C024F436       a4SKobjectAddEr
 0006:C024F454       aLibKobjectUeve
 0006:C024F469       a3AddUeventVarT
 0006:C024F48B       a3AddUeventVarB
 0006:C024F4B5       aActionS
 0006:C024F4BF       aDevpathS
 0006:C024F4CA       aSubsystemS
 0006:C024F4D7       aSeqnumLlu
 0006:C024F4E3       aSS_4
 0006:C024F4E9       a3KobjectUevent
 0006:C024F51E       aRemove_0
 0006:C024F525       aChange
 0006:C024F52C       aOnline
 0006:C024F533       aOffline
 0006:C024F53B       aLibKrefC
 0006:C024F546       aLibPlistC
 0006:C024F552       aLibPrioTreeC
 0006:C024F562       aPdMutex
 0006:C024F56D       aLibRadixTreeC
 0006:C024F57E       aRadixTreeNode
 0006:C024F58E       a4SDCallbacksSu
 0006:C024F5AE       aLibStringC
 0006:C024F5BB       aNull_0
 0006:C024F5C2       aLibVsprintfC
 0006:C024F5D1       aNull_1
 0006:C024F5D8       aS1616llx
 0006:C024F5E4       aS88x
 0006:C024F5EC       aS44x
 0006:C024F5F4       aSSPS
 0006:C024F601       aSS8xS
 0006:C024F60F       aSSS_0
 0006:C024F617       aS0Lx
 0006:C024F61F       aLibBitmapC
 0006:C024F62C       aLibScatterlist
 0006:C024F685       aLibDevresC
 0006:C024F692       aInvalidDistanc_0
 0006:C024F6B0       aInvalidDistanc
 0006:C024F6C6       aInvalidLiteral
 0006:C024F6F4       aHeck
 0006:C024F6F9       aUnknownCompres
 0006:C024F714       aInvalidWindowS
 0006:C024F728       aInvalidBlockTy
 0006:C024F73B       aInvalidStoredB
 0006:C024F758       aTooManyLengthO
 0006:C024F77C       aInvalidCodeLen
 0006:C024F795       aInvalidBitLeng
 0006:C024F7AF       aInvalidLiteral_0
 0006:C024F7CB       aInvalidDistanc_1
 0006:C024F7E1       aIncorrectDataC
 0006:C024F7F6       aLibNlattrC
 0006:C024F803       a4NetlinkDBytes
 0006:C024F83C       aFbD
 0006:C024F841       aDS_0
 0006:C024F848       aUnableToGetMaj
 0006:C024F86C       aGraphics
 0006:C024F875       a4UnableToCreat_0
 0006:C024F8A0       aOffb
 0006:C024F8A5       a3SEnableConfig
 0006:C024F8E5       aFbInfoLock
 0006:C024F8F4       aFbInfoMmLock
 0006:C024F906       a4UnableToCreat_1
 0006:C024F942       a3FbConflicting
 0006:C024F985       aOfonly
 0006:C024F98C       aFb
 0006:C024F990       aDD
 0006:C024F997       aCDxDCD
 0006:C024F9A6       aBitsPerPixel
 0006:C024F9B5       aBlank
 0006:C024F9BB       aCursor
 0006:C024F9C2       aModes
 0006:C024F9C8       aPan
 0006:C024F9CC       aVirtualSize
 0006:C024F9D9       aStride
 0006:C024F9E0       aRotate
 0006:C024F9E7       a6FbcvtInvalidI
 0006:C024FA0B       a6FbcvtRefreshR
 0006:C024FA34       a6Fbcvt60hzRefr
 0006:C024FA78       aAspectRatioNot
 0006:C024FA97       aFbcvtDxDDCvtNa
 0006:C024FAB4       aNotACvtStandar
 0006:C024FAE3       a03dm
 0006:C024FAEA       aR
 0006:C024FAED       a6S_0
 0006:C024FAF4       aDummyDevice
 0006:C024FB01       aUnableToGetMaj_1
 0006:C024FB29       aKmem
 0006:C024FB2E       aFull
 0006:C024FB33       aUrandom
 0006:C024FB3B       aDriversCharRan
 0006:C024FB51       a02x02x02x02x02
 0006:C024FB96       aPoolsize
 0006:C024FB9F       aEntropyAvail
 0006:C024FBAD       aReadWakeupThre
 0006:C024FBC3       aWriteWakeupThr
 0006:C024FBDA       aBootId
 0006:C024FBE2       aNonblocking
 0006:C024FBEE       aNullTty
 0006:C024FBF7       a4WarningDevSTt
 0006:C024FC2F       aDriversCharTty
 0006:C024FC45       a7TtyNotNull
 0006:C024FC58       aCouldnTRegiste
 0006:C024FC7B       aCouldnTRegiste_0
 0006:C024FCA2       a4TtyCheckChang
 0006:C024FCCB       a3AttemptToRegi
 0006:C024FD02       aSCX
 0006:C024FD28       a4BadMagicNumbe
 0006:C024FD5A       aTtyFasync
 0006:C024FD65       aDoTtyHangup
 0006:C024FD73       aTtyRead
 0006:C024FD7C       aTtyPoll
 0006:C024FD85       aTtyWrite
 0006:C024FD8F       a3TtyDriverSLac
 0006:C024FDBC       a5SakKilledProc
 0006:C024FDFB       a5SakKilledProc_0
 0006:C024FE34       aTtyTermiosMute
 0006:C024FE48       aTtyLdiscMutex
 0006:C024FE5A       aTtyAtomicReadL
 0006:C024FE71       aTtyAtomicWrite
 0006:C024FE89       aTtyOutputLock
 0006:C024FE9B       aTtyEchoLock
 0006:C024FEAB       a6TtyInitDevLdi
 0006:C024FEE1       aTtyReleaseDev
 0006:C024FEF1       a7TtyReleaseDev_0
 0006:C024FF27       a7TtyReleaseDev_1
 0006:C024FF5E       a7TtyReleaseDev_2
 0006:C024FF9B       a7TtyReleaseDev_3
 0006:C024FFD4       a7TtyReleaseDev
 0006:C0250013       a7TtyReleaseDev_4
 0006:C0250039       a4TtyReleaseDev_0
 0006:C0250070       a4TtyReleaseDev
 0006:C02500A5       a4TtyReleaseDev_1
 0006:C02500D5       aTtyOpen
 0006:C02500DE       aTtyIoctl
 0006:C02500EB       aDriversCharNTt
 0006:C0250100       a4SDInputOverru
 0006:C025011C       a3SUnknownFlagD
 0006:C0250134       a3NTtyReadNoTty
 0006:C0250152       aNTty
 0006:C0250158       a4UseOfSetseria
 0006:C0250198       a4WarningTermio
 0006:C02501BF       aDriversCharTty_0
 0006:C02501DC       a10s2d
 0006:C02501E7       aTtyLdiscD
 0006:C02501F4       aNTtyGet
 0006:C02501FF       aCouldnTOpenNTt
 0006:C025022E       aNTtyInitTty
 0006:C025023E       aDriversCharTty_1
 0006:C0250258       aPortMutex
 0006:C0250265       a4TtyPortCloseS
 0006:C025029F       a4TtyPortCloseS_0
 0006:C02502C4       aCouldnTAllocat
 0006:C02502E1       aCouldnTAllocat_1
 0006:C0250304       aPtyMaster
 0006:C025030F       aPtySlave_0
 0006:C0250319       aTtyp
 0006:C025031E       aCouldnTRegiste_1
 0006:C025033B       aCouldnTRegiste_2
 0006:C025035E       aCouldnTAllocat_2
 0006:C0250382       aCouldnTAllocat_3
 0006:C02503A6       aPtm
 0006:C02503AA       aCouldnTRegiste_3
 0006:C02503CE       aCouldnTRegiste_4
 0006:C02503F2       aCouldnTRegiste_5
 0006:C0250416       aDriversCharPty
 0006:C0250429       a3iS
 0006:C0250431       aMisc
 0006:C0250436       aUnableToGetMaj_2
 0006:C025045F       aVcsU
 0006:C0250465       aVcsaU
 0006:C025046C       aVcs
 0006:C0250470       aUnableToGetMaj_0
 0006:C0250496       aVcsa
 0006:C025049B       a4SelectionKmal
 0006:C02504BB       a3KeyboardCKLow
 0006:C02504EF       aKeyboardModeMu
 0006:C0250523       a4KeyboardCCanT
 0006:C0250558       aDriversCharVtC
 0006:C025056A       aVtconI
 0006:C0250572       a4UnableToCreat_2
 0006:C02505A2       aS_9
 0006:C02505A6       aVtconsole
 0006:C02505B0       a4UnableToCreat
 0006:C02505E3       aColour
 0006:C02505EA       aMono
 0006:C02505EF       aConsoleSwitchi
 0006:C0250603       aConsolesDD
 0006:C0250613       aToSSDxD
 0006:C0250623       aConsoleSSDxD
 0006:C0250638       aUnblankScreenT
 0006:C0250661       aMCCC
 0006:C025066B       aCouldnTRegiste_6
 0006:C025068F       aTty0
 0006:C0250694       aCouldnTAllocat_0
 0006:C02506B6       aCouldnTRegiste_7
 0006:C02506D8       a3VtArghDriverD
 0006:C02506FC       aConWriteTtyDNo
 0006:C025071D       a6c
 0006:C0250723       a0n
 0006:C0250728       aDDr
 0006:C0250731       a6DebugSysrqAlw
 0006:C0250752       aLoglevelSetToD
 0006:C0250766       aSysrqTrigger
 0006:C0250774       a6Sysrq
 0006:C0250780       aHelp
 0006:C0250788       aThisSysrqOpera
 0006:C02507AB       aNiceAllRtTasks
 0006:C02507C0       aNiceAllRtTasks_0
 0006:C02507D2       aKillAllTasksI
 0006:C02507E4       aKillAllTasks
 0006:C02507F3       aThawFilesystem
 0006:C0250824       aFilesystems
 0006:C0250830       aMemoryFullOomK
 0006:C0250848       aManualOomExecu
 0006:C025085D       aTerminateAllTa
 0006:C0250888       aShowMemoryUsag
 0006:C025089D       aShowMemory
 0006:C02508A9       aShowBlockedTas
 0006:C02508D4       aOwTaskStatesT
 0006:C02508E6       aShowState
 0006:C02508F1       aShowRegistersP
 0006:C0250903       aShowRegs
 0006:C025090D       aUnmount
 0006:C0250915       aEmergencyRemou
 0006:C025092B       aShowAllTimersQ
 0006:C025093E       aShowClockevent
 0006:C0250975       aEmergencySync
 0006:C0250984       aReboot
 0006:C02509B8       aDModeSetToSyst
 0006:C02509D5       aSak
 0006:C02509D9       aSak_0
 0006:C02509EC       aHangingLogleve
 0006:C02509FD       aDriversBaseCor
 0006:C0250A11       a3DeviceSDoesNo
 0006:C0250A68       aSystem
 0006:C0250A6F       a3SSUeventUnsup
 0006:C0250AE4       aNedBadCount
 0006:C0250AF3       aVirtual
 0006:C0250B04       aMinorU
 0006:C0250B0D       aDevnameS
 0006:C0250B18       aDevtypeS
 0006:C0250B23       aDriverS_0
 0006:C0250B2D       aChar
 0006:C0250B32       aUevent
 0006:C0250B39       aDriversBaseSys
 0006:C0250B4C       aInterruptsEnab
 0006:C0250B6A       aInterruptsEnab_0
 0006:C0250B9C       a4SysdevInvalid
 0006:C0250BD8       a4SysdevClassSD
 0006:C0250C49       a3SInvalidDevic
 0006:C0250C66       aInterruptsEnab_1
 0006:C0250C9A       a3ClassSuspendF
 0006:C0250CBA       a3ClassDriverSu
 0006:C0250CE1       aPrivBusNotifie
 0006:C0250CFF       aDriversBaseBus
 0006:C0250D12       a3SUeventAttrSF
 0006:C0250D32       a3SDriverAddAtt
 0006:C0250D56       a3SAddBindFiles
 0006:C0250D78       aDriversAutopro
 0006:C0250D8A       aDriversProbe
 0006:C0250D98       aUnbind
 0006:C0250D9F       a4SDeviceSAlrea
 0006:C0250DBF       aDriversBaseDdC
 0006:C0250DD1       a3SDriverSysfsA
 0006:C0250DF5       a4SProbeOfSFail
 0006:C0250E1E       aDriversBaseDri
 0006:C0250E34       a4DriverSNeedsU
 0006:C0250E71       a3ErrorDriverSI
 0006:C0250EAB       aUnexpectedDriv
 0006:C0250ECA       aDriversBaseCla
 0006:C0250EDF       aSCalledForClas
 0006:C0250F12       aStructClassMut
 0006:C0250F25       aClass
 0006:C0250F2B       aSD_2
 0006:C0250F31       a3SFailedToClai
 0006:C0250F5C       aSSS_1
 0006:C0250F63       aPlatform
 0006:C0250F6D       aPlatformS
 0006:C0250F7A       a4SUnableToPars
 0006:C0250F9F       a4SUnableToProb
 0006:C0250FC1       aPlatform_0
 0006:C0250FCA       aModalias
 0006:C0250FD3       aKernelMax
 0006:C0250FDE       aPossible
 0006:C0250FE7       aFirmware
 0006:C0250FF0       aDriversBaseDev
 0006:C0251006       aDriversBaseAtt
 0006:C0251029       a3SSFailedToAll
 0006:C0251057       aDriversBaseTra
 0006:C0251076       aSuspend
 0006:C025107E       aResume
 0006:C0251085       aFreeze
 0006:C025108C       aQuiesce
 0006:C0251094       aHibernate
 0006:C025109E       aThaw
 0006:C02510A3       aRestore
 0006:C02510AB       aRecover
 0006:C02510B3       aUnknownPmEvent
 0006:C02510C6       a3PmDeviceSFail
 0006:C02510F1       a3SPfReturnsD
 0006:C025110A       a3PmFailedToPre
 0006:C025114D       aEarly
 0006:C0251154       aLate
 0006:C025115A       a4SSParentSShou
 0006:C0251186       aDriversBasePow
 0006:C02511A0       aDeviceSParentl
 0006:C02511E1       aDriversBaseDma
 0006:C02511FC       a3SSSVmapFailed
 0006:C0251219       a3SSSUnexpected
 0006:C025123E       aFirmwareS
 0006:C025124A       aTimeoutI
 0006:C0251255       a3SSSKmallocStr
 0006:C0251284       a6SSFirmwareUsi
 0006:C02512B4       a6SSFirmwareReq
 0006:C02512D7       a3SSSKmallocFai
 0006:C02512F5       a3SSSFirmwareNa
 0006:C0251324       a3SSSDeviceRegi
 0006:C025135C       aSCreateBinFile
 0006:C02513A0       aIrmwareS
 0006:C02513AB       a3SClassRegiste
 0006:C02513C9       a3SClassCreateF
 0006:C02513EA       aDriversBaseFir
 0006:C0251408       aSS_0
 0006:C025140E       aRamD
 0006:C0251414       aDriversBlockBr
 0006:C0251428       aRamdisk
 0006:C0251430       a6BrdModuleLoad
 0006:C0251447       a1000
 0006:C025144C       a6SLinkDown
 0006:C025145E       a6SLinkUpSmbpsS
 0006:C025148D       aEth
 0006:C0251491       aLoopbackFailed
 0006:C02514BD       aSmc91xAttrib
 0006:C02514CB       aSmc91xRegs
 0006:C02514D7       aSTimeoutSLineD
 0006:C02514EF       aDriversNetSmc9
 0006:C0251504       a6SLinkS
 0006:C0251514       aSMemoryAllocat
 0006:C0251533       aSFarTooBigPack
 0006:C0251552       aSmc91x
 0006:C0251559       a7STxTimeoutInt
 0006:C02515AD       aSPhyResetTimed
 0006:C02515C6       a6AutoNegotiati
 0006:C02515FC       aErnetHwAddr
 0006:C025160B       aLateCollision
 0006:C025161A       aTooManyCollisi
 0006:C025162E       a7SSmcTxWithNot
 0006:C0251653       a7SSOccurredOnL
 0006:C0251674       a6SUnexpectedly
 0006:C02516E4       aFifo
 0006:C02516EC       a3SFubarRxlenUS
 0006:C0251718       aMemoryPacketDr
 0006:C0251732       a7SUnsupportedE
 0006:C025176C       aRuptMask0x02x
 0006:C0251782       aNowait
 0006:C025178C       aSCouldNotAlloc
 0006:C02517AC       a4SDetectedPoss
 0006:C02517EA       aSIoaddrPDoesnT
 0006:C025181B       aSIoPUnrecogniz
 0006:C0251884       aIrqXx
 0006:C02518A4       aRqD
 0006:C02518AA       aDmaD
 0006:C02518B2       a7SNoPhyFound
 0006:C02518C7       a7SPhyLan83c183
 0006:C0251900       a83c180
 0006:C0251908       aSNotFoundD
 0006:C0251940       aPleaseSetUsing
 0006:C025196C       aPm
 0006:C0251984       aC91c94
 0006:C025198B       aSmc91c95
 0006:C0251994       aSmc91c96
 0006:C02519A8       aMc91c100fd
 0006:C02519B3       aSmc91c11xfd
 0006:C02519E8       aCountD
 0006:C0251A18       aVSizeErasesize
 0006:C0251A51       aDriversMtdMtdc
 0006:C0251A67       a4SUnlockFailed
 0006:C0251A92       aMtdDro
 0006:C0251A9A       aAbsent
 0006:C0251AA1       aRom
 0006:C0251AA5       aNand
 0006:C0251AAA       aDataflash
 0006:C0251AB4       aNumeraseregion
 0006:C0251AC4       aOobsize
 0006:C0251ACC       aSubpagesize
 0006:C0251AD8       aWritesize
 0006:C0251AEC       a5MtdMtdDeviceW
 0006:C0251B1A       a5MtdAttemptToM
 0006:C0251B48       a5CreatingDMtdP
 0006:C0251B70       a3MemoryAllocat
 0006:C0251BAF       a5MovingPartiti
 0006:C0251BF0       a12llxS
 0006:C0251C1C       aOfReachDisable
 0006:C0251C32       a4MtdPartitionS
 0006:C0251C8B       aDriversMtdMtdp
 0006:C0251CA1       a4MtdPartitionS_0
 0006:C0251CF5       a4MtdPartitionS_1
 0006:C0251D3E       a5SPartitionPar
 0006:C0251D65       a5DSPartitionsF
 0006:C0251D91       a3MtdPartitionS
 0006:C0251DB9       a3MtdNoClosingC
 0006:C0251DE8       a3MtdNoPartitio
 0006:C0251E21       a3MtdOutOfMemor
 0006:C0251E38       aPartition03d
 0006:C0251E47       a3MtdNoMtdId
 0006:C0251E5A       a3MtdBadCharact
 0006:C0251E86       a4MtdSPartition
 0006:C0251EBF       aCmdlinepart
 0006:C0251ECB       a5CanTAllocateM
 0006:C0251F0D       aDriversMtdMtdB
 0006:C0251F27       aNewLock
 0006:C0251F32       aSCC
 0006:C0251F39       a4UnableToRegis
 0006:C0251F70       aSd
 0006:C0251F74       a4MtdblockErase
 0006:C0251FAF       aMtdblkCacheMut
 0006:C0251FC4       aMtdblksLock
 0006:C0251FD2       aMtdblock
 0006:C0251FDB       a5ProbeAtBase0x
 0006:C025201D       a5ProbeAtBase0x_0
 0006:C025205F       a7SFoundAnAlias
 0006:C0252094       a6SFoundDXDDevi
 0006:C02520C8       a4SKmallocFaile
 0006:C02520F7       aIncludeLinuxMt
 0006:C025210F       aCfiProbe
 0006:C0252119       aCfi
 0006:C025211D       aSExtendedQuery
 0006:C0252142       a3FailedToAlloc_0
 0006:C0252160       a5UsingFwhLockU
 0006:C0252181       a3SChipNotReady
 0006:C02521BE       a3SPutChipCalle
 0006:C02521EB       a3SWarningUnpoi
 0006:C0252221       a3SChipNotReady_0
 0006:C0252266       a3SBufferWriteE
 0006:C0252292       a3SBufferWriteE_0
 0006:C02522B7       a3SBufferWriteE_1
 0006:C02522E1       a4Sr4OrSr5BitsS
 0006:C0252323       a3SBlockEraseEr
 0006:C025234F       a3SBlockEraseEr_0
 0006:C025238F       a3SBlockEraseEr_1
 0006:C02523B4       a7BlockEraseFai
 0006:C02523F1       a3SBlockEraseFa
 0006:C0252426       aDriversMtdChip
 0006:C025244A       a3SBlockUnlockE
 0006:C0252477       a3AtmelFeatures
 0006:C0252490       a5FlashDeviceRe
 0006:C02524D8       a5FlashDeviceRe_0
 0006:C025251C       a3FailedToAlloc
 0006:C0252549       aIntelSharp
 0006:C0252555       a3UnknownIntelS
 0006:C025258D       a3SCfiPriIntele
 0006:C02525B1       a5CfiCmdset0001
 0006:C02525E5       a3FailedToAlloc_1
 0006:C025261D       a4SumOfRegionsL
 0006:C0252666       a7EraseRegionDO
 0006:C025269D       a7SProgramRegio
 0006:C02526DA       a3SBadNumberOfH
 0006:C0252703       a7SDSetSOfDInte
 0006:C0252749       a6UsingAutoUnlo
 0006:C0252772       a6UsingBufferWr
 0006:C0252790       a3SWordWriteErr
 0006:C02527BA       a3SWordWriteErr_0
 0006:C02527DD       a3SWordWriteErr_1
 0006:C0252805       aCfiCmdset0001
 0006:C0252815       aCfiCmdset44x
 0006:C0252826       a5SupportForCom
 0006:C0252853       aDriversMtdChip_0
 0006:C0252871       a4NorChipTooLar
 0006:C02528B1       a4SKmallocFaile_0
 0006:C02528D9       a4SKmallocFaile_1
 0006:C025290A       a4ReducingVisib
 0006:C025293B       a4GenProbeNoSup
 0006:C0252970       aSD
 0006:C02529B4       aAbled
 0006:C02529BC       a3MtdPartitionR
 0006:C02529EC       aSMtdMapsIntegr
 0006:C0252A14       aEdboot
 0006:C0252A1B       aAfs
 0006:C0252A47       aNtD
 0006:C0252A7F       aEntD
 0006:C0252A87       aSerioDrvMutex
 0006:C0252A99       aSerioLd
 0006:C0252AA2       aManual
 0006:C0252AB0       aSerioTy02xpr02
 0006:C0252AD0       a4SerioDeviceAt
 0006:C0252B09       a3SerioDriverRe
 0006:C0252B60       aSerioId02x
 0006:C0252B6E       aSerioExtra02x
 0006:C0252B84       aIasSerioTy02xp
 0006:C0252BA7       a3SerioFailedTo
 0006:C0252BDA       aKseriod
 0006:C0252BE2       a3SerioFailedTo_0
 0006:C0252C10       aReconnect
 0006:C0252C1A       aRescan
 0006:C0252C21       a4SerioDeviceBi
 0006:C0252C7C       aFailedForSSErr
 0006:C0252C9C       a3SerioSysfsCre
 0006:C0252CDA       a4SerioDriverAt
 0006:C0252D11       a7SerioKseriodE
 0006:C0252D2C       aDescription
 0006:C0252D38       aBindMode
 0006:C0252D42       aDrvctl
 0006:C0252D49       aExtra
 0006:C0252D4F       aProto
 0006:C0252D55       aSerio
 0006:C0252D5B       aDriversInputSe
 0006:C0252D78       aPs2devCmdMutex
 0006:C0252D8B       aInputS
 0006:C0252D94       aLxS
 0006:C0252D9A       aX_0
 0006:C0252D9E       aInputB04xv04xp
 0006:C0252DBA       aProductXXXX
 0006:C0252DCE       aNameS
 0006:C0252DD8       aPhysS
 0006:C0252DE2       aEv
 0006:C0252DE6       aUniqS
 0006:C0252DF0       aKey
 0006:C0252DF5       aRel
 0006:C0252DFA       aAbs
 0006:C0252E04       aLed
 0006:C0252E09       aSnd
 0006:C0252E0E       aFf
 0006:C0252E12       aModalias_0
 0006:C0252E1C       aSw
 0006:C0252E20       aDevMutex
 0006:C0252E2C       a3InputFailedTo
 0006:C0252E6B       a3InputSetCapab
 0006:C0252E9F       aUnspecifiedDev
 0006:C0252EB2       aNA
 0006:C0252EB6       aInputLd
 0006:C0252EBF       a6InputSAsS
 0006:C0252ED3       aDriversInputIn
 0006:C0252EE9       aHandlers
 0006:C0252EF2       aBusInput
 0006:C0252EFC       aNNumberLdNameS
 0006:C0252F12       aMinorD
 0006:C0252F1C       aBS
 0006:C0252F4C       aIon04x
 0006:C0252F56       aNNameS
 0006:C0252F64       aPPhysS
 0006:C0252F70       aSSysfsS
 0006:C0252F7D       aUUniqS
 0006:C0252FB0       a3InputUnableTo
 0006:C0252FDE       a3InputUnableTo_0
 0006:C0253009       aCapabilities
 0006:C0253016       aSw_0
 0006:C0253019       aSnd_0
 0006:C025301D       aMsc
 0006:C0253021       aAbs_0
 0006:C0253025       aRel_0
 0006:C0253029       aProduct
 0006:C0253031       aVendor
 0006:C0253038       aBustype
 0006:C0253040       aUniq
 0006:C0253045       aPhys
 0006:C025304A       a3FfCoreCannotA
 0006:C0253082       aFfMutex
 0006:C025308D       aMousedevMutex
 0006:C025309E       aMice
 0006:C02530A3       aMouseD
 0006:C02530AB       a3MousedevNoMor
 0006:C02530D7       a4MiceCouldNotR
 0006:C025310C       a6MicePs2MouseD
 0006:C025313C       aPsaux
 0006:C0253142       aMousedev
 0006:C025314B       aTranslated
 0006:C0253156       aAtSet2ExtraKey
 0006:C025316E       aAtSSetDKeyboar
 0006:C0253184       aSInput0
 0006:C025318E       a4AtkbdCKeyboar
 0006:C02531B7       a3AtkbdCNcdTerm
 0006:C0253250       aLeased
 0006:C0253257       aTranslated_0
 0006:C0253262       aE0
 0006:C0253265       a4AtkbdCFramePa
 0006:C025328B       a4AtkbdCSpuriou
 0006:C02532E2       a4AtkbdCUnknown
 0006:C025331B       a4AtkbdCUseSetk
 0006:C025335D       aAtkbd
 0006:C0253363       a3AtkbdCFailedT
 0006:C0253390       a7AtkbdReconnec
 0006:C02533D5       aAtkbdEventMute
 0006:C02533E9       aAtAndPs2Keyboa
 0006:C0253405       aErrCount
 0006:C025340F       aSoftraw
 0006:C0253417       aSoftrepeat
 0006:C0253422       aKpsmoused
 0006:C025342C       a3PsmouseFailed
 0006:C025345E       aPsmouse
 0006:C0253466       aGeneric_0
 0006:C025346E       aCortron
 0006:C0253476       aPs2Trackball
 0006:C0253485       aDriversInputMo
 0006:C02534A8       aWheelMouse
 0006:C02534B4       aExplorerMouse
 0006:C02534C3       aGenius
 0006:C02534CA       aKensington
 0006:C02534D5       aThinkingmouse
 0006:C02534E3       a4PsmouseCFaile
 0006:C025350E       a4PsmouseCSAtSL
 0006:C025353B       a5PsmouseCIssui
 0006:C0253564       a5PsmouseCSAtSD
 0006:C0253590       aBadParity
 0006:C025359C       a4PsmouseCBadDa
 0006:C02535C3       a6PsmouseCSAtSL
 0006:C0253609       a4PsmouseCFaile_0
 0006:C0253639       a4PsmouseCFaile_1
 0006:C0253680       aIssuingReconne
 0006:C025369D       a4PsmouseCFaile_2
 0006:C02536CC       aSSS
 0006:C02536D5       a7PsmouseReconn
 0006:C025371C       a4PsmouseFailed
 0006:C0253760       aPs2MouseDriver
 0006:C0253772       aBare
 0006:C0253777       aPs2
 0006:C025377D       aLogitech_0
 0006:C0253786       aThinkps2
 0006:C0253790       aThinkps
 0006:C0253798       aGenps2
 0006:C02537A0       aGenius_0
 0006:C025382C       aProtocol
 0006:C0253835       a3SynapticsClai
 0006:C0253887       a6SynapticsFail
 0006:C02538B6       a6SynapticsUsin
 0006:C02538E5       a3SynapticsUnkn
 0006:C025390B       aSynaptics
 0006:C0253915       a3UnableToQuery
 0006:C025393D       a3UnableToIniti
 0006:C025396A       a6SynapticsTouc
 0006:C02539B5       a3SynapticsNotE
 0006:C02539F4       aSynapticsPassT
 0006:C0253A0B       aSynapticsPtSer
 0006:C0253A1F       a6SerioSPortAtS
 0006:C0253A38       a4AlpsCFailedTo
 0006:C0253A66       a3AlpsCFailedTo
 0006:C0253A91       a3AlpsCFailedTo_0
 0006:C0253ABA       aDualpointStick
 0006:C0253ACA       aPs2Mouse
 0006:C0253AD5       aSInput1
 0006:C0253ADF       aDualpointTouch
 0006:C0253AF2       aGlidepoint
 0006:C0253AFD       aAlps
 0006:C0253B02       a4Logips2ppDete
 0006:C0253B54       aCreateSmartscr
 0006:C0253B8C       aTouchpad3
 0006:C0253B97       aTrackman
 0006:C0253BA0       aLogitech
 0006:C0253BA9       aSmartscroll
 0006:C0253BB5       a4TrackpointCFa
 0006:C0253BEA       aIbm
 0006:C0253BEE       aTrackpoint
 0006:C0253BF9       a3TrackpointCFa
 0006:C0253C38       a6IbmTrackpoint
 0006:C0253C6C       aExtDev
 0006:C0253C74       aSkipback
 0006:C0253C7D       aPressToSelect
 0006:C0253C8D       aJenks
 0006:C0253C93       aZtime
 0006:C0253C99       aUpthresh
 0006:C0253CA2       aMindrag
 0006:C0253CAA       aDraghys
 0006:C0253CB2       aReach
 0006:C0253CB8       aInertia
 0006:C0253CC0       aSpeed
 0006:C0253CC6       aSensitivity
 0006:C0253CD2       aI2c
 0006:C0253CD7       aD04x
 0006:C0253CDF       a3SSFailedToReg
 0006:C0253D1A       a3SSDetachAdapt
 0006:C0253D50       aHiC
 0006:C0253D56       a3SSSCanTParseI
 0006:C0253D7D       aDeleteDevice
 0006:C0253D8B       a3SSSExtraParam
 0006:C0253DAB       a6SSSDeletingDe
 0006:C0253DD8       a3SSSCanTFindDe
 0006:C0253E01       a4SSTheNewDevic
 0006:C0253E5B       a3SSSMissingPar
 0006:C0253E7D       aNewDevice
 0006:C0253E88       a3SSSInvalidDev
 0006:C0253EAB       a3SSSInvalidI2c
 0006:C0253ED4       a6SSSInstantiat
 0006:C0253F05       aDriversI2cI2cC
 0006:C0253F1C       aI2cD
 0006:C0253F23       a3SSCanTCreateD
 0006:C0253F4C       aAdapBusLock
 0006:C0253F5C       a3SSInvalidBloc
 0006:C0253F83       a3SSUnsupported
 0006:C0253FA9       a3SSDetachAdapt_0
 0006:C0253FDA       a3SSProbingNotS
 0006:C0253FFB       a4SSInvalid7Bit
 0006:C0254023       a4SSInvalidProb
 0006:C025404B       a3SSSDetectionF
 0006:C025408C       aSFailedCreatin
 0006:C02540B4       aSSmbusQuickCom
 0006:C02540F2       aI2cAdapter
 0006:C02540FE       aI2c_0
 0006:C0254102       aDriversMmcCore_1
 0006:C025411A       a4SMinimumClock
 0006:C025415B       aKmmcd
 0006:C0254161       a4SHostDoesnTSu
 0006:C025418E       aMmc
 0006:C0254193       aSd_0
 0006:C0254197       aSdio
 0006:C02541B0       aES
 0006:C02541BC       aSMmcBlock
 0006:C02541C8       aMmc_0
 0006:C02541CC       aSdhc
 0006:C02541D1       aSdio_0
 0006:C02541D6       aSd_1
 0006:C02541D9       aHighSpeed
 0006:C02541E5       aS04x
 0006:C025420C       aSNewSSCardAtAd
 0006:C0254230       a6SSpiCardRemov
 0006:C0254249       a6SCard04xRemov
 0006:C0254263       aMmc_1
 0006:C0254267       aMmcD
 0006:C025426D       aDriversMmcCore_2
 0006:C0254285       aMmcHost
 0006:C025428E       a0x06x
 0006:C0254296       a02d04d
 0006:C0254304       aAngeTheseWillB
 0006:C0254350       a3SCardHasUnkno
 0006:C0254379       a3SCouldNotAllo
 0006:C02543B5       a3SUnableToRead
 0006:C025440C       a4SUnableToRead
 0006:C0254446       a3SUnrecognised_0
 0006:C0254478       a4SCardIsMmcV4B
 0006:C02544B9       a3SErrorDWhilst_0
 0006:C02544E7       aOemid
 0006:C02544ED       aManfid
 0006:C02544F4       aHwrev
 0006:C02544FA       aFwrev
 0006:C0254500       aDate
 0006:C0254505       aCsd
 0006:C0254509       aCid
 0006:C025450D       aDriversMmcCore_3
 0006:C0254528       aDriversMmcCore
 0006:C025453E       a4SSdCardClaims
 0006:C02545A4       a3SUnrecognised
 0006:C02545D2       a4SCardLacksMan
 0006:C025461A       a3SCouldNotAllo_0
 0006:C0254657       a4SProblemReadi
 0006:C025469E       a4SProblemSwitc
 0006:C02546D3       a4SHostDoesNotS
 0006:C0254722       a3SErrorDWhilst_1
 0006:C025474F       aScr
 0006:C0254753       aDriversMmcCore_4
 0006:C025476D       aDriversMmcCore_5
 0006:C0254785       a4SSdioCardClai
 0006:C02547ED       a3SUnrecognised_1
 0006:C025481C       a3SErrorDWhilst
 0006:C025484B       aDriversMmcCore_6
 0006:C0254867       a4WarningDriver
 0006:C02548A4       aSdioClass02x
 0006:C02548B4       aSdioId04x04x
 0006:C02548C6       aModaliasSdioC0
 0006:C02548E4       aSdioC02xv04xd0
 0006:C02548FA       aSD_3
 0006:C0254900       aSdio_1
 0006:C0254905       a3SBadCistplFun
 0006:C025492E       aDriversMmcCore_7
 0006:C025494A       a3SBadCisTuple0
 0006:C0254985       a7SQueuingCisTu
 0006:C02549B0       a4SdioIgnoringB
 0006:C02549D8       aDriversMmcCore_0
 0006:C0254A00       aOreSdioIrqC
 0006:C0254A0F       aKsdioirqdS
 0006:C0254A1C       a7SErrorDReadin
 0006:C0254A44       a4SPendingIrqFo
 0006:C0254A72       a4SPendingIrqWi
 0006:C0254AA8       aEtBlockSizeToD
 0006:C0254AC1       aRo_0
 0006:C0254AC6       aMmcblkD
 0006:C0254ADC       aSS
 0006:C0254B0C       a3SErrorDSendin
 0006:C0254B32       a3SErrorDSendin_0
 0006:C0254B7D       a3SErrorDTransf
 0006:C0254BC3       a3SErrorDSendin_1
 0006:C0254C08       a3SErrorDReques
 0006:C0254C2B       aMmcblk
 0006:C0254C32       aMmcBadRequest
 0006:C0254C42       a3MmcKillingReq
 0006:C0254C6B       a4SUnableToAllo
 0006:C0254C94       aMmcqd
 0006:C0254C9A       aDriversMmcCard
 0006:C0254CB3       a7SGlobalEnviro
 0006:C0254CDC       aDriversHidHidC
 0006:C0254CF3       a7SGlobalEnviro_0
 0006:C0254D1D       a7SInvalidRepor_0
 0006:C0254D3C       a7SInvalidRepor
 0006:C0254D5C       a7SReportId0IsI
 0006:C0254D7B       a7SUnknownGloba
 0006:C0254D9B       a7SUndefinedRep
 0006:C0254DC3       a7SHidRegisterR
 0006:C0254DE6       a7SLogicalRange
 0006:C0254E0A       a7STooManyField
 0006:C0254E2C       a7SUnexpectedLo
 0006:C0254E50       a7SItemUUUUPars
 0006:C0254E78       a7SUnbalancedCo
 0006:C0254EB3       a7SUnbalancedDe
 0006:C0254EED       a7SItemFetching
 0006:C0254F17       a4HidImplementC
 0006:C0254F4A       a4HidImplementC_0
 0006:C0254F84       a7SSSEventFaile
 0006:C0254FA6       aXXXLx
 0006:C0254FB3       a3HidCanTRegist
 0006:C0254FD3       a7SOffsetDExcee
 0006:C0255001       a7SValueDIsOutO
 0006:C025504C       a4HidExtractCal
 0006:C025507D       a7SEmptyReport
 0006:C0255092       a7SReportSizeUS
 0006:C02550B8       a7SReportDSizeU
 0006:C02550DC       a7SReservedItem
 0006:C0255101       a7SCollectionSt
 0006:C0255123       a7SFailedToReal
 0006:C0255151       a7SCollectionSt_0
 0006:C0255174       a7SUnknownMainI
 0006:C0255197       aHidId04x08x08x
 0006:C02551AD       aHidNameS
 0006:C02551B9       aHidPhysS
 0006:C02551C5       aHidUniqS
 0006:C02551D1       aModaliasHidB04
 0006:C02551EE       aUsb
 0006:C02551F2       aBluetooth
 0006:C02551FC       aUnknown
 0006:C0255206       a3SSClaimedByNe
 0006:C025523D       aShiddevD
 0006:C0255248       aShidrawD
 0006:C0255253       a6SSSSHidVX02xS
 0006:C0255280       a04x04x04x04x
 0006:C0255294       aGeneric
 0006:C025529D       a7SItemDataExpe
 0006:C02552C7       a7SNestedDelimi
 0006:C0255300       a7SAlternativeU
 0006:C0255321       a7SUsageIndexEx
 0006:C025534C       aUsageFailed
 0006:C025535B       a7SUnknownLocal
 0006:C025537F       aPointer
 0006:C0255398       aKeyboard
 0006:C02553A1       aKeypad
 0006:C02553A8       aMultiAxisContr
 0006:C02553BE       aHid
 0006:C02553C2       aNewId
 0006:C02553C9       a7S7AssignedKey
 0006:C02553FD       aDriversHidHidI
 0006:C0255415       a3SOutOfMemoryD
 0006:C0255442       a7SMapping
 0006:C025545A       aNonLedOutputFi
 0006:C025547C       a7SMaximumEffec
 0006:C0255499       a7SPidPoolRepor
 0006:C02554B1       a7S
 0006:C02554B8       aConstant
 0006:C02554C2       aVariable
 0006:C02554CC       aArray
 0006:C02554D3       aRelative
 0006:C02554DD       aAbsolute
 0006:C02554E7       aWrap
 0006:C02554ED       aNonlinear
 0006:C02554F8       aNopreferredsta
 0006:C0255510       aAte
 0006:C0255515       aVolatile
 0006:C025551F       aBufferedbyte
 0006:C025552D       aPhysical
 0006:C0255540       aUsageD
 0006:C025554B       aLogicalMinimum
 0006:C0255560       aLogicalMaximum
 0006:C0255575       aPhysicalMinimu
 0006:C025558B       aPhysicalMaximu
 0006:C02555A1       aUnitExponentD
 0006:C02555B4       aUnitInvalid
 0006:C02555C3       aUnitS
 0006:C02555CE       aD_2
 0006:C02555D2       aReportSizeU
 0006:C02555E3       aReportCountU
 0006:C02555F5       aReportOffsetU
 0006:C0255608       aFlags
 0006:C0255610       aD
 0006:C0255615       aFieldD
 0006:C0255620       a7HidDebugInput
 0006:C0255635       aSS_5
 0006:C025563B       aInput
 0006:C0255641       aOutput
 0006:C0255648       aFeature
 0006:C0255650       aNone_1
 0006:C0255655       aCentimeter
 0006:C0255660       aGram
 0006:C0255665       aSeconds
 0006:C0255674       aAmpere
 0006:C025567B       aCandela
 0006:C0255683       aRadians
 0006:C0255690       aSlug
 0006:C0255695       aFahrenheit
 0006:C02556A0       aDegrees
 0006:C02556A8       aSiLinear
 0006:C02556B2       aSiRotation
 0006:C02556BE       aEnglishLinear
 0006:C02556CD       aEnglishRotatio
 0006:C02556DE       aClick
 0006:C02556E4       aBell
 0006:C02556E9       aTone
 0006:C02556EE       aNumlock
 0006:C02556F6       aCapslock
 0006:C02556FF       aScrolllock
 0006:C025570A       aCompose
 0006:C0255712       aKana
 0006:C0255717       aSuspend_0
 0006:C025573A       aEsture
 0006:C0255741       aRawdata
 0006:C0255749       aRx
 0006:C025574C       aRy
 0006:C025574F       aRz
 0006:C0255752       aThrottle
 0006:C025575B       aRudder
 0006:C0255762       aGas
 0006:C0255766       aHat0x
 0006:C025576C       aHat0y
 0006:C0255772       aHat1x
 0006:C0255778       aHat1y
 0006:C025577E       aHat2x
 0006:C0255784       aHat2y
 0006:C025578A       aHat3x
 0006:C0255790       aHat3y
 0006:C0255797       aDistance
 0006:C02557A0       aXtilt
 0006:C02557A6       aYtilt
 0006:C02557AC       aToolwidth
 0006:C02557B6       aVolume
 0006:C02557E4       aEntation
 0006:C02557F4       aIonx
 0006:C0255820       aDial
 0006:C0255825       aReserved_0
 0006:C025582E       aEsc
 0006:C0255832       aBackspace
 0006:C025583C       aTab
 0006:C0255840       aQ_0
 0006:C0255842       aLeftbrace
 0006:C025584C       aRightbrace
 0006:C025585C       aOntrol
 0006:C0255863       aSemicolon
 0006:C025586D       aApostrophe
 0006:C0255878       aGrave
 0006:C025587E       aLeftshift
 0006:C0255888       aBackslash
 0006:C0255892       aRightshift
 0006:C02558F4       aEnkakuHankaku
 0006:C0255903       a102nd
 0006:C0255909       aRo_1
 0006:C025592C       aAHiragana
 0006:C0255998       aDelete
 0006:C02559BC       aQual
 0006:C02559C8       aInus
 0006:C0255B28       aTparenthesis
 0006:C0255B3C       aParenthesis
 0006:C0255B48       aNew
 0006:C0255B4C       aRedo
 0006:C0255B51       aF13
 0006:C0255B55       aF14
 0006:C0255B59       aF15
 0006:C0255B5D       aF16
 0006:C0255B61       aF17
 0006:C0255B65       aF18
 0006:C0255B69       aF19
 0006:C0255BC4       aSound
 0006:C0255BCA       aQuestion
 0006:C0255BD3       aEmail
 0006:C0255BD9       aChat
 0006:C0255BDE       aSearch
 0006:C0255BE5       aConnect
 0006:C0255BED       aFinance
 0006:C0255BF5       aSport
 0006:C0255BFB       aShop
 0006:C0255C00       aAlternateerase
 0006:C0255C0F       aCancel
 0006:C0255C16       aBrightnessdown
 0006:C0255C2C       aEssup
 0006:C0255C32       aMedia
 0006:C0255C38       aSwitchvideomod
 0006:C0255C48       aKbdilluminatio
 0006:C0255C5E       aKbdilluminatio_0
 0006:C0255C72       aKbdilluminatio_1
 0006:C0255C84       aSend
 0006:C0255C89       aReply
 0006:C0255C8F       aForwardmail
 0006:C0255C9B       aSave
 0006:C0255CA0       aDocuments
 0006:C0255CAA       aUnknown_0
 0006:C0255CB2       aBtn0
 0006:C0255CB7       aBtn1
 0006:C0255CBC       aBtn7
 0006:C0255CC1       aBtn8
 0006:C0255CC6       aBtn9
 0006:C0255DE0       aBtnthumbr
 0006:C0255DEA       aToolpen
 0006:C0255DF8       aBber
 0006:C0255E72       aEarUp
 0006:C0255E79       aOk_0
 0006:C0255F60       aReen
 0006:C0255F65       aYellow
 0006:C0255F6C       aBlue
 0006:C0255F71       aChannelup
 0006:C0255F7B       aChanneldown
 0006:C0255F9C       aStart
 0006:C0255FA2       aSlow
 0006:C0255FA7       aShuffle
 0006:C0255FAF       aBreak
 0006:C0255FB5       aPrevious
 0006:C0255FBE       aDigits
 0006:C0255FC5       aTeen
 0006:C0255FCA       aTwen
 0006:C0255FCF       aSpellcheck
 0006:C0255FDA       aLogoff
 0006:C0255FE1       aDeleteeol
 0006:C0255FEB       aDeleteeos
 0006:C0256000       aDeleteline
 0006:C025600B       aFn
 0006:C025600E       aFnEsc
 0006:C0256015       aFnF1
 0006:C025601B       aFnF2
 0006:C0256021       aFnF3
 0006:C0256027       aFnF4
 0006:C025602D       aFnF5
 0006:C0256033       aFnF6
 0006:C0256039       aFnF7
 0006:C025603F       aFnF8
 0006:C0256045       aFnF9
 0006:C025604B       aFnF10
 0006:C0256052       aFnF11
 0006:C0256059       aFnF12
 0006:C0256088       aPort
 0006:C025608D       aRelative_0
 0006:C0256096       aAbsolute_0
 0006:C025609F       aRepeat
 0006:C02560A6       aForcefeedback
 0006:C02560B4       aForcefeedbacks
 0006:C02560C8       aUndefined
 0006:C025617C       aSystemcontextm
 0006:C025618E       aSystemmainmenu
 0006:C025619D       aSystemappmenu
 0006:C02561AB       aSystemmenuhelp
 0006:C02561BA       aSystemmenuexit
 0006:C02561C9       aSystemmenusele
 0006:C02561DA       aSystemmenurigh
 0006:C02561EA       aSystemmenuleft
 0006:C02561F9       aSystemmenuup
 0006:C0256206       aSystemmenudown
 0006:C0256215       aDPadup
 0006:C025621D       aDPaddown
 0006:C0256227       aDPadright
 0006:C0256232       aDPadleft
 0006:C025623C       aSimulation
 0006:C0256247       aAileron
 0006:C025624F       aAilerontrim
 0006:C025625B       aAntiTorque
 0006:C0256267       aAutopilot
 0006:C0256271       aChaff
 0006:C0256277       aCollective
 0006:C02562F4       aEnericindicato
 0006:C0256304       aOrdinal
 0006:C025630C       aConsumer
 0006:C0256315       aHorizontalwhee
 0006:C0256325       aDigitizers
 0006:C0256330       aDigitizer
 0006:C025633A       aLightpen
 0006:C0256343       aTouchscreen
 0006:C025634F       aPuck
 0006:C02563FC       aMode
 0006:C0256401       aDeviceindex
 0006:C025640D       aContactcount
 0006:C025641A       aContactmaximum
 0006:C025642F       aPhysicalinterf
 0006:C0256447       aPhysicalInterf
 0006:C0256461       aSetEffectRepor
 0006:C0256473       aEffectBlockInd
 0006:C0256486       aParameterBlock
 0006:C025649D       aRomFlag
 0006:C02564A6       aEffectType
 0006:C02564B2       aEtConstantForc
 0006:C02564C4       aEtRamp
 0006:C02564CC       aEtCustomForceD
 0006:C02564E1       aEtSquare
 0006:C02564EB       aEtSine
 0006:C02564F3       aEtTriangle
 0006:C02564FF       aEtSawtoothUp
 0006:C025650E       aEtSawtoothDown
 0006:C025651F       aEtSpring
 0006:C0256529       aEtDamper
 0006:C0256533       aEtInertia
 0006:C025653E       aEtFriction
 0006:C025654A       aDuration
 0006:C0256553       aSamplePeriod
 0006:C0256561       aTriggerButton
 0006:C0256570       aTriggerRepeatI
 0006:C0256588       aAxesEnable
 0006:C02565A0       aAble
 0006:C02565A5       aTypeSpecificBl
 0006:C02565C0       aBlockType
 0006:C02565F8       aFadeLevel
 0006:C0256603       aFadeTime
 0006:C025660D       aSetConditionRe
 0006:C0256622       aCpOffset
 0006:C025662C       aPositiveCoeffi
 0006:C0256648       aECoefficient
 0006:C0256656       aPositiveSatura
 0006:C025666A       aNegativeSatura
 0006:C025667E       aDeadBand
 0006:C0256688       aDownloadForceS
 0006:C025669E       aIsochCustomFor
 0006:C02566B8       aCustomForceDat
 0006:C02566D1       aCustomForceVen
 0006:C0256700       aCeReport
 0006:C025670A       aCustomForceDat_0
 0006:C0256723       aSampleCount
 0006:C025673C       aReport
 0006:C0256744       aMagnitude
 0006:C025674E       aPhase
 0006:C0256754       aSetConstantFor
 0006:C02567A8       aReport_0
 0006:C02567B0       aEffectOperatio
 0006:C02567C8       aCtStart
 0006:C02567D8       aCtStartSolo
 0006:C02567E6       aOpEffectStop
 0006:C0256808       aAinReport
 0006:C0256813       aDeviceGain
 0006:C025681F       aPidPoolReport
 0006:C025682F       aRamPoolSize
 0006:C025683D       aRomPoolSize
 0006:C025684B       aRomEffectBlock
 0006:C0256862       aSimultaneousEf
 0006:C025687B       aPoolAlignment
 0006:C025688A       aPidPoolMoveRep
 0006:C02568A4       aSource
 0006:C02568B0       aDestination
 0006:C02568BC       aMoveLength
 0006:C02568C8       aPidBlockLoadRe
 0006:C02568DE       aBlockLoadStatu
 0006:C02568F0       aBlockLoadSucce
 0006:C0256903       aBlockLoadFull
 0006:C025693C       aPeSpecificBloc
 0006:C0256955       aPidStateReport
 0006:C0256966       aEffectPlaying
 0006:C0256990       aIdDeviceContro
 0006:C02569A2       aDcEnableActuat
 0006:C02569B6       aDcDisableActua
 0006:C02569D0       aOpAllEffects
 0006:C02569DF       aDcDeviceReset
 0006:C02569F8       aPause
 0006:C0256A14       aVicePaused
 0006:C0256A20       aActuatorsEnabl
 0006:C0256A32       aSafetySwitch
 0006:C0256A44       aAtorOverrideSw
 0006:C0256A59       aActuatorPower
 0006:C0256A6C       aTDelay
 0006:C0256A9D       aSharedParamete
 0006:C0256AB5       aCreateNewEffec
 0006:C0256ACE       aRamPoolAvailab
 0006:C0256AE1       aPowerDevice
 0006:C0256AEE       aPresentstatus
 0006:C0256AFC       aChangestatus
 0006:C0256B09       aUps
 0006:C0256B0D       aPowersupply
 0006:C0256B19       aBatterysystem
 0006:C0256B27       aBatterysystemi
 0006:C0256B37       aBattery
 0006:C0256B3F       aBatteryid
 0006:C0256B49       aCharger
 0006:C0256B51       aChargerid
 0006:C0256B5B       aPowerconverter
 0006:C0256B6A       aPowerconverter_0
 0006:C0256B80       aTsystem
 0006:C0256B88       aOutletsystemid
 0006:C0256BAC       aOutputid
 0006:C0256BB5       aFlow
 0006:C0256BBA       aFlowid
 0006:C0256C24       aConfigapparent
 0006:C0256C38       aLowvoltagetran
 0006:C0256CC4       aRged
 0006:C0256CD0       aPerature
 0006:C0256CD9       aShutdownreques
 0006:C0256CEB       aShutdownimmine
 0006:C0256CFC       aSwitchonOff
 0006:C0256D09       aSwitchable
 0006:C0256D14       aUsed
 0006:C0256D19       aCommunicationl
 0006:C0256D2B       aImanufacturer
 0006:C0256D39       aIproduct
 0006:C0256D42       aIserialnumber
 0006:C0256D50       aBatterySystem
 0006:C0256D5F       aSmbbatterymode
 0006:C0256D6E       aSmbbatterystat
 0006:C0256D7F       aSmbalarmwarnin
 0006:C0256D8F       aSmbchargermode
 0006:C0256D9E       aSmbchargerstat
 0006:C0256DAF       aSmbchargerspec
 0006:C0256DC8       aEctorstate
 0006:C0256DD8       aLectorpresets
 0006:C0256DE6       aSmbselectorinf
 0006:C0256DF6       aCapacitymode
 0006:C0256E03       aBelowremaining
 0006:C0256E1F       aCharging
 0006:C0256E28       aDischarging
 0006:C0256E34       aNeedreplacemen
 0006:C0256E44       aRemainingcapac
 0006:C0256E56       aRuntimetoempty
 0006:C0256E65       aAveragetimetof
 0006:C0256E77       aDesigncapacity
 0006:C0256E86       aManufacturerda
 0006:C0256E97       aIdevicechemist
 0006:C0256EC4       aCapacitygranul
 0006:C0256ED9       aAcpresent
 0006:C0256EF0       aIcFf
 0006:C0256F14       aMissing
 0006:C0256F1F       aSound_0
 0006:C0256F90       aAmidi
 0006:C0256F96       aAdmmidi
 0006:C0256F9E       aUnknownD
 0006:C0256FA8       aSoundSlotI
 0006:C0256FC0       aIceII
 0006:C0256FD0       aTocolDNprotoD
 0006:C0256FE8       a6NetRegistered
 0006:C025700F       aBridge
 0006:C0257016       a8021q
 0006:C025701C       aDlci
 0006:C0257021       aSocketLu
 0006:C025702E       a3SockReleaseFa
 0006:C0257060       aLoseNullInode
 0006:C0257072       aSocket
 0006:C025707A       aSockInodeCache
 0006:C025708B       a6SUsesObsolete
 0006:C02570B6       a4SocketNoMoreS
 0006:C02570D2       aNetPfD
 0006:C02570DC       aNetSocketC
 0006:C02570E9       a6NetUnregister
 0006:C0257112       aSocketsUsedD
 0006:C0257138       aImeoutSPidDTri
 0006:C025716D       aProtocols
 0006:C02571A0       aSdcompat
 0006:C02571BC       aAgeDBytesDetec
 0006:C02571FC       a2SCanTCreateRe
 0006:C025722A       a3ProtoInuseNrE
 0006:C025724C       a9s4s8s6s5s7s4s
 0006:C0257276       aSockets
 0006:C025727E       aPress
 0006:C0257284       aMaxhdr
 0006:C025728B       aSlab
 0006:C0257290       aClCoDiAcIoInDe
 0006:C02572CA       a9s4u6d6d3s6u3s
 0006:C0257342       aGetsockopt
 0006:C025734D       aSetsockopt
 0006:C0257358       aNetCoreRequest
 0006:C0257370       a0SkbOverPanicT
 0006:C02573C4       aNetCoreSkbuffC
 0006:C02573D6       a0SkbUnderPanic
 0006:C025742B       aIncludeLinuxSk
 0006:C0257442       a4BadPartialCsu
 0006:C025746A       a4SReceivedPack
 0006:C02574AC       aSkbuffHeadCach
 0006:C02574BE       aSkbuffFcloneCa
 0006:C02574D2       aNetCoreDatagra
 0006:C02574E6       aNetCoreStreamC
 0006:C02574F8       a3RtnlAssertion
 0006:C025751E       aNetCoreGenEsti
 0006:C0257537       aNetCoreNetName
 0006:C0257550       aCouldNotSetupT
 0006:C025757E       aCouldNotAlloca_1
 0006:C025759F       aNetCoreSysctlN
 0006:C02575BA       aSomaxconn
 0006:C02575C4       aWmemMax
 0006:C02575CD       aRmemMax
 0006:C02575D6       aWmemDefault
 0006:C02575E3       aRmemDefault
 0006:C02575F0       aDevWeight
 0006:C02575FB       aNetdevMaxBackl
 0006:C025760E       aMessageCost
 0006:C025761B       aMessageBurst
 0006:C0257629       aOptmemMax
 0006:C0257634       aNetdevBudget
 0006:C0257642       a4DevRemovePack
 0006:C0257665       a5SDroppingNeti_0
 0006:C025769C       a5SDroppingNeti
 0006:C025773C       aFeature_0
 0006:C0257747       aNetCoreDevC
 0006:C0257756       aEntered
 0006:C025775E       aLeft
 0006:C02577A4       aItyFeatureOfDe
 0006:C02577CC       a6DeviceSSPromi
 0006:C02577EE       aSCaps0xLx0xLxL
 0006:C0257826       aPtype
 0006:C0257834       aStat
 0006:C0257844       aFunction
 0006:C0257854       aAll
 0006:C0257859       a8sPf
 0006:C0257864       a08x08x08x08x08
 0006:C0257892       aInterReceive
 0006:C025795B       a6s8lu7lu4lu4lu
 0006:C02579B2       aUnknown_1
 0006:C02579BC       a3SHwCsumFailur
 0006:C02579D5       a3AllocNetdevUn
 0006:C0257A02       a3AllocNetdevUn_0
 0006:C0257A32       a3SNameChangeRo
 0006:C0257A5B       a7UnregisterNet
 0006:C0257A97       aDevAddrDiscard
 0006:C0257AC9       a5SMixedHwAndIp
 0006:C0257AF4       a5SMixedNoCheck
 0006:C0257B26       a2Protocol04xIs
 0006:C0257B64       aOQueuePacket
 0006:C0257B75       a2DeadLoopOnVir
 0006:C0257BAA       a4SAllmultiTouc
 0006:C0257C0A       a3NetworkTodoSB
 0006:C0257C2D       a0UnregisterNet
 0006:C0257C77       a0SFailedToMove
 0006:C0257CA1       aNetCoreEthtool
 0006:C0257CB4       aDevMcast
 0006:C0257CBE       a4d15s5d5d
 0006:C0257CD4       aNetCoreDstC
 0006:C0257CE3       aEntriesAllocsD
 0006:C0257D7A       a08x08lx08lx08l
 0006:C0257DC7       aNeigh
 0006:C0257DCD       aNetCoreNeighbo
 0006:C0257DE2       aCannotCreateNe
 0006:C0257E0B       aCannotCreateNe_0
 0006:C0257E32       aCannotAllocate
 0006:C0257E59       a4DestroyingAli
 0006:C0257E7B       a4ImpossibleEve
 0006:C0257E98       aBugDoubleTimer
 0006:C0257EBC       aNeighResolveOu
 0006:C0257EE3       aNeighParmsRele
 0006:C0257F03       a3NeighRegister
 0006:C0257F38       a4NeighTimerNud
 0006:C0257F59       a2NeighbourLeak
 0006:C0257F6F       aMcastSolicit
 0006:C0257F7D       aUcastSolicit
 0006:C0257F8B       aAppSolicit
 0006:C0257F97       aRetransTime
 0006:C0257FAC       aChableTime
 0006:C0257FB8       aDelayFirstProb
 0006:C0257FCF       aGcStaleTime
 0006:C0257FDD       aUnresQlen
 0006:C0257FE8       aProxyQlen
 0006:C0257FF3       aAnycastDelay
 0006:C0258001       aProxyDelay
 0006:C025800D       aLocktime
 0006:C0258016       aRetransTimeMs
 0006:C0258026       aBaseReachableT
 0006:C025803D       aGcInterval
 0006:C0258049       aGcThresh1
 0006:C0258054       aGcThresh2
 0006:C025805F       aGcThresh3
 0006:C025806A       aNetCoreRtnetli
 0006:C025807F       a4ALinkChangeRe
 0006:C0258148       aOcolDMessageTy
 0006:C0258166       aRtnlLinkS
 0006:C0258173       aSD_4
 0006:C0258179       aRtnetlinkInitC
 0006:C02581A2       aRtnetlinkInitC_0
 0006:C02581CF       aNetCoreFilterC
 0006:C02581E1       aFlowCache
 0006:C02581EC       aNetFailedToAll
 0006:C025821A       aNetCoreNetSysf
 0006:C0258234       aFaceS
 0006:C025823C       aIfindexD
 0006:C0258247       aTxCompressed
 0006:C0258255       aRxCompressed
 0006:C0258263       aTxWindowErrors
 0006:C0258274       aTxHeartbeatErr
 0006:C0258288       aTxFifoErrors
 0006:C0258297       aTxCarrierError
 0006:C02582A9       aTxAbortedError
 0006:C02582BB       aRxMissedErrors
 0006:C02582CC       aRxFifoErrors
 0006:C02582DB       aRxFrameErrors
 0006:C02582EB       aRxCrcErrors
 0006:C02582F9       aRxOverErrors
 0006:C0258308       aRxLengthErrors
 0006:C0258319       aMulticast
 0006:C0258323       aTxDropped
 0006:C025832E       aRxDropped
 0006:C0258339       aTxErrors
 0006:C0258343       aRxErrors
 0006:C025834D       aTxBytes
 0006:C0258356       aRxBytes
 0006:C025835F       aTxPackets
 0006:C025836A       aRxPackets
 0006:C0258375       aAddrLen
 0006:C025837E       aDevId
 0006:C0258385       aIfalias
 0006:C025838D       aIflink
 0006:C0258394       aIfindex
 0006:C025839C       aLinkMode
 0006:C02583A6       aAddress
 0006:C02583AE       aBroadcast
 0006:C02583B8       aCarrier
 0006:C02583C0       aDormant
 0006:C02583C8       aOperstate
 0006:C02583D2       aTxQueueLen
 0006:C02583DF       aNotpresent
 0006:C02583F4       aDown
 0006:C02583F9       aTesting
 0006:C0258401       a7SUnableToReso
 0006:C025842E       aEthD
 0006:C0258434       aNetSchedSchGen
 0006:C025844C       a6NetdevWatchdo
 0006:C02584BC       aSCodeDQlenD
 0006:C02584D1       a6SActivationFa
 0006:C02584EB       aNetNetlinkAfNe
 0006:C0258504       aNlkCbMutex
 0006:C0258512       a3FreeingAliveN
 0006:C0258536       aNetlink
 0006:C025853E       aSkEthPidGroups
 0006:C0258587       aP3d6d08x8d8dP8
 0006:C02585B1       aNetPfDProtoD
 0006:C02585C4       aIncludeNetSock
 0006:C02585D7       aNetlinkInitCan
 0006:C02585FF       aNetNetlinkGene
 0006:C0258617       aGenlCannotInit
 0006:C0258640       aGenlCannotRegi
 0006:C0258666       a7IpRtBugPi4Pi4
 0006:C0258686       aNetIpv4RouteC
 0006:C0258697       aRtCache
 0006:C02586A0       aRtAcct
 0006:C02586A8       aEntriesInHitIn
 0006:C0258776       a08x08x08x08x08_0
 0006:C02587CF       a127s
 0006:C0258858       a08lxDUU02xD1d0
 0006:C025887B       a4DstCacheOverf
 0006:C0258892       a4NeighbourTabl
 0006:C02588C4       a4SDRebuildsIsO
 0006:C02588FE       a4RouteHashChai
 0006:C025891D       a4AdjustYourSec
 0006:C025893E       a4NeighbourTabl_0
 0006:C025895C       a2BugInIpRouteI
 0006:C0258994       aIndPeer0P
 0006:C02589A5       aIpDstCache
 0006:C02589B2       aIpRouteCache
 0006:C02589C1       a3UnableToSetup
 0006:C02589E5       a3UnableToCreat
 0006:C0258A0B       aIpv4
 0006:C0258A10       aGcThresh
 0006:C0258A1A       aMaxSize
 0006:C0258A23       aGcMinInterval
 0006:C0258A40       aAlMs
 0006:C0258A46       aGcTimeout
 0006:C0258A51       aRedirectLoad
 0006:C0258A5F       aRedirectNumber
 0006:C0258A6F       aRedirectSilenc
 0006:C0258A80       aErrorCost
 0006:C0258A8B       aErrorBurst
 0006:C0258A97       aGcElasticity
 0006:C0258AA5       aMtuExpires
 0006:C0258AB1       aMinPmtu
 0006:C0258ABA       aMinAdvMss
 0006:C0258AC6       aInetPeerCache
 0006:C0258AD6       aNetIpv4Inetpee
 0006:C0258AEA       a6SourceRouteOp
 0006:C0258B0F       a3IpFragCreateN
 0006:C0258B34       aNetIpv4IpFragm
 0006:C0258B4B       a3IpQueueGlueNo
 0006:C0258B7D       a6OversizedIpPa
 0006:C0258BA0       aIpfragSecretIn
 0006:C0258BB7       aIpfragMaxDist
 0006:C0258BC7       aIpfragHighThre
 0006:C0258BDA       aIpfragLowThres
 0006:C0258BEC       aIpfragTime
 0006:C0258BF8       a2IpForwardArgh
 0006:C0258C22       a7IpFinishOutpu
 0006:C0258C5B       aNetIpv4IpOutpu
 0006:C0258C70       a6IpFragNoMemor
 0006:C0258C9A       aNetIpv4InetHas
 0006:C0258DAC       aPeek
 0006:C0258DB4       aTcpBindBucket
 0006:C0258DC4       aTcpEstablished
 0006:C0258DD4       aTcpBind
 0006:C0258DDD       a6TcpHashTables
 0006:C0258E16       aNetIpv4TcpInpu
 0006:C0258E30       aPParseOptionsI
 0006:C0258E70       a7PruneQueueCX
 0006:C0258E86       a3SImpossibleSk
 0006:C0258EC8       aIved
 0006:C0258ECF       a7OfoRequeuingR
 0006:C0258F14       aXtXSeqXX
 0006:C0258F27       a7OutOfOrderSeg
 0006:C0258F59       a7LeakLUD
 0006:C0258F6A       a7LeakSUD
 0006:C0258F7B       a7LeakRUD
 0006:C0258F8C       a7AckUAfterUU
 0006:C0258FB4       aUU
 0006:C0258FBB       aNetIpv4TcpOutp
 0006:C0258FD1       a7RetransOutLea
 0006:C0258FE9       a7TcpSendSynack
 0006:C0259010       a6OutOfSocketMe
 0006:C0259029       aNetIpv4TcpTime
 0006:C025906C       aNdowUURepaired
 0006:C0259083       aS_10
 0006:C0259089       aSlLocalAddress
 0006:C02590EA       a4d08x04x08x04x_0
 0006:C0259147       a4d08x04x08x04x_1
 0006:C0259192       a4d08x04x08x04x_2
 0006:C02591DD       a7TcpDropOpenRe
 0006:C0259214       aV4C
 0006:C0259219       aIncludeNetTcpH
 0006:C025922B       aFailedToCreate_0
 0006:C0259255       a6TcpTimeWaitBu
 0006:C025927E       a3TcpSDoesNotIm
 0006:C02592A9       a5TcpSAlreadyRe
 0006:C02592C7       a6TcpSRegistere
 0006:C02592DD       aTcpS
 0006:C02592E4       aCubic
 0006:C02592EA       aNetIpv4TcpCong
 0006:C02592FE       a6SForgotToSetA
 0006:C0259333       aSlLocalAddress_0
 0006:C02593A7       a4d08x04x08x04x_3
 0006:C02593F5       aIncludeNetUdpH
 0006:C0259407       a7UdpCorkAppBug
 0006:C025941E       a7UdpCorkAppBug_0
 0006:C0259498       aFPointerDrops
 0006:C02594A8       a4d08x04x08x04x
 0006:C02594F7       a4UdplitePartia
 0006:C0259539       a4UdpliteCovera
 0006:C0259569       aLite
 0006:C025956F       a7UdpliteZeroed
 0006:C0259592       a7UdpliteBadCsu
 0006:C02595B7       a7UdpSShortPack
 0006:C02595EE       a7UdpSBadChecks
 0006:C0259627       a3SCannotRegist_0
 0006:C0259646       a2SCannotAddUdp
 0006:C025966C       aUdplite_0
 0006:C0259674       aIpAddressHwTyp
 0006:C02596C4       a16s0x10x0x10xS
 0006:C02596EC       a000000000000
 0006:C02596FE       a7TryingToUcast
 0006:C0259727       a7ArpFindIsCall
 0006:C025974D       a7ArpArpCalledF
 0006:C0259774       aArpCache
 0006:C025977E       aNetIpv4IcmpC
 0006:C02597AC       aMSPi4
 0006:C02597D4       aNeededAndDfSet
 0006:C02597E8       a6IcmpPi4Source
 0006:C0259858       aS_11
 0006:C025985D       aNetIpv4Devinet
 0006:C0259870       aFreeingAliveIn
 0006:C025988C       aConf
 0006:C02598AC       aOrward
 0006:C02598B3       aMcForwarding
 0006:C02598C1       aAcceptRedirect
 0006:C02598D2       aSecureRedirect
 0006:C02598E3       aSharedMedia
 0006:C02598F0       aSendRedirects
 0006:C02598FF       aAcceptSourceRo
 0006:C0259913       aProxyArp
 0006:C025991D       aMediumId
 0006:C0259927       aBootpRelay
 0006:C0259938       aArtians
 0006:C0259940       aTag
 0006:C0259944       aArpFilter
 0006:C025994F       aArpAnnounce
 0006:C025995C       aArpIgnore
 0006:C0259967       aArpAccept
 0006:C0259978       aTify
 0006:C025997D       aDisableXfrm
 0006:C025998A       aDisablePolicy
 0006:C02599A4       aVersion
 0006:C02599AC       aPromoteSeconda
 0006:C02599C0       aAttemptToRelea
 0006:C0259BA0       aMpProtocol
 0006:C0259BAD       aFailedToCreate_1
 0006:C0259BD8       a2InetInitCanno
 0006:C0259BFD       aMcfilter
 0006:C0259C06       aIgmp
 0006:C0259C0B       a3s6s10s10s6s6s
 0006:C0259C26       aIdx
 0006:C0259C2A       aMca
 0006:C0259C2E       aSrc
 0006:C0259C32       aInc
 0006:C0259C36       aExc
 0006:C0259C3A       a3d66s0x08x0x08
 0006:C0259C5D       aV3
 0006:C0259C60       aV1
 0006:C0259C84       aUpUsersTimerRe
 0006:C0259CA0       aD10s5d7s
 0006:C0259CB3       a08x5dD08lxD
 0006:C0259CCE       aNetIpv4IgmpC
 0006:C0259CDE       a4FibAddIfaddrB
 0006:C0259D04       a4FibDelIfaddrB
 0006:C0259D2A       a4FreeingAliveF
 0006:C0259D48       a4FibSemanticMa
 0006:C0259D6C       aNetIpv4FibSema
 0006:C0259D85       aNetIpv4InetFra
 0006:C0259D9E       aIcmpEchoIgnore
 0006:C0259DB3       aIcmpEchoIgnore_0
 0006:C0259DCF       aIcmpIgnoreBogu
 0006:C0259DF1       aIcmpErrorsUseI
 0006:C0259E10       aIcmpRatelimit
 0006:C0259E1F       aIcmpRatemask
 0006:C0259E38       aBuildCount
 0006:C0259E44       aTcpTimestamps
 0006:C0259E53       aTcpWindowScali
 0006:C0259E66       aTcpSack
 0006:C0259E6F       aTcpRetransColl
 0006:C0259E84       aIpDefaultTtl
 0006:C0259E93       aIpNoPmtuDisc
 0006:C0259EA3       aIpNonlocalBind
 0006:C0259EB4       aTcpSynRetries
 0006:C0259EC4       aTcpSynackRetri
 0006:C0259ED7       aTcpMaxOrphans
 0006:C0259EE7       aTcpMaxTwBucket
 0006:C0259EFA       aIpDynaddr
 0006:C0259F05       aTcpKeepaliveTi
 0006:C0259F18       aTcpKeepalivePr
 0006:C0259F2D       aTcpKeepaliveIn
 0006:C0259F41       aTcpRetries1
 0006:C0259F4E       aTcpRetries2
 0006:C0259F5B       aTcpFinTimeout
 0006:C0259F6B       aTcpTwRecycle
 0006:C0259F7A       aTcpAbortOnOver
 0006:C0259F90       aTcpStdurg
 0006:C0259F9B       aTcpRfc1337
 0006:C0259FA7       aTcpMaxSynBackl
 0006:C0259FBB       aIpLocalPortRan
 0006:C0259FCF       aIgmpMaxMembers
 0006:C0259FE4       aIgmpMaxMsf
 0006:C0259FF1       aInetPeerThresh
 0006:C025A005       aInetPeerMinttl
 0006:C025A016       aInetPeerMaxttl
 0006:C025A027       aInetPeerGcMint
 0006:C025A03C       aInetPeerGcMaxt
 0006:C025A051       aTcpOrphanRetri
 0006:C025A064       aTcpFack
 0006:C025A06D       aTcpReordering
 0006:C025A07C       aTcpEcn
 0006:C025A084       aTcpDsack
 0006:C025A08E       aTcpMem
 0006:C025A096       aTcpWmem
 0006:C025A09F       aTcpRmem
 0006:C025A0A8       aTcpAppWin
 0006:C025A0B4       aTcpAdvWinScale
 0006:C025A0C6       aTcpTwReuse
 0006:C025A0D3       aTcpFrto
 0006:C025A0DC       aTcpFrtoRespons
 0006:C025A0EE       aTcpLowLatency
 0006:C025A0FE       aTcpNoMetricsSa
 0006:C025A112       aTcpModerateRcv
 0006:C025A126       aTcpTsoWinDivis
 0006:C025A13A       aTcpCongestionC
 0006:C025A151       aTcpAbc
 0006:C025A159       aTcpMtuProbing
 0006:C025A169       aTcpBaseMss
 0006:C025A176       aTcpWorkaroundS
 0006:C025A194       aTcpSlowStartAf
 0006:C025A1AE       aTcpAvailableCo
 0006:C025A1CF       aTcpAllowedCong
 0006:C025A1EE       aTcpMaxSsthresh
 0006:C025A1FF       aUdpMem
 0006:C025A207       aUdpRmemMin
 0006:C025A214       aUdpWmemMin
 0006:C025A221       a2RouteCBadDivi
 0006:C025A23E       aIfaceDestinati
 0006:C025A2A0       aD08xDUUN
 0006:C025A2B2       a08x08x04xDUD08
 0006:C025A2DC       aNetIpv4FibHash
 0006:C025A2F0       aIpFibHash
 0006:C025A2FC       aIpFibAlias
 0006:C025A309       aSnmp
 0006:C025A30E       aNetstat
 0006:C025A316       aSockstat
 0006:C025A320       aTcpext
 0006:C025A328       aIpext
 0006:C025A330       aTcpInuseDOrpha
 0006:C025A35F       aUdpInuseDMemD
 0006:C025A375       aUdpliteInuseD
 0006:C025A388       aRawInuseD
 0006:C025A397       aFragInuseDMemo
 0006:C025A3B1       aOut
 0006:C025A3B5       aIn
 0006:C025A3B8       aIcmpmsg
 0006:C025A3C2       aStypeU
 0006:C025A3CC       aIpForwardingDe
 0006:C025A3E6       aIpDD
 0006:C025A3F1       aIcmpInmsgsIner
 0006:C025A408       aInS
 0006:C025A414       aGsOuterrors
 0006:C025A421       aOutS
 0006:C025A428       aIcmpLuLu
 0006:C025A437       aTcp
 0006:C025A43D       aLd
 0006:C025A442       aUdp
 0006:C025A448       aUdplite
 0006:C025A452       aSyncookiessent
 0006:C025A461       aSyncookiesrecv
 0006:C025A484       aRyonicrsts
 0006:C025A49C       aCvpruned
 0006:C025A4B4       aWindowicmps
 0006:C025A4C0       aLockdroppedicm
 0006:C025A4D1       aArpfilter
 0006:C025A4DB       aTw
 0006:C025A4DE       aTwrecycled
 0006:C025A4E9       aTwkilled
 0006:C025A4F2       aPawspassive
 0006:C025A4FE       aPawsactive
 0006:C025A509       aPawsestab
 0006:C025A513       aDelayedacks
 0006:C025A51F       aDelayedacklock
 0006:C025A530       aDelayedacklost
 0006:C025A544       aNoverflows
 0006:C025A554       aNdrops
 0006:C025A55B       aTcpprequeued
 0006:C025A568       aTcpdirectcopyf
 0006:C025A581       aTcpdirectcopyf_0
 0006:C025A59B       aTcpprequeuedro
 0006:C025A5AE       aTcphphits
 0006:C025A5B8       aTcphphitstouse
 0006:C025A5C8       aTcppureacks
 0006:C025A5D4       aTcphpacks
 0006:C025A5DE       aTcprenorecover
 0006:C025A5EE       aTcpsackrecover
 0006:C025A5FE       aTcpsackrenegin
 0006:C025A60E       aTcpfackreorder
 0006:C025A61D       aTcpsackreorder
 0006:C025A62C       aTcprenoreorder
 0006:C025A63B       aTcptsreorder
 0006:C025A64C       aUllundo
 0006:C025A684       aTcplostretrans
 0006:C025A696       aTcprenofailure
 0006:C025A6A6       aTcpsackfailure
 0006:C025A6B6       aTcplossfailure
 0006:C025A6C6       aTcpfastretrans
 0006:C025A6D5       aTcpforwardretr
 0006:C025A71C       aCpsackrecovery
 0006:C025A734       aHedulerfailed
 0006:C025A742       aTcprcvcollapse
 0006:C025A752       aTcpdsackoldsen
 0006:C025A762       aTcpdsackofosen
 0006:C025A772       aTcpdsackrecv
 0006:C025A77F       aTcpdsackoforec
 0006:C025A78F       aTcpabortonsyn
 0006:C025A79D       aTcpabortondata
 0006:C025A7CD       aTcpabortontime
 0006:C025A7DF       aTcpabortonling
 0006:C025A800       aCpmemorypressu
 0006:C025A812       aTcpsackdiscard
 0006:C025A821       aTcpdsackignore
 0006:C025A834       aTcpdsackignore_0
 0006:C025A84A       aTcpspuriousrto
 0006:C025A88C       aSackmerged
 0006:C025A897       aTcpsackshiftfa
 0006:C025A8B8       aNoports
 0006:C025A8C0       aOutdatagrams
 0006:C025A8CD       aRcvbuferrors
 0006:C025A8DA       aSndbuferrors
 0006:C025A8E7       aRtoalgorithm
 0006:C025A8F4       aRtomin
 0006:C025A8FB       aRtomax
 0006:C025A902       aMaxconn
 0006:C025A90A       aActiveopens
 0006:C025A916       aPassiveopens
 0006:C025A923       aAttemptfails
 0006:C025A930       aEstabresets
 0006:C025A93C       aCurrestab
 0006:C025A95C       aSegs
 0006:C025A9AC       aEchoreps
 0006:C025A9D8       aAddrmaskreps
 0006:C025AA20       aPkts
 0006:C025AA2C       aTpkts
 0006:C025AA32       aInoctets
 0006:C025AA40       aTets
 0006:C025AA4C       aOctets
 0006:C025AA58       aAstoctets
 0006:C025AA62       aInbcastoctets
 0006:C025AA70       aOutbcastoctets
 0006:C025AA84       aEives
 0006:C025AA8A       aInhdrerrors
 0006:C025AA96       aInaddrerrors
 0006:C025AAA3       aForwdatagrams
 0006:C025AAB8       aWnprotos
 0006:C025AADC       aQuests
 0006:C025AAE8       aScards
 0006:C025AAF4       aRoutes
 0006:C025AAFB       aReasmtimeout
 0006:C025AB08       aReasmreqds
 0006:C025AB13       aReasmoks
 0006:C025AB1C       aReasmfails
 0006:C025AB27       aFragoks
 0006:C025AB2F       aFragfails
 0006:C025AB39       aFragcreates
 0006:C025AB45       aNetIpv4Xfrm4Mo
 0006:C025AB60       aIncludeLinuxIf
 0006:C025AB78       aNetIpv4Xfrm4Mo_0
 0006:C025ABA4       aM4ModeTunnelC
 0006:C025ABB5       aBootp_0
 0006:C025ABBB       aRarp
 0006:C025ABC0       aDhcp
 0006:C025ABC5       aProtoS_0
 0006:C025ABD1       aManual_0
 0006:C025ABE4       aPi4
 0006:C025ABEB       aBootserverPi4
 0006:C025ABFC       aBootp
 0006:C025AC02       aBoth
 0006:C025AC5C       aDX
 0006:C025AC63       a3DhcpBootpIgno
 0006:C025AC8C       a4DhcpVendorcla
 0006:C025ACBD       aAnd
 0006:C025ACC3       aPnp
 0006:C025ACCC       aConfigFailedTo
 0006:C025ACE8       a4DhcpBootpIgno
 0006:C025AD1C       a3IpConfigDevic
 0006:C025AD54       aEtworkDevicesA
 0006:C025ADAC       a3DhcpBootpNoSu
 0006:C025ADD6       a5SendingSSSReq
 0006:C025AE04       a0x04xForDevice
 0006:C025AE1A       aTimedOut
 0006:C025AE2C       aNfigGotSAnswer
 0006:C025AE4C       aMyAddressIsPi4
 0006:C025AE60       a3IpConfigRetry
 0006:C025AE8E       a3IpConfigReope
 0006:C025AEBA       a3IpConfigAutoC
 0006:C025AEEF       a3IpConfigUnabl
 0006:C025AF2C       aNfigGuessingNe
 0006:C025AF49       a3IpConfigUnabl_0
 0006:C025AF90       aLeToSetInterfa
 0006:C025AFBC       aFigUnableToSet
 0006:C025B038       aAtewayNotOnDir
 0006:C025B080       aUltRouteD
 0006:C025B091       aMtuD
 0006:C025B09A       aIpConfigComple
 0006:C025B0AF       aDeviceS
 0006:C025B0BF       aAddrPi4
 0006:C025B0CB       aMaskPi4
 0006:C025B0D7       aGwPi4
 0006:C025B10C       aBootserverPi4_0
 0006:C025B121       aRootserverPi4
 0006:C025B133       aRootpathS
 0006:C025B141       aNetIpv4Xfrm4Po
 0006:C025B159       aNetXfrmXfrmPol
 0006:C025B170       aXfrmDstCache
 0006:C025B17F       aNetXfrmXfrmSta
 0006:C025B195       aXfrmModeDD
 0006:C025B1A5       aXfrmTypeDD
 0006:C025B1B5       aSecpathCache
 0006:C025B1C3       aNetXfrmXfrmAlg
 0006:C025B1D8       aDeflate
 0006:C025B1E0       aLzs
 0006:C025B1E4       aLzjh
 0006:C025B1E9       aEcbCipherNull
 0006:C025B1FA       aCipherNull
 0006:C025B206       aCbcDes
 0006:C025B20F       aCbcDes3Ede
 0006:C025B21D       aDes3Ede
 0006:C025B226       aCbcCast5
 0006:C025B231       aCast5
 0006:C025B237       aCbcBlowfish
 0006:C025B245       aBlowfish
 0006:C025B24E       aAes
 0006:C025B252       aCbcSerpent
 0006:C025B25F       aSerpent
 0006:C025B267       aCbcCamellia
 0006:C025B275       aCbcTwofish
 0006:C025B282       aTwofish
 0006:C025B28A       aRfc3686CtrAes
 0006:C025B2F0       aBcAes
 0006:C025B2F8       aRfc4106GcmAes
 0006:C025B30A       aRfc4309CcmAes
 0006:C025B31C       aXfrmAeventEtim
 0006:C025B32E       aXfrmAeventRseq
 0006:C025B341       aXfrmLarvalDrop
 0006:C025B352       aXfrmAcqExpires
 0006:C025B363       aUnix
 0006:C025B368       aNumRefcountPro
 0006:C025B3A1       aP08x08x08x04x0
 0006:C025B3C3       aNetUnixAfUnixC
 0006:C025B3D6       aUReadlock
 0006:C025B3E3       a6AttemptToRele
 0006:C025B410       a2SCannotCreate
 0006:C025B43C       aNetUnixGarbage
 0006:C025B44F       aMaxDgramQlen
 0006:C025B45E       aPacket
 0006:C025B465       aSkRefcntTypePr
 0006:C025B49E       aP6d4d04x5d1d6u
 0006:C025B4CC       aPoPgVecLock
 0006:C025B4DD       aNetPacketAfPac
 0006:C025B4F4       aAttemptToRelea_0
 0006:C025B520       a3TpacketVersio
 0006:C025B542       a3PacketSizeIsT
 0006:C025B568       a3PacketSizeIsT_0
 0006:C025B58F       a3PacketExceedT
 0006:C025B5BE       a7PacketMmapVma
 0006:C025B5DF       aUnprintable
 0006:C025B5EB       aNoProc
 0006:C025B5F3       aRpc5uCallStart
 0006:C025B61A       aRpc5uSStatusD
 0006:C025B633       a3SStatusDButNo
 0006:C025B663       a3SStatusDReque
 0006:C025B68F       a3SUnrecognized
 0006:C025B6B6       aNetSunrpcClntC
 0006:C025B6C8       aRpc5uRpcBuffer
 0006:C025B6EF       aRpc5uRpcbindOu
 0006:C025B70F       aRpc5uRemoteRpc
 0006:C025B749       aRpc5uRpcbindRe
 0006:C025B76D       aRpc5uRemoteRpc_0
 0006:C025B79A       aRpc5uRemoteRpc_1
 0006:C025B7D1       aRpc5uUnrecogni
 0006:C025B7FB       aRpc5uCallTimeo
 0006:C025B81A       aRpc5uCallTimeo_0
 0006:C025B839       a5SServerSNotRe
 0006:C025B865       a5SServerSNotRe_0
 0006:C025B894       aSRpcCallReturn
 0006:C025B8B4       aSClntX
 0006:C025B8BE       a6RpcCouldnTCre
 0006:C025B8F1       aIsNot
 0006:C025B8F8       aRpc5uCallConne
 0006:C025B924       a6RpcCouldnTEnc
 0006:C025B952       aRpcSReturnedEr
 0006:C025B974       aRpc5uCallDecod
 0006:C025B996       a5SServerSOk
 0006:C025B9AB       aRpcSTooSmallRp
 0006:C025B9DF       aRpc5uSXdrRepre
 0006:C025BA20       aRpc5uSNotAnRpc
 0006:C025BA43       aRpc5uSRpcCallV
 0006:C025BA6C       aRpc5uSRpcCallR
 0006:C025BA9F       aRpc5uSRetrySta
 0006:C025BABF       aRpc5uSRetryGar
 0006:C025BAE1       a5RpcServerSReq
 0006:C025BB16       aRpc5uSUnknownA
 0006:C025BB3B       aRpc5uSCallReje
 0006:C025BB5A       aRpc5uSAuthChec
 0006:C025BB7A       aRpc5uSProgramU
 0006:C025BBAF       aRpc5uSProgramU_0
 0006:C025BBED       aRpc5uSProcSUns
 0006:C025BC36       aRpc5uSServerSa
 0006:C025BC57       aRpc5uSServerAc
 0006:C025BC7E       aRpc5uSRetrying
 0006:C025BC95       aRpc5uSCallFail
 0006:C025BCBD       aRpc5uSServerRe
 0006:C025BCE7       aRpc5uCallDecod_0
 0006:C025BD07       aRpcRpcReleaseC
 0006:C025BD2A       aRpcShuttingDow
 0006:C025BD55       aRpcCreatingSCl
 0006:C025BD85       a6RpcCouldnTCre_0
 0006:C025BDB6       aRpcDestroyingS
 0006:C025BDDE       a6PidFlgsStatus
 0006:C025BE18       a65u04x6d8p8p8l
 0006:C025BE4D       aRpc5uXprtCwndL
 0006:C025BE7F       aRpc5uFailedToL
 0006:C025BEA5       aRpc5uXprtConne
 0006:C025BEDB       aRpc5uXprtConne_0
 0006:C025BF03       aRpc5uXprtConne_1
 0006:C025BF3C       aRpc5uXprtConne_2
 0006:C025BF7C       aRpcWriteSpaceW
 0006:C025BFB4       aRpc5uXprtTimer
 0006:C025BFC9       aRpc5uXid08xCom
 0006:C025BFF9       aRpcDestroyingT
 0006:C025C01D       a6RpcRegistered
 0006:C025C046       a6RpcUnregister
 0006:C025C071       aXprt
 0006:C025C076       aRpcCongLdCwndW
 0006:C025C0A2       aRpcXprtLookupR
 0006:C025C0D5       aRpcDisconnecte
 0006:C025C0FB       a4XprtAdjustTim
 0006:C025C124       aRpc5uXprtConne_3
 0006:C025C150       aRpc5uXprtPrepa
 0006:C025C170       aRpc5uXprtTrans
 0006:C025C18C       aRpc5uXmitCompl
 0006:C025C1A4       aRpc5uReservedR
 0006:C025C1C7       aRpcWaitingForR
 0006:C025C1EC       aRpc5uReleaseRe
 0006:C025C209       a3RpcTransportD
 0006:C025C22F       aRpcXprtCreateT
 0006:C025C25E       aXprtBinding
 0006:C025C26B       aXprtPending
 0006:C025C278       aXprtSending
 0006:C025C285       aXprtResend
 0006:C025C291       aXprtBacklog
 0006:C025C29E       aRpcCreatedTran
 0006:C025C2CD       aRpcSClientPRpc
 0006:C025C2FD       aRpcDisconnecti
 0006:C025C32D       aRpcAfUnspecCon
 0006:C025C35A       aRpcWorkerConne
 0006:C025C38F       aRpcPConnectSta
 0006:C025C3CB       aSConnectReturn
 0006:C025C3F4       aRpcXsConnectDe
 0006:C025C42B       aRpcXsConnectSc
 0006:C025C454       aRpcXsTcpDataRe
 0006:C025C475       aXprtTcpULuLuLu
 0006:C025C4A8       aXprtUdpULuLuLu
 0006:C025C4CF       aRpc5uXmitIncom
 0006:C025C4F9       aRpcXsTcpSendRe
 0006:C025C522       aRpcSendmsgRetu
 0006:C025C555       aRpcXsUdpSendRe
 0006:C025C57E       aAddrPi4PortUPr
 0006:C025C599       a4hx
 0006:C025C59E       aPi4UU
 0006:C025C5A9       aAddrPi6PortUPr
 0006:C025C5C4       aPi6_0
 0006:C025C5C9       aPi6UU
 0006:C025C5D4       aRpcXsUdpDataRe
 0006:C025C5F5       aRpcImpossibleR
 0006:C025C61F       aReplyFor
 0006:C025C629       aRequestWith
 0006:C025C636       aRpcXsTcpDataRe_0
 0006:C025C65B       aRpcInvalidTcpR
 0006:C025C68A       aRpcReadingTcpR
 0006:C025C6BF       aRpcReadingXidZ
 0006:C025C6E3       aRpcReadingSXid
 0006:C025C703       aRpcReadingCall
 0006:C025C733       aRpcReadingSCal
 0006:C025C75F       aRpcReadReplyXi
 0006:C025C77F       aRpcXid08xReque
 0006:C025C7A7       aRpcXid08xTrunc
 0006:C025C7CE       aRpcXprtPTcpCop
 0006:C025C818       aRpcXid08xReadZ
 0006:C025C83C       aRpcDiscardedZu
 0006:C025C85C       aRpcXsTcpDataRe_1
 0006:C025C87E       aFailed
 0006:C025C885       aOk_1
 0006:C025C888       aRpcXsBind6Pi6U
 0006:C025C8AE       aRpcCanTCreateT
 0006:C025C8E2       aRpcSPi4USD
 0006:C025C902       aRpcXsTcpStateC
 0006:C025C92F       aRpcStateXConnD
 0006:C025C95E       aRpcXsSetupXprt
 0006:C025C98B       aRpcXsSetupXprt_0
 0006:C025C9C1       aRpcXsSetupXprt_1
 0006:C025C9F9       aTcp6
 0006:C025C9FE       aRpcSetUpTransp
 0006:C025CA29       aUdp6
 0006:C025CA2E       aRpcSettingPort
 0006:C025CA59       aNetSunrpcXprts
 0006:C025CA6F       aRpcXsCloseXprt
 0006:C025CA8C       aRpcXsDestroyXp
 0006:C025CAAB       aRpcCanTCreateU
 0006:C025CADF       aSunrpc
 0006:C025CAE6       aUdpSlotTableEn
 0006:C025CAFD       aTcpSlotTableEn
 0006:C025CB14       aMinResvport
 0006:C025CB21       aMaxResvport
 0006:C025CB2E       aNetSunrpcSched
 0006:C025CB41       aRpc5uAllocated
 0006:C025CB6E       aRpcFreeingBuff
 0006:C025CB9B       aRpc5uRpcWakeUp
 0006:C025CBC2       a3RpcInactiveTa
 0006:C025CBEE       aRpc5uDisabling
 0006:C025CC08       aRpc5uRemovedFr
 0006:C025CC2D       a4RpcFailedToAd
 0006:C025CC5E       aRpcRpcWakeUpTa
 0006:C025CC82       aRpcWakeUpNextP
 0006:C025CCA4       aRpc5uTimeout
 0006:C025CCB6       aRpc5uSleepOnQu
 0006:C025CCDE       a3RpcInactiveSy
 0006:C025CD0F       aRpc5uAddedToQu
 0006:C025CD30       aRpc5uSettingAl
 0006:C025CD53       aRpcKillingAllT
 0006:C025CD7F       aRpc5uFreeingTa
 0006:C025CD96       aRpc5uRpcExecut
 0006:C025CDB9       aRpc5uSyncTaskG
 0006:C025CDDC       aRpc5uGotSignal
 0006:C025CDF1       aRpc5uSyncTaskR
 0006:C025CE0E       aRpc5uReturnDSt
 0006:C025CE2D       aRpc5uReleaseTa
 0006:C025CE44       aRpcNewTaskInit
 0006:C025CE71       aRpcAllocatedTa
 0006:C025CE8F       aRpcDestroyingW
 0006:C025CEB7       aDelayq
 0006:C025CEBE       aRpcCreatingWor_0
 0006:C025CEE4       aRpciod
 0006:C025CEEB       aRpcTasks
 0006:C025CEF5       aRpcBuffers
 0006:C025CF01       aRpc5uHoldingSC
 0006:C025CF1E       aRpcAuthU
 0006:C025CF2A       aRpcLookingUpSC
 0006:C025CF49       aRpc5uLookingUp
 0006:C025CF66       aRpc5uReleasing
 0006:C025CF85       aRpc5uMarshalin
 0006:C025CFA5       aRpc5uValidatin
 0006:C025CFC5       aRpc5uUsingSCre
 0006:C025CFF1       aRpc5uUsingSCre_0
 0006:C025D01F       aRpc5uRefreshin
 0006:C025D03F       aRpc5uInvalidat
 0006:C025D061       aRpcBadVerfFlav
 0006:C025D07B       aRpcBadVerfSize
 0006:C025D093       aAuthNull
 0006:C025D09D       aRpcCreatingUni
 0006:C025D0D3       aRpcGiantVerfSi
 0006:C025D0ED       aRpcUnxFreeCred
 0006:C025D10A       aRpcAllocatingU
 0006:C025D13D       aRpcDestroyingU
 0006:C025D16A       aAuthUnix
 0006:C025D174       aRpcLookingUpMa
 0006:C025D198       aRpcGenericFree
 0006:C025D1B9       aMachine
 0006:C025D1C1       aGeneric_1
 0006:C025D1C9       aRpcAllocatedSC
 0006:C025D1FC       aGenericCred
 0006:C025D209       aGlobal
 0006:C025D210       aPercpu
 0006:C025D217       aPernode
 0006:C025D21F       a4SvcS
 0006:C025D22C       aBadDirectionDD
 0006:C025D250       aSvcFailedToEnc
 0006:C025D26D       aSvcCallingDisp
 0006:C025D286       aSvcSvcProcessD
 0006:C025D29F       aShortLenZdDrop
 0006:C025D2C0       aSvcAuthenticat
 0006:C025D2E1       aSvcUnknownProg
 0006:C025D2FA       aUnknownVersion
 0006:C025D320       aUnknownProcedu
 0006:C025D338       aFailedToDecode
 0006:C025D34F       aSvcSSvUErrorD
 0006:C025D369       aSvcInitialisin
 0006:C025D38B       aSvcSvcDestroyS
 0006:C025D3A5       aSvcDestroyNoTh
 0006:C025D3CB       aNetSunrpcSvcC
 0006:C025D3DC       aButNotTellingP
 0006:C025D3F7       aSvcSvcRegister
 0006:C025D41F       a4SvcFailedToRe
 0006:C025D459       aIpv4SPi4D
 0006:C025D46A       aIpv6SPi6D
 0006:C025D47B       aUnknownD_0
 0006:C025D489       aSvcSvcSockFree
 0006:C025D4A1       aSvcSvcSockDeta
 0006:C025D4BB       aSvcServicePRel
 0006:C025D4DE       aSvcSocketPSend
 0006:C025D516       aSvcSocketPRecv
 0006:C025D53D       aNetSunrpcSvcso
 0006:C025D552       aSvcSocketPInet
 0006:C025D580       aRpcSvcWriteSpa
 0006:C025D5AD       aSvcSocketPInet_0
 0006:C025D5D9       aSvcSocketPTcpD
 0006:C025D602       aSvcSocketPTcpC
 0006:C025D63C       aSvcSocketPNoUs
 0006:C025D65A       aSvcSocketPTcpL
 0006:C025D687       aGotError
 0006:C025D691       aSentOnly
 0006:C025D69B       a5RpcSrvTcpSSDW
 0006:C025D6E3       aSvcRecvfromRet
 0006:C025D704       aRpcsvcReceived
 0006:C025D734       aSvcSvcSetupSoc
 0006:C025D74E       aSettingUpTcpSo
 0006:C025D773       aSettingUpTcpSo_0
 0006:C025D796       aSvcSvcSetupSoc_0
 0006:C025D7C2       aPi4PortU
 0006:C025D7D0       aPi6PortU
 0006:C025D7DE       aUnknownAddress
 0006:C025D7F7       aSvcSvcCreateSo
 0006:C025D81B       a4SvcOnlyUdpAnd
 0006:C025D847       aSvcSvcCreateSo_0
 0006:C025D86A       aSvcTcpAcceptPS
 0006:C025D886       a4SNoMoreSocket
 0006:C025D89F       a4SAcceptFailed
 0006:C025D8BF       a4SPeernameFail
 0006:C025D8E1       a4SConnectFromU
 0006:C025D90C       aSConnectFromS
 0006:C025D921       aSvcTcpAcceptKe
 0006:C025D94E       aSvcTcpRecvPDat
 0006:C025D979       aSvcShortRecvfr
 0006:C025D9B5       a5RpcMultipleFr
 0006:C025D9EA       aSvcTcpRecordDB
 0006:C025DA05       a5RpcFragmentTo
 0006:C025DA2A       aSvcIncompleteT
 0006:C025DA51       aSvcTcpComplete
 0006:C025DA76       aRpcTcpRecvfrom
 0006:C025DA94       a5SRecvfromRetu
 0006:C025DAB7       aSvcS
 0006:C025DAC0       aSvcSReturnP
 0006:C025DAD3       aSvcSvcTcpSockD
 0006:C025DAF1       aSvcSvcAuthenti
 0006:C025DB0D       aNoDomain
 0006:C025DB19       aClassIpDomain
 0006:C025DB2B       aSPi4S
 0006:C025DB37       aSPi6S
 0006:C025DB43       aUidCntGids
 0006:C025DB56       aDD_1
 0006:C025DB5D       a04x04x04x04x04
 0006:C025DB87       aNetSunrpcSvcau
 0006:C025DBA1       aSvcBadNullCred
 0006:C025DBB5       aSvcBadNullVerf
 0006:C025DBC9       aAuthUnixGid
 0006:C025DBD7       aAuthUnixIp
 0006:C025DBE4       aRpc5uRpcbGetpo
 0006:C025DC14       aRpcRpcbGetport
 0006:C025DC38       aSucceeded
 0006:C025DC42       aRpcRpcbSetUnse
 0006:C025DC65       aRpcRpcbDecodeG
 0006:C025DCA0       aRpcRpcbDecodeG_0
 0006:C025DCC8       aRpcRpcbindServ
 0006:C025DCFC       aRpcEncodingRpc
 0006:C025DD2F       aRpcSPi4UUD
 0006:C025DD50       aRpcEncodingRpc_0
 0006:C025DD7F       aRpc5uSSUUD
 0006:C025DD9C       aRpc5uSWaitingF
 0006:C025DDC5       aRpc5uSAlreadyB
 0006:C025DDE1       aRpc5uSBadAddre
 0006:C025DE02       aRpc5uSNoMoreGe
 0006:C025DE33       aRpc5uSTryingRp
 0006:C025DE5B       aRpc5uSRpcbCrea
 0006:C025DE87       aRpc5uSNoMemory
 0006:C025DEA9       aRpc5uSRpcRunTa
 0006:C025DECB       aLocalhost
 0006:C025DED5       aRpcFailedToCon
 0006:C025DF14       aRpcSregisterin
 0006:C025DF52       aRpcUnregisteri
 0006:C025DF8E       aRpcSregisterin_0
 0006:C025DFCE       aUU_1
 0006:C025DFD7       aUnset
 0006:C025DFDD       aGetaddr
 0006:C025DFE5       aGetversaddr
 0006:C025DFF1       aGetport
 0006:C025DFF9       aRpcbind
 0006:C025E001       aNetSunrpcXdrC
 0006:C025E012       aNetSunrpcCache
 0006:C025E025       aChannel
 0006:C025E02D       aContent
 0006:C025E035       aRpcWantUpdateR
 0006:C025E062       aExpiryLdRefcnt
 0006:C025E087       a3NfsdFailedToU
 0006:C025E0AF       aRpcServerS
 0006:C025E0BF       aServiceSDVersi
 0006:C025E0DC       aProtocolS
 0006:C025E0EA       a4SSFailedToPop
 0006:C025E115       aNetSunrpcRpcPi
 0006:C025E12B       a4SSFailedToCre
 0006:C025E161       a4SSFailedToMou
 0006:C025E18E       a4SSFailedToFin
 0006:C025E1B0       a4SSFailedToAll
 0006:C025E1E2       a4SSFailedToCre_0
 0006:C025E21A       aRpcInodeCache
 0006:C025E22A       aPortmap
 0006:C025E232       aNfsd4Cb
 0006:C025E23B       aRpcPipefs
 0006:C025E246       aSvcRemovingSvc
 0006:C025E26E       aSvcPoolStatsNe
 0006:C025E28E       aSvcPoolStatsSt
 0006:C025E2AE       aSvcAddingSvcTr
 0006:C025E2D4       aXprtXptMutex
 0006:C025E2E5       aSU_0
 0006:C025E2EC       aSvcDaemonPWoke
 0006:C025E306       aPoolPacketsArr
 0006:C025E360       aULuLuLuLuLu
 0006:C025E378       aSvcCreatingTra
 0006:C025E398       aSvcTransportSN
 0006:C025E3B5       aSvcTransportPI
 0006:C025E3DE       aSvcTransportPB
 0006:C025E404       aNetSunrpcSvcXp
 0006:C025E41A       aSvcNoWriteSpac
 0006:C025E44B       aSvcTransportPS
 0006:C025E472       a3SvcXprtEnqueu
 0006:C025E49F       aSvcTransportPP
 0006:C025E4C1       a3RpcRequestRes
 0006:C025E4E9       aSvcXprtPDroppe
 0006:C025E507       aSvcAgeTempXprt
 0006:C025E51B       aQueuingXprtPFo
 0006:C025E538       aRevisitCancele
 0006:C025E54A       aRevisitQueued
 0006:C025E55A       aSvcSvcDeleteXp
 0006:C025E574       aTheMaxNumberOf
 0006:C025E593       aTheNumberOfThr
 0006:C025E5AA       aSvcServerPWait
 0006:C025E5D6       a3SvcRecvServic
 0006:C025E604       a3SvcRecvServic_0
 0006:C025E631       aSvcTransportPD
 0006:C025E657       aSvcServerPNoDa
 0006:C025E674       aSvcRecvFoundXp
 0006:C025E68F       a5STooManyOpenC
 0006:C025E6CA       aSvcServerPPool
 0006:C025E6FB       aSvcGotLenD
 0006:C025E70C       aRpcIostatsVers
 0006:C025E727       aPVUUS
 0006:C025E738       aPerOpStatistic
 0006:C025E74C       a12s
 0006:C025E754       aNull_2
 0006:C025E764       a12u
 0006:C025E76C       aLuLuLuLuLuLuLu
 0006:C025E78D       aNetUUUU
 0006:C025E79E       aRpcUUUUU
 0006:C025E7B2       aProcDU
 0006:C025E7BC       aRpcUUU
 0006:C025E7CA       aProcUU
 0006:C025E7D4       aRpcRegistering
 0006:C025E7FA       aRpcRegistering_0
 0006:C025E823       aRpcUnregisteri_0
 0006:C025E84B       aRpcDebug
 0006:C025E855       aNfsDebug
 0006:C025E85F       aNfsdDebug
 0006:C025E86A       aNlmDebug
 0006:C025E874       aTransports
 0006:C025E87F       aNetSysctlNetC
 0006:C025E890       aLibKlistC
 0007:C025F000       __start_rodata
 0007:C025F008       __ksymtab_loops_per_jiffy
 0007:C025F010       __ksymtab_reset_devices
 0007:C025F018       __ksymtab_system_state
 0007:C025F020       __ksymtab_arm_elf_read_implies_exec
 0007:C025F028       __ksymtab_elf_set_personality
 0007:C025F030       __ksymtab_elf_check_arch
 0007:C025F038       __ksymtab_kernel_thread
 0007:C025F040       __ksymtab_dump_fpu
 0007:C025F048       __ksymtab_pm_idle
 0007:C025F050       __ksymtab_pm_power_off
 0007:C025F058       __ksymtab_enable_hlt
 0007:C025F060       __ksymtab_disable_hlt
 0007:C025F068       __ksymtab_elf_platform
 0007:C025F070       __ksymtab_elf_hwcap
 0007:C025F078       __ksymtab_system_serial_high
 0007:C025F080       __ksymtab_system_serial_low
 0007:C025F088       __ksymtab_system_rev
 0007:C025F090       __ksymtab_cacheid
 0007:C025F098       __ksymtab___machine_arch_type
 0007:C025F0A0       __ksymtab_processor_id
 0007:C025F0A8       __ksymtab_kernel_execve
 0007:C025F0B0       __ksymtab_walk_stackframe
 0007:C025F0B8       __ksymtab_restore_time_delta
 0007:C025F0C0       __ksymtab_save_time_delta
 0007:C025F0C8       __ksymtab_do_settimeofday
 0007:C025F0D0       __ksymtab_do_gettimeofday
 0007:C025F0D8       __ksymtab_abort
 0007:C025F0E0       __ksymtab___div0
 0007:C025F0E8       __ksymtab___readwrite_bug
 0007:C025F0F0       __ksymtab___bug
 0007:C025F0F8       __ksymtab___bad_xchg
 0007:C025F100       __ksymtab_dump_stack
 0007:C025F108       __ksymtab__find_next_bit_le
 0007:C025F110       __ksymtab__find_first_bit_le
 0007:C025F118       __ksymtab__find_next_zero_bit_le
 0007:C025F120       __ksymtab__find_first_zero_bit_le
 0007:C025F128       __ksymtab__test_and_change_bit_le
 0007:C025F130       __ksymtab__change_bit_le
 0007:C025F138       __ksymtab__test_and_clear_bit_le
 0007:C025F140       __ksymtab__clear_bit_le
 0007:C025F148       __ksymtab__test_and_set_bit_le
 0007:C025F150       __ksymtab__set_bit_le
 0007:C025F158       __ksymtab___aeabi_ulcmp
 0007:C025F160       __ksymtab___aeabi_uidivmod
 0007:C025F168       __ksymtab___aeabi_uidiv
 0007:C025F170       __ksymtab___aeabi_lmul
 0007:C025F178       __ksymtab___aeabi_llsr
 0007:C025F180       __ksymtab___aeabi_llsl
 0007:C025F188       __ksymtab___aeabi_lasr
 0007:C025F190       __ksymtab___aeabi_idivmod
 0007:C025F198       __ksymtab___aeabi_idiv
 0007:C025F1A0       __ksymtab___do_div64
 0007:C025F1A8       __ksymtab___umodsi3
 0007:C025F1B0       __ksymtab___udivsi3
 0007:C025F1B8       __ksymtab___ucmpdi2
 0007:C025F1C0       __ksymtab___muldi3
 0007:C025F1C8       __ksymtab___modsi3
 0007:C025F1D0       __ksymtab___lshrdi3
 0007:C025F1D8       __ksymtab___divsi3
 0007:C025F1E0       __ksymtab___ashrdi3
 0007:C025F1E8       __ksymtab___ashldi3
 0007:C025F1F0       __ksymtab_sha_transform
 0007:C025F1F8       __ksymtab___put_user_8
 0007:C025F200       __ksymtab___put_user_4
 0007:C025F208       __ksymtab___put_user_2
 0007:C025F210       __ksymtab___put_user_1
 0007:C025F218       __ksymtab___get_user_4
 0007:C025F220       __ksymtab___get_user_2
 0007:C025F228       __ksymtab___get_user_1
 0007:C025F230       __ksymtab___clear_user
 0007:C025F238       __ksymtab___copy_to_user
 0007:C025F240       __ksymtab___copy_from_user
 0007:C025F248       __ksymtab_copy_page
 0007:C025F250       __ksymtab___strncpy_from_user
 0007:C025F258       __ksymtab___strnlen_user
 0007:C025F260       __ksymtab___memzero
 0007:C025F268       __ksymtab_memchr
 0007:C025F270       __ksymtab_memmove
 0007:C025F278       __ksymtab_memcpy
 0007:C025F280       __ksymtab_memset
 0007:C025F288       __ksymtab_strrchr
 0007:C025F290       __ksymtab_strchr
 0007:C025F298       __ksymtab___raw_writesl
 0007:C025F2A0       __ksymtab___raw_writesw
 0007:C025F2A8       __ksymtab___raw_writesb
 0007:C025F2B0       __ksymtab___raw_readsl
 0007:C025F2B8       __ksymtab___raw_readsw
 0007:C025F2C0       __ksymtab___raw_readsb
 0007:C025F2C8       __ksymtab___csum_ipv6_magic
 0007:C025F2D0       __ksymtab_csum_partial_copy_nocheck
 0007:C025F2D8       __ksymtab_csum_partial_copy_from_user
 0007:C025F2E0       __ksymtab_csum_partial
 0007:C025F2E8       __ksymtab___const_udelay
 0007:C025F2F0       __ksymtab___udelay
 0007:C025F2F8       __ksymtab___backtrace
 0007:C025F300       __ksymtab_fp_send_sig
 0007:C025F308       __ksymtab_fp_printk
 0007:C025F310       __ksymtab_kern_fp_enter
 0007:C025F318       __ksymtab___aeabi_unwind_cpp_pr2
 0007:C025F320       __ksymtab___aeabi_unwind_cpp_pr1
 0007:C025F328       __ksymtab___aeabi_unwind_cpp_pr0
 0007:C025F330       __ksymtab__memset_io
 0007:C025F338       __ksymtab__memcpy_toio
 0007:C025F340       __ksymtab__memcpy_fromio
 0007:C025F348       __ksymtab_dma_sync_sg_for_device
 0007:C025F350       __ksymtab_dma_sync_sg_for_cpu
 0007:C025F358       __ksymtab_dma_unmap_sg
 0007:C025F360       __ksymtab_dma_map_sg
 0007:C025F368       __ksymtab_dma_cache_maint_page
 0007:C025F370       __ksymtab_dma_cache_maint
 0007:C025F378       __ksymtab_dma_free_coherent
 0007:C025F380       __ksymtab_dma_mmap_writecombine
 0007:C025F388       __ksymtab_dma_mmap_coherent
 0007:C025F390       __ksymtab_dma_alloc_writecombine
 0007:C025F398       __ksymtab_dma_alloc_coherent
 0007:C025F3A0       __ksymtab_ioport_unmap
 0007:C025F3A8       __ksymtab_ioport_map
 0007:C025F3B0       __ksymtab_flush_dcache_page
 0007:C025F3B8       __ksymtab___iounmap
 0007:C025F3C0       __ksymtab___arm_ioremap
 0007:C025F3C8       __ksymtab___arm_ioremap_pfn
 0007:C025F3D0       __ksymtab_ioremap_page
 0007:C025F3D8       __ksymtab_get_mem_type
 0007:C025F3E0       __ksymtab_pgprot_kernel
 0007:C025F3E8       __ksymtab_pgprot_user
 0007:C025F3F0       __ksymtab_empty_zero_page
 0007:C025F3F8       __ksymtab_cpu_user
 0007:C025F400       __ksymtab_cpu_cache
 0007:C025F408       __ksymtab_cpu_v6_set_pte_ext
 0007:C025F410       __ksymtab_cpu_v6_dcache_clean_area
 0007:C025F418       __ksymtab_io_schedule
 0007:C025F420       __ksymtab_yield
 0007:C025F428       __ksymtab_cond_resched_softirq
 0007:C025F430       __ksymtab_cond_resched_lock
 0007:C025F438       __ksymtab__cond_resched
 0007:C025F440       __ksymtab_task_nice
 0007:C025F448       __ksymtab_set_user_nice
 0007:C025F450       __ksymtab_sleep_on_timeout
 0007:C025F458       __ksymtab_sleep_on
 0007:C025F460       __ksymtab_interruptible_sleep_on_timeout
 0007:C025F468       __ksymtab_interruptible_sleep_on
 0007:C025F470       __ksymtab_completion_done
 0007:C025F478       __ksymtab_try_wait_for_completion
 0007:C025F480       __ksymtab_wait_for_completion_killable
 0007:C025F488       __ksymtab_wait_for_completion_interruptible_timeout
 0007:C025F490       __ksymtab_wait_for_completion_interruptible
 0007:C025F498       __ksymtab_wait_for_completion_timeout
 0007:C025F4A0       __ksymtab_wait_for_completion
 0007:C025F4A8       __ksymtab_complete_all
 0007:C025F4B0       __ksymtab_complete
 0007:C025F4B8       __ksymtab___wake_up
 0007:C025F4C0       __ksymtab_default_wake_function
 0007:C025F4C8       __ksymtab_schedule
 0007:C025F4D0       __ksymtab_per_cpu__kstat
 0007:C025F4D8       __ksymtab_avenrun
 0007:C025F4E0       __ksymtab_wake_up_process
 0007:C025F4E8       __ksymtab_free_task
 0007:C025F4F0       __ksymtab___set_personality
 0007:C025F4F8       __ksymtab_unregister_exec_domain
 0007:C025F500       __ksymtab_register_exec_domain
 0007:C025F508       __ksymtab_warn_slowpath_null
 0007:C025F510       __ksymtab_warn_slowpath_fmt
 0007:C025F518       __ksymtab_add_taint
 0007:C025F520       __ksymtab_test_taint
 0007:C025F528       __ksymtab_panic
 0007:C025F530       __ksymtab_panic_blink
 0007:C025F538       __ksymtab_panic_notifier_list
 0007:C025F540       __ksymtab_printk_timed_ratelimit
 0007:C025F548       __ksymtab_printk_ratelimit
 0007:C025F550       __ksymtab_unregister_console
 0007:C025F558       __ksymtab_register_console
 0007:C025F560       __ksymtab_console_start
 0007:C025F568       __ksymtab_console_stop
 0007:C025F570       __ksymtab_console_print
 0007:C025F578       __ksymtab_console_conditional_schedule
 0007:C025F580       __ksymtab_release_console_sem
 0007:C025F588       __ksymtab_try_acquire_console_sem
 0007:C025F590       __ksymtab_acquire_console_sem
 0007:C025F598       __ksymtab_console_suspend_enabled
 0007:C025F5A0       __ksymtab_vprintk
 0007:C025F5A8       __ksymtab_printk
 0007:C025F5B0       __ksymtab_console_set_on_cmdline
 0007:C025F5B8       __ksymtab_oops_in_progress
 0007:C025F5C0       __ksymtab_cpu_active_mask
 0007:C025F5C8       __ksymtab_cpu_present_mask
 0007:C025F5D0       __ksymtab_cpu_online_mask
 0007:C025F5D8       __ksymtab_cpu_possible_mask
 0007:C025F5E0       __ksymtab_cpu_all_bits
 0007:C025F5E8       __ksymtab_complete_and_exit
 0007:C025F5F0       __ksymtab_daemonize
 0007:C025F5F8       __ksymtab_disallow_signal
 0007:C025F600       __ksymtab_allow_signal
 0007:C025F608       __ksymtab_jiffies
 0007:C025F610       __ksymtab_get_jiffies_64
 0007:C025F618       __ksymtab_jiffies_64_to_clock_t
 0007:C025F620       __ksymtab_clock_t_to_jiffies
 0007:C025F628       __ksymtab_jiffies_to_clock_t
 0007:C025F630       __ksymtab_jiffies_to_timeval
 0007:C025F638       __ksymtab_timeval_to_jiffies
 0007:C025F640       __ksymtab_jiffies_to_timespec
 0007:C025F648       __ksymtab_timespec_to_jiffies
 0007:C025F650       __ksymtab_usecs_to_jiffies
 0007:C025F658       __ksymtab_msecs_to_jiffies
 0007:C025F660       __ksymtab_ns_to_timeval
 0007:C025F668       __ksymtab_ns_to_timespec
 0007:C025F670       __ksymtab_set_normalized_timespec
 0007:C025F678       __ksymtab_mktime
 0007:C025F680       __ksymtab_timespec_trunc
 0007:C025F688       __ksymtab_jiffies_to_usecs
 0007:C025F690       __ksymtab_jiffies_to_msecs
 0007:C025F698       __ksymtab_current_fs_time
 0007:C025F6A0       __ksymtab_sys_tz
 0007:C025F6A8       __ksymtab_send_remote_softirq
 0007:C025F6B0       __ksymtab___send_remote_softirq
 0007:C025F6B8       __ksymtab_per_cpu__softirq_work_list
 0007:C025F6C0       __ksymtab_tasklet_kill
 0007:C025F6C8       __ksymtab_tasklet_init
 0007:C025F6D0       __ksymtab___tasklet_hi_schedule_first
 0007:C025F6D8       __ksymtab___tasklet_hi_schedule
 0007:C025F6E0       __ksymtab___tasklet_schedule
 0007:C025F6E8       __ksymtab_local_bh_enable_ip
 0007:C025F6F0       __ksymtab_local_bh_enable
 0007:C025F6F8       __ksymtab__local_bh_enable
 0007:C025F700       __ksymtab_local_bh_disable
 0007:C025F708       __ksymtab_irq_stat
 0007:C025F710       __ksymtab___devm_release_region
 0007:C025F718       __ksymtab___devm_request_region
 0007:C025F720       __ksymtab___release_region
 0007:C025F728       __ksymtab___check_region
 0007:C025F730       __ksymtab___request_region
 0007:C025F738       __ksymtab_adjust_resource
 0007:C025F740       __ksymtab_allocate_resource
 0007:C025F748       __ksymtab_release_resource
 0007:C025F750       __ksymtab_request_resource
 0007:C025F758       __ksymtab_iomem_resource
 0007:C025F760       __ksymtab_ioport_resource
 0007:C025F768       __ksymtab_unregister_sysctl_table
 0007:C025F770       __ksymtab_sysctl_data
 0007:C025F778       __ksymtab_sysctl_string
 0007:C025F780       __ksymtab_sysctl_ms_jiffies
 0007:C025F788       __ksymtab_sysctl_jiffies
 0007:C025F790       __ksymtab_sysctl_intvec
 0007:C025F798       __ksymtab_register_sysctl_paths
 0007:C025F7A0       __ksymtab_register_sysctl_table
 0007:C025F7A8       __ksymtab_proc_doulongvec_ms_jiffies_minmax
 0007:C025F7B0       __ksymtab_proc_doulongvec_minmax
 0007:C025F7B8       __ksymtab_proc_dostring
 0007:C025F7C0       __ksymtab_proc_dointvec_ms_jiffies
 0007:C025F7C8       __ksymtab_proc_dointvec_userhz_jiffies
 0007:C025F7D0       __ksymtab_proc_dointvec_minmax
 0007:C025F7D8       __ksymtab_proc_dointvec_jiffies
 0007:C025F7E0       __ksymtab_proc_dointvec
 0007:C025F7E8       __ksymtab_capable
 0007:C025F7F0       __ksymtab___cap_init_eff_set
 0007:C025F7F8       __ksymtab___cap_full_set
 0007:C025F800       __ksymtab___cap_empty_set
 0007:C025F808       __ksymtab_msleep_interruptible
 0007:C025F810       __ksymtab_msleep
 0007:C025F818       __ksymtab_schedule_timeout_uninterruptible
 0007:C025F820       __ksymtab_schedule_timeout_killable
 0007:C025F828       __ksymtab_schedule_timeout_interruptible
 0007:C025F830       __ksymtab_schedule_timeout
 0007:C025F838       __ksymtab_del_timer
 0007:C025F840       __ksymtab_add_timer
 0007:C025F848       __ksymtab_mod_timer_pinned
 0007:C025F850       __ksymtab_mod_timer
 0007:C025F858       __ksymtab_mod_timer_pending
 0007:C025F860       __ksymtab_init_timer_deferrable_key
 0007:C025F868       __ksymtab_init_timer_key
 0007:C025F870       __ksymtab_boot_tvec_bases
 0007:C025F878       __ksymtab_jiffies_64
 0007:C025F880       __ksymtab_unblock_all_signals
 0007:C025F888       __ksymtab_block_all_signals
 0007:C025F890       __ksymtab_sigprocmask
 0007:C025F898       __ksymtab_send_sig_info
 0007:C025F8A0       __ksymtab_send_sig
 0007:C025F8A8       __ksymtab_force_sig
 0007:C025F8B0       __ksymtab_flush_signals
 0007:C025F8B8       __ksymtab_recalc_sigpending
 0007:C025F8C0       __ksymtab_kill_pid
 0007:C025F8C8       __ksymtab_kill_pgrp
 0007:C025F8D0       __ksymtab___fatal_signal_pending
 0007:C025F8D8       __ksymtab_cad_pid
 0007:C025F8E0       __ksymtab_fs_overflowgid
 0007:C025F8E8       __ksymtab_fs_overflowuid
 0007:C025F8F0       __ksymtab_overflowgid
 0007:C025F8F8       __ksymtab_overflowuid
 0007:C025F900       __ksymtab_call_usermodehelper_pipe
 0007:C025F908       __ksymtab_call_usermodehelper_exec
 0007:C025F910       __ksymtab_call_usermodehelper_stdinpipe
 0007:C025F918       __ksymtab_call_usermodehelper_setcleanup
 0007:C025F920       __ksymtab_call_usermodehelper_setkeys
 0007:C025F928       __ksymtab_call_usermodehelper_setup
 0007:C025F930       __ksymtab_call_usermodehelper_freeinfo
 0007:C025F938       __ksymtab___request_module
 0007:C025F940       __ksymtab_flush_scheduled_work
 0007:C025F948       __ksymtab_schedule_delayed_work_on
 0007:C025F950       __ksymtab_schedule_delayed_work
 0007:C025F958       __ksymtab_schedule_work_on
 0007:C025F960       __ksymtab_schedule_work
 0007:C025F968       __ksymtab_cancel_delayed_work_sync
 0007:C025F970       __ksymtab_task_tgid_nr_ns
 0007:C025F978       __ksymtab___task_pid_nr_ns
 0007:C025F980       __ksymtab_pid_task
 0007:C025F988       __ksymtab_is_container_init
 0007:C025F990       __ksymtab_param_get_string
 0007:C025F998       __ksymtab_param_set_copystring
 0007:C025F9A0       __ksymtab_param_array_get
 0007:C025F9A8       __ksymtab_param_array_set
 0007:C025F9B0       __ksymtab_param_get_invbool
 0007:C025F9B8       __ksymtab_param_set_invbool
 0007:C025F9C0       __ksymtab_param_get_bool
 0007:C025F9C8       __ksymtab_param_set_bool
 0007:C025F9D0       __ksymtab_param_get_charp
 0007:C025F9D8       __ksymtab_param_set_charp
 0007:C025F9E0       __ksymtab_param_get_ulong
 0007:C025F9E8       __ksymtab_param_set_ulong
 0007:C025F9F0       __ksymtab_param_get_long
 0007:C025F9F8       __ksymtab_param_set_long
 0007:C025FA00       __ksymtab_param_get_uint
 0007:C025FA08       __ksymtab_param_set_uint
 0007:C025FA10       __ksymtab_param_get_int
 0007:C025FA18       __ksymtab_param_set_int
 0007:C025FA20       __ksymtab_param_get_ushort
 0007:C025FA28       __ksymtab_param_set_ushort
 0007:C025FA30       __ksymtab_param_get_short
 0007:C025FA38       __ksymtab_param_set_short
 0007:C025FA40       __ksymtab_param_get_byte
 0007:C025FA48       __ksymtab_param_set_byte
 0007:C025FA50       __ksymtab_kthread_stop
 0007:C025FA58       __ksymtab_kthread_bind
 0007:C025FA60       __ksymtab_kthread_create
 0007:C025FA68       __ksymtab_kthread_should_stop
 0007:C025FA70       __ksymtab_bit_waitqueue
 0007:C025FA78       __ksymtab_wake_up_bit
 0007:C025FA80       __ksymtab___wake_up_bit
 0007:C025FA88       __ksymtab_out_of_line_wait_on_bit_lock
 0007:C025FA90       __ksymtab___wait_on_bit_lock
 0007:C025FA98       __ksymtab_out_of_line_wait_on_bit
 0007:C025FAA0       __ksymtab___wait_on_bit
 0007:C025FAA8       __ksymtab_wake_bit_function
 0007:C025FAB0       __ksymtab_autoremove_wake_function
 0007:C025FAB8       __ksymtab_abort_exclusive_wait
 0007:C025FAC0       __ksymtab_finish_wait
 0007:C025FAC8       __ksymtab_prepare_to_wait_exclusive
 0007:C025FAD0       __ksymtab_prepare_to_wait
 0007:C025FAD8       __ksymtab_remove_wait_queue
 0007:C025FAE0       __ksymtab_add_wait_queue_exclusive
 0007:C025FAE8       __ksymtab_add_wait_queue
 0007:C025FAF0       __ksymtab___init_waitqueue_head
 0007:C025FAF8       __ksymtab___kfifo_get
 0007:C025FB00       __ksymtab___kfifo_put
 0007:C025FB08       __ksymtab_kfifo_free
 0007:C025FB10       __ksymtab_kfifo_alloc
 0007:C025FB18       __ksymtab_kfifo_init
 0007:C025FB20       __ksymtab_atomic_dec_and_mutex_lock
 0007:C025FB28       __ksymtab_mutex_trylock
 0007:C025FB30       __ksymtab_mutex_lock_killable
 0007:C025FB38       __ksymtab_mutex_lock_interruptible
 0007:C025FB40       __ksymtab_mutex_unlock
 0007:C025FB48       __ksymtab_mutex_lock
 0007:C025FB50       __ksymtab___mutex_init
 0007:C025FB58       __ksymtab_downgrade_write
 0007:C025FB60       __ksymtab_up_write
 0007:C025FB68       __ksymtab_up_read
 0007:C025FB70       __ksymtab_down_write_trylock
 0007:C025FB78       __ksymtab_down_write
 0007:C025FB80       __ksymtab_down_read_trylock
 0007:C025FB88       __ksymtab_down_read
 0007:C025FB90       __ksymtab_up
 0007:C025FB98       __ksymtab_down_timeout
 0007:C025FBA0       __ksymtab_down_trylock
 0007:C025FBA8       __ksymtab_down_killable
 0007:C025FBB0       __ksymtab_down_interruptible
 0007:C025FBB8       __ksymtab_down
 0007:C025FBC0       __ksymtab_unregister_reboot_notifier
 0007:C025FBC8       __ksymtab_register_reboot_notifier
 0007:C025FBD0       __ksymtab_set_create_files_as
 0007:C025FBD8       __ksymtab_set_security_override_from_ctx
 0007:C025FBE0       __ksymtab_set_security_override
 0007:C025FBE8       __ksymtab_prepare_kernel_cred
 0007:C025FBF0       __ksymtab_revert_creds
 0007:C025FBF8       __ksymtab_override_creds
 0007:C025FC00       __ksymtab_abort_creds
 0007:C025FC08       __ksymtab_commit_creds
 0007:C025FC10       __ksymtab_prepare_creds
 0007:C025FC18       __ksymtab___put_cred
 0007:C025FC20       __ksymtab_in_egroup_p
 0007:C025FC28       __ksymtab_in_group_p
 0007:C025FC30       __ksymtab_set_current_groups
 0007:C025FC38       __ksymtab_set_groups
 0007:C025FC40       __ksymtab_groups_free
 0007:C025FC48       __ksymtab_groups_alloc
 0007:C025FC50       __ksymtab_thaw_process
 0007:C025FC58       __ksymtab_refrigerator
 0007:C025FC60       __ksymtab_current_kernel_time
 0007:C025FC68       __ksymtab_get_seconds
 0007:C025FC70       __ksymtab_getrawmonotonic
 0007:C025FC78       __ksymtab_clocksource_register
 0007:C025FC80       __ksymtab_timecounter_cyc2time
 0007:C025FC88       __ksymtab_timecounter_read
 0007:C025FC90       __ksymtab_timecounter_init
 0007:C025FC98       __ksymtab___timecompare_update
 0007:C025FCA0       __ksymtab_timecompare_offset
 0007:C025FCA8       __ksymtab_timecompare_transform
 0007:C025FCB0       __ksymtab_smp_call_function_single
 0007:C025FCB8       __ksymtab_module_put
 0007:C025FCC0       __ksymtab___symbol_put
 0007:C025FCC8       __ksymtab_module_refcount
 0007:C025FCD0       __ksymtab___module_put_and_exit
 0007:C025FCD8       __ksymtab_unregister_module_notifier
 0007:C025FCE0       __ksymtab_register_module_notifier
 0007:C025FCE8       __ksymtab___print_symbol
 0007:C025FCF0       __ksymtab_pm_flags
 0007:C025FCF8       __ksymtab_pm_set_vt_switch
 0007:C025FD00       __ksymtab_pm_suspend
 0007:C025FD08       __ksymtab_touch_all_softlockup_watchdogs
 0007:C025FD10       __ksymtab_touch_softlockup_watchdog
 0007:C025FD18       __ksymtab_kstat_irqs_cpu
 0007:C025FD20       __ksymtab_request_threaded_irq
 0007:C025FD28       __ksymtab_free_irq
 0007:C025FD30       __ksymtab_set_irq_wake
 0007:C025FD38       __ksymtab_enable_irq
 0007:C025FD40       __ksymtab_disable_irq
 0007:C025FD48       __ksymtab_disable_irq_nosync
 0007:C025FD50       __ksymtab_synchronize_irq
 0007:C025FD58       __ksymtab_set_irq_chip_data
 0007:C025FD60       __ksymtab_set_irq_data
 0007:C025FD68       __ksymtab_set_irq_type
 0007:C025FD70       __ksymtab_set_irq_chip
 0007:C025FD78       __ksymtab_devm_free_irq
 0007:C025FD80       __ksymtab_devm_request_threaded_irq
 0007:C025FD88       __ksymtab_probe_irq_off
 0007:C025FD90       __ksymtab_probe_irq_mask
 0007:C025FD98       __ksymtab_probe_irq_on
 0007:C025FDA0       __ksymtab_dma_release_from_coherent
 0007:C025FDA8       __ksymtab_dma_alloc_from_coherent
 0007:C025FDB0       __ksymtab_dma_mark_declared_memory_occupied
 0007:C025FDB8       __ksymtab_dma_release_declared_memory
 0007:C025FDC0       __ksymtab_dma_declare_coherent_memory
 0007:C025FDC8       __ksymtab_try_to_release_page
 0007:C025FDD0       __ksymtab_generic_file_aio_write
 0007:C025FDD8       __ksymtab_generic_file_aio_write_nolock
 0007:C025FDE0       __ksymtab_generic_file_buffered_write
 0007:C025FDE8       __ksymtab_grab_cache_page_write_begin
 0007:C025FDF0       __ksymtab_generic_file_direct_write
 0007:C025FDF8       __ksymtab_pagecache_write_end
 0007:C025FE00       __ksymtab_pagecache_write_begin
 0007:C025FE08       __ksymtab_generic_write_checks
 0007:C025FE10       __ksymtab_iov_iter_single_seg_count
 0007:C025FE18       __ksymtab_iov_iter_fault_in_readable
 0007:C025FE20       __ksymtab_iov_iter_advance
 0007:C025FE28       __ksymtab_iov_iter_copy_from_user
 0007:C025FE30       __ksymtab_iov_iter_copy_from_user_atomic
 0007:C025FE38       __ksymtab_file_remove_suid
 0007:C025FE40       __ksymtab_should_remove_suid
 0007:C025FE48       __ksymtab_read_cache_page
 0007:C025FE50       __ksymtab_read_cache_page_async
 0007:C025FE58       __ksymtab_generic_file_readonly_mmap
 0007:C025FE60       __ksymtab_generic_file_mmap
 0007:C025FE68       __ksymtab_filemap_fault
 0007:C025FE70       __ksymtab_generic_file_aio_read
 0007:C025FE78       __ksymtab_generic_segment_checks
 0007:C025FE80       __ksymtab_grab_cache_page_nowait
 0007:C025FE88       __ksymtab_find_get_pages_tag
 0007:C025FE90       __ksymtab_find_get_pages_contig
 0007:C025FE98       __ksymtab_find_or_create_page
 0007:C025FEA0       __ksymtab_find_lock_page
 0007:C025FEA8       __ksymtab_find_get_page
 0007:C025FEB0       __ksymtab___lock_page
 0007:C025FEB8       __ksymtab_end_page_writeback
 0007:C025FEC0       __ksymtab_unlock_page
 0007:C025FEC8       __ksymtab_wait_on_page_bit
 0007:C025FED0       __ksymtab_add_to_page_cache_locked
 0007:C025FED8       __ksymtab_filemap_write_and_wait_range
 0007:C025FEE0       __ksymtab_filemap_write_and_wait
 0007:C025FEE8       __ksymtab_filemap_fdatawait
 0007:C025FEF0       __ksymtab_sync_page_range_nolock
 0007:C025FEF8       __ksymtab_sync_page_range
 0007:C025FF00       __ksymtab_filemap_flush
 0007:C025FF08       __ksymtab_filemap_fdatawrite_range
 0007:C025FF10       __ksymtab_filemap_fdatawrite
 0007:C025FF18       __ksymtab_mempool_free_pages
 0007:C025FF20       __ksymtab_mempool_alloc_pages
 0007:C025FF28       __ksymtab_mempool_kfree
 0007:C025FF30       __ksymtab_mempool_kzalloc
 0007:C025FF38       __ksymtab_mempool_kmalloc
 0007:C025FF40       __ksymtab_mempool_free_slab
 0007:C025FF48       __ksymtab_mempool_alloc_slab
 0007:C025FF50       __ksymtab_mempool_free
 0007:C025FF58       __ksymtab_mempool_alloc
 0007:C025FF60       __ksymtab_mempool_destroy
 0007:C025FF68       __ksymtab_mempool_resize
 0007:C025FF70       __ksymtab_mempool_create_node
 0007:C025FF78       __ksymtab_mempool_create
 0007:C025FF80       __ksymtab_contig_page_data
 0007:C025FF88       __ksymtab_si_meminfo
 0007:C025FF90       __ksymtab_free_pages_exact
 0007:C025FF98       __ksymtab_alloc_pages_exact
 0007:C025FFA0       __ksymtab_free_pages
 0007:C025FFA8       __ksymtab___free_pages
 0007:C025FFB0       __ksymtab_get_zeroed_page
 0007:C025FFB8       __ksymtab___get_free_pages
 0007:C025FFC0       __ksymtab___alloc_pages_nodemask
 0007:C025FFC8       __ksymtab_totalram_pages
 0007:C025FFD0       __ksymtab_node_states
 0007:C025FFD8       __ksymtab_mapping_tagged
 0007:C025FFE0       __ksymtab_test_set_page_writeback
 0007:C025FFE8       __ksymtab_clear_page_dirty_for_io
 0007:C025FFF0       __ksymtab_set_page_dirty_lock
 0007:C025FFF8       __ksymtab_set_page_dirty
 0007:C0260000       __ksymtab_redirty_page_for_writepage
 0007:C0260008       __ksymtab___set_page_dirty_nobuffers
 0007:C0260010       __ksymtab_write_one_page
 0007:C0260018       __ksymtab_generic_writepages
 0007:C0260020       __ksymtab_write_cache_pages
 0007:C0260028       __ksymtab_balance_dirty_pages_ratelimited_nr
 0007:C0260030       __ksymtab_bdi_set_max_ratio
 0007:C0260038       __ksymtab_laptop_mode
 0007:C0260040       __ksymtab_read_cache_pages
 0007:C0260048       __ksymtab_pagevec_lookup_tag
 0007:C0260050       __ksymtab_pagevec_lookup
 0007:C0260058       __ksymtab_____pagevec_lru_add
 0007:C0260060       __ksymtab___pagevec_release
 0007:C0260068       __ksymtab_mark_page_accessed
 0007:C0260070       __ksymtab_put_pages_list
 0007:C0260078       __ksymtab_put_page
 0007:C0260080       __ksymtab_invalidate_mapping_pages
 0007:C0260088       __ksymtab_truncate_inode_pages
 0007:C0260090       __ksymtab_truncate_inode_pages_range
 0007:C0260098       __ksymtab_cancel_dirty_page
 0007:C02600A0       __ksymtab_unregister_shrinker
 0007:C02600A8       __ksymtab_register_shrinker
 0007:C02600B0       __ksymtab_strndup_user
 0007:C02600B8       __ksymtab_kzfree
 0007:C02600C0       __ksymtab_krealloc
 0007:C02600C8       __ksymtab___krealloc
 0007:C02600D0       __ksymtab_memdup_user
 0007:C02600D8       __ksymtab_kmemdup
 0007:C02600E0       __ksymtab_kstrndup
 0007:C02600E8       __ksymtab_kstrdup
 0007:C02600F0       __ksymtab_vm_stat
 0007:C02600F8       __ksymtab_per_cpu__vm_event_states
 0007:C0260100       __ksymtab_congestion_wait
 0007:C0260108       __ksymtab_set_bdi_congested
 0007:C0260110       __ksymtab_clear_bdi_congested
 0007:C0260118       __ksymtab_bdi_destroy
 0007:C0260120       __ksymtab_bdi_init
 0007:C0260128       __ksymtab_bdi_unregister
 0007:C0260130       __ksymtab_bdi_register_dev
 0007:C0260138       __ksymtab_bdi_register
 0007:C0260140       __ksymtab_default_unplug_io_fn
 0007:C0260148       __ksymtab_follow_pfn
 0007:C0260150       __ksymtab_vmtruncate
 0007:C0260158       __ksymtab_unmap_mapping_range
 0007:C0260160       __ksymtab_remap_pfn_range
 0007:C0260168       __ksymtab_vm_insert_mixed
 0007:C0260170       __ksymtab_vm_insert_pfn
 0007:C0260178       __ksymtab_vm_insert_page
 0007:C0260180       __ksymtab_get_user_pages
 0007:C0260188       __ksymtab_high_memory
 0007:C0260190       __ksymtab_num_physpages
 0007:C0260198       __ksymtab_mem_map
 0007:C02601A0       __ksymtab_max_mapnr
 0007:C02601A8       __ksymtab_can_do_mlock
 0007:C02601B0       __ksymtab_do_brk
 0007:C02601B8       __ksymtab_do_munmap
 0007:C02601C0       __ksymtab_find_vma
 0007:C02601C8       __ksymtab_get_unmapped_area
 0007:C02601D0       __ksymtab_do_mmap_pgoff
 0007:C02601D8       __ksymtab_vm_get_page_prot
 0007:C02601E0       __ksymtab_remap_vmalloc_range
 0007:C02601E8       __ksymtab_vmalloc_32_user
 0007:C02601F0       __ksymtab_vmalloc_32
 0007:C02601F8       __ksymtab_vmalloc_node
 0007:C0260200       __ksymtab_vmalloc_user
 0007:C0260208       __ksymtab_vmalloc
 0007:C0260210       __ksymtab___vmalloc
 0007:C0260218       __ksymtab_vmap
 0007:C0260220       __ksymtab_vunmap
 0007:C0260228       __ksymtab_vfree
 0007:C0260230       __ksymtab_vm_map_ram
 0007:C0260238       __ksymtab_vm_unmap_ram
 0007:C0260240       __ksymtab_vmalloc_to_pfn
 0007:C0260248       __ksymtab_vmalloc_to_page
 0007:C0260250       __ksymtab_dmam_pool_destroy
 0007:C0260258       __ksymtab_dmam_pool_create
 0007:C0260260       __ksymtab_dma_pool_free
 0007:C0260268       __ksymtab_dma_pool_alloc
 0007:C0260270       __ksymtab_dma_pool_destroy
 0007:C0260278       __ksymtab_dma_pool_create
 0007:C0260280       __ksymtab_ksize
 0007:C0260288       __ksymtab_kmem_cache_size
 0007:C0260290       __ksymtab_kfree
 0007:C0260298       __ksymtab_kmem_cache_free
 0007:C02602A0       __ksymtab___kmalloc
 0007:C02602A8       __ksymtab_kmem_cache_alloc
 0007:C02602B0       __ksymtab_kmem_cache_destroy
 0007:C02602B8       __ksymtab_kmem_cache_shrink
 0007:C02602C0       __ksymtab_kmem_cache_create
 0007:C02602C8       __ksymtab_malloc_sizes
 0007:C02602D0       __ksymtab_nonseekable_open
 0007:C02602D8       __ksymtab_generic_file_open
 0007:C02602E0       __ksymtab_sys_close
 0007:C02602E8       __ksymtab_filp_close
 0007:C02602F0       __ksymtab_fd_install
 0007:C02602F8       __ksymtab_put_unused_fd
 0007:C0260300       __ksymtab_dentry_open
 0007:C0260308       __ksymtab_vfs_statfs
 0007:C0260310       __ksymtab_vfs_writev
 0007:C0260318       __ksymtab_vfs_readv
 0007:C0260320       __ksymtab_iov_shorten
 0007:C0260328       __ksymtab_vfs_write
 0007:C0260330       __ksymtab_do_sync_write
 0007:C0260338       __ksymtab_vfs_read
 0007:C0260340       __ksymtab_do_sync_read
 0007:C0260348       __ksymtab_vfs_llseek
 0007:C0260350       __ksymtab_default_llseek
 0007:C0260358       __ksymtab_no_llseek
 0007:C0260360       __ksymtab_generic_file_llseek
 0007:C0260368       __ksymtab_generic_file_llseek_unlocked
 0007:C0260370       __ksymtab_generic_ro_fops
 0007:C0260378       __ksymtab_fget
 0007:C0260380       __ksymtab_fput
 0007:C0260388       __ksymtab_init_file
 0007:C0260390       __ksymtab_alloc_file
 0007:C0260398       __ksymtab_get_empty_filp
 0007:C02603A0       __ksymtab_get_sb_single
 0007:C02603A8       __ksymtab_get_sb_nodev
 0007:C02603B0       __ksymtab_kill_block_super
 0007:C02603B8       __ksymtab_get_sb_bdev
 0007:C02603C0       __ksymtab_get_sb_ns
 0007:C02603C8       __ksymtab_kill_litter_super
 0007:C02603D0       __ksymtab_kill_anon_super
 0007:C02603D8       __ksymtab_set_anon_super
 0007:C02603E0       __ksymtab_get_super
 0007:C02603E8       __ksymtab_drop_super
 0007:C02603F0       __ksymtab_sget
 0007:C02603F8       __ksymtab_generic_shutdown_super
 0007:C0260400       __ksymtab_unlock_super
 0007:C0260408       __ksymtab_lock_super
 0007:C0260410       __ksymtab_deactivate_locked_super
 0007:C0260418       __ksymtab_deactivate_super
 0007:C0260420       __ksymtab_directly_mappable_cdev_bdi
 0007:C0260428       __ksymtab_unregister_chrdev
 0007:C0260430       __ksymtab_register_chrdev
 0007:C0260438       __ksymtab_cdev_index
 0007:C0260440       __ksymtab_cdev_add
 0007:C0260448       __ksymtab_cdev_del
 0007:C0260450       __ksymtab_cdev_alloc
 0007:C0260458       __ksymtab_cdev_init
 0007:C0260460       __ksymtab_alloc_chrdev_region
 0007:C0260468       __ksymtab_unregister_chrdev_region
 0007:C0260470       __ksymtab_register_chrdev_region
 0007:C0260478       __ksymtab_inode_set_bytes
 0007:C0260480       __ksymtab_inode_get_bytes
 0007:C0260488       __ksymtab_inode_sub_bytes
 0007:C0260490       __ksymtab_inode_add_bytes
 0007:C0260498       __ksymtab_vfs_lstat
 0007:C02604A0       __ksymtab_vfs_stat
 0007:C02604A8       __ksymtab_vfs_fstatat
 0007:C02604B0       __ksymtab_vfs_fstat
 0007:C02604B8       __ksymtab_vfs_getattr
 0007:C02604C0       __ksymtab_generic_fillattr
 0007:C02604C8       __ksymtab_set_binfmt
 0007:C02604D0       __ksymtab_search_binary_handler
 0007:C02604D8       __ksymtab_remove_arg_zero
 0007:C02604E0       __ksymtab_prepare_binprm
 0007:C02604E8       __ksymtab_install_exec_creds
 0007:C02604F0       __ksymtab_flush_old_exec
 0007:C02604F8       __ksymtab_kernel_read
 0007:C0260500       __ksymtab_open_exec
 0007:C0260508       __ksymtab_setup_arg_pages
 0007:C0260510       __ksymtab_copy_strings_kernel
 0007:C0260518       __ksymtab_unregister_binfmt
 0007:C0260520       __ksymtab___register_binfmt
 0007:C0260528       __ksymtab_pipe_unlock
 0007:C0260530       __ksymtab_pipe_lock
 0007:C0260538       __ksymtab_generic_readlink
 0007:C0260540       __ksymtab_dentry_unhash
 0007:C0260548       __ksymtab_vfs_unlink
 0007:C0260550       __ksymtab_vfs_symlink
 0007:C0260558       __ksymtab_vfs_rmdir
 0007:C0260560       __ksymtab_vfs_rename
 0007:C0260568       __ksymtab_vfs_readlink
 0007:C0260570       __ksymtab_generic_permission
 0007:C0260578       __ksymtab_vfs_mknod
 0007:C0260580       __ksymtab_vfs_mkdir
 0007:C0260588       __ksymtab_vfs_link
 0007:C0260590       __ksymtab_vfs_follow_link
 0007:C0260598       __ksymtab_vfs_create
 0007:C02605A0       __ksymtab_unlock_rename
 0007:C02605A8       __ksymtab_file_permission
 0007:C02605B0       __ksymtab_inode_permission
 0007:C02605B8       __ksymtab_vfs_path_lookup
 0007:C02605C0       __ksymtab_kern_path
 0007:C02605C8       __ksymtab_path_lookup
 0007:C02605D0       __ksymtab_page_symlink_inode_operations
 0007:C02605D8       __ksymtab_page_symlink
 0007:C02605E0       __ksymtab___page_symlink
 0007:C02605E8       __ksymtab_page_readlink
 0007:C02605F0       __ksymtab_page_put_link
 0007:C02605F8       __ksymtab_page_follow_link_light
 0007:C0260600       __ksymtab_lookup_one_len
 0007:C0260608       __ksymtab_lock_rename
 0007:C0260610       __ksymtab_getname
 0007:C0260618       __ksymtab_get_write_access
 0007:C0260620       __ksymtab_follow_up
 0007:C0260628       __ksymtab_follow_down
 0007:C0260630       __ksymtab_user_path_at
 0007:C0260638       __ksymtab_filp_open
 0007:C0260640       __ksymtab_path_put
 0007:C0260648       __ksymtab_path_get
 0007:C0260650       __ksymtab_kill_fasync
 0007:C0260658       __ksymtab___kill_fasync
 0007:C0260660       __ksymtab_fasync_helper
 0007:C0260668       __ksymtab_f_setown
 0007:C0260670       __ksymtab___f_setown
 0007:C0260678       __ksymtab_generic_block_fiemap
 0007:C0260680       __ksymtab___generic_block_fiemap
 0007:C0260688       __ksymtab_fiemap_check_flags
 0007:C0260690       __ksymtab_fiemap_fill_next_extent
 0007:C0260698       __ksymtab_vfs_readdir
 0007:C02606A0       __ksymtab_poll_schedule_timeout
 0007:C02606A8       __ksymtab_poll_freewait
 0007:C02606B0       __ksymtab_poll_initwait
 0007:C02606B8       __ksymtab_shrink_dcache_sb
 0007:C02606C0       __ksymtab_shrink_dcache_parent
 0007:C02606C8       __ksymtab_names_cachep
 0007:C02606D0       __ksymtab_have_submounts
 0007:C02606D8       __ksymtab_find_inode_number
 0007:C02606E0       __ksymtab_dput
 0007:C02606E8       __ksymtab_dget_locked
 0007:C02606F0       __ksymtab_d_validate
 0007:C02606F8       __ksymtab_d_add_ci
 0007:C0260700       __ksymtab_d_splice_alias
 0007:C0260708       __ksymtab_d_rehash
 0007:C0260710       __ksymtab_d_prune_aliases
 0007:C0260718       __ksymtab_d_path
 0007:C0260720       __ksymtab_d_move
 0007:C0260728       __ksymtab_d_lookup
 0007:C0260730       __ksymtab_d_invalidate
 0007:C0260738       __ksymtab_d_instantiate
 0007:C0260740       __ksymtab_d_find_alias
 0007:C0260748       __ksymtab_d_delete
 0007:C0260750       __ksymtab_d_alloc_root
 0007:C0260758       __ksymtab_d_alloc
 0007:C0260760       __ksymtab_d_genocide
 0007:C0260768       __ksymtab_d_obtain_alias
 0007:C0260770       __ksymtab_d_instantiate_unique
 0007:C0260778       __ksymtab_dcache_lock
 0007:C0260780       __ksymtab_init_special_inode
 0007:C0260788       __ksymtab_inode_wait
 0007:C0260790       __ksymtab_inode_needs_sync
 0007:C0260798       __ksymtab_file_update_time
 0007:C02607A0       __ksymtab_touch_atime
 0007:C02607A8       __ksymtab_bmap
 0007:C02607B0       __ksymtab_iput
 0007:C02607B8       __ksymtab_generic_delete_inode
 0007:C02607C0       __ksymtab_remove_inode_hash
 0007:C02607C8       __ksymtab___insert_inode_hash
 0007:C02607D0       __ksymtab_insert_inode_locked4
 0007:C02607D8       __ksymtab_insert_inode_locked
 0007:C02607E0       __ksymtab_iget_locked
 0007:C02607E8       __ksymtab_iget5_locked
 0007:C02607F0       __ksymtab_ilookup
 0007:C02607F8       __ksymtab_ilookup5
 0007:C0260800       __ksymtab_ilookup5_nowait
 0007:C0260808       __ksymtab_igrab
 0007:C0260810       __ksymtab_iunique
 0007:C0260818       __ksymtab_unlock_new_inode
 0007:C0260820       __ksymtab_new_inode
 0007:C0260828       __ksymtab_invalidate_inodes
 0007:C0260830       __ksymtab_clear_inode
 0007:C0260838       __ksymtab_inode_init_once
 0007:C0260840       __ksymtab___destroy_inode
 0007:C0260848       __ksymtab_inode_init_always
 0007:C0260850       __ksymtab_notify_change
 0007:C0260858       __ksymtab_inode_setattr
 0007:C0260860       __ksymtab_inode_change_ok
 0007:C0260868       __ksymtab_iget_failed
 0007:C0260870       __ksymtab_is_bad_inode
 0007:C0260878       __ksymtab_make_bad_inode
 0007:C0260880       __ksymtab_get_unused_fd
 0007:C0260888       __ksymtab_get_fs_type
 0007:C0260890       __ksymtab_unregister_filesystem
 0007:C0260898       __ksymtab_register_filesystem
 0007:C02608A0       __ksymtab_put_mnt_ns
 0007:C02608A8       __ksymtab_create_mnt_ns
 0007:C02608B0       __ksymtab_may_umount
 0007:C02608B8       __ksymtab_may_umount_tree
 0007:C02608C0       __ksymtab_replace_mount_options
 0007:C02608C8       __ksymtab_save_mount_options
 0007:C02608D0       __ksymtab_generic_show_options
 0007:C02608D8       __ksymtab_mnt_unpin
 0007:C02608E0       __ksymtab_mnt_pin
 0007:C02608E8       __ksymtab_mntput_no_expire
 0007:C02608F0       __ksymtab_simple_set_mnt
 0007:C02608F8       __ksymtab_seq_list_next
 0007:C0260900       __ksymtab_seq_list_start_head
 0007:C0260908       __ksymtab_seq_list_start
 0007:C0260910       __ksymtab_seq_write
 0007:C0260918       __ksymtab_seq_puts
 0007:C0260920       __ksymtab_seq_putc
 0007:C0260928       __ksymtab_seq_open_private
 0007:C0260930       __ksymtab___seq_open_private
 0007:C0260938       __ksymtab_seq_release_private
 0007:C0260940       __ksymtab_single_release
 0007:C0260948       __ksymtab_single_open
 0007:C0260950       __ksymtab_seq_bitmap_list
 0007:C0260958       __ksymtab_seq_bitmap
 0007:C0260960       __ksymtab_seq_path
 0007:C0260968       __ksymtab_mangle_path
 0007:C0260970       __ksymtab_seq_printf
 0007:C0260978       __ksymtab_seq_escape
 0007:C0260980       __ksymtab_seq_release
 0007:C0260988       __ksymtab_seq_lseek
 0007:C0260990       __ksymtab_seq_read
 0007:C0260998       __ksymtab_seq_open
 0007:C02609A0       __ksymtab_generic_removexattr
 0007:C02609A8       __ksymtab_generic_setxattr
 0007:C02609B0       __ksymtab_generic_listxattr
 0007:C02609B8       __ksymtab_generic_getxattr
 0007:C02609C0       __ksymtab_simple_transaction_release
 0007:C02609C8       __ksymtab_simple_transaction_read
 0007:C02609D0       __ksymtab_simple_transaction_get
 0007:C02609D8       __ksymtab_simple_transaction_set
 0007:C02609E0       __ksymtab_memory_read_from_buffer
 0007:C02609E8       __ksymtab_simple_read_from_buffer
 0007:C02609F0       __ksymtab_simple_unlink
 0007:C02609F8       __ksymtab_simple_sync_file
 0007:C0260A00       __ksymtab_simple_statfs
 0007:C0260A08       __ksymtab_simple_rmdir
 0007:C0260A10       __ksymtab_simple_rename
 0007:C0260A18       __ksymtab_simple_release_fs
 0007:C0260A20       __ksymtab_simple_readpage
 0007:C0260A28       __ksymtab_simple_pin_fs
 0007:C0260A30       __ksymtab_simple_lookup
 0007:C0260A38       __ksymtab_simple_link
 0007:C0260A40       __ksymtab_simple_getattr
 0007:C0260A48       __ksymtab_simple_fill_super
 0007:C0260A50       __ksymtab_d_alloc_name
 0007:C0260A58       __ksymtab_simple_empty
 0007:C0260A60       __ksymtab_simple_dir_operations
 0007:C0260A68       __ksymtab_simple_dir_inode_operations
 0007:C0260A70       __ksymtab_simple_write_end
 0007:C0260A78       __ksymtab_simple_write_begin
 0007:C0260A80       __ksymtab_get_sb_pseudo
 0007:C0260A88       __ksymtab_generic_read_dir
 0007:C0260A90       __ksymtab_dcache_readdir
 0007:C0260A98       __ksymtab_dcache_dir_open
 0007:C0260AA0       __ksymtab_dcache_dir_lseek
 0007:C0260AA8       __ksymtab_dcache_dir_close
 0007:C0260AB0       __ksymtab_simple_fsync
 0007:C0260AB8       __ksymtab_generic_osync_inode
 0007:C0260AC0       __ksymtab_sync_inode
 0007:C0260AC8       __ksymtab_write_inode_now
 0007:C0260AD0       __ksymtab_sb_has_dirty_inodes
 0007:C0260AD8       __ksymtab___mark_inode_dirty
 0007:C0260AE0       __ksymtab_splice_direct_to_actor
 0007:C0260AE8       __ksymtab_generic_splice_sendpage
 0007:C0260AF0       __ksymtab_generic_file_splice_write
 0007:C0260AF8       __ksymtab___splice_from_pipe
 0007:C0260B00       __ksymtab_splice_from_pipe_end
 0007:C0260B08       __ksymtab_splice_from_pipe_begin
 0007:C0260B10       __ksymtab_splice_from_pipe_next
 0007:C0260B18       __ksymtab_splice_from_pipe_feed
 0007:C0260B20       __ksymtab_pipe_to_file
 0007:C0260B28       __ksymtab_default_file_splice_read
 0007:C0260B30       __ksymtab_generic_file_splice_read
 0007:C0260B38       __ksymtab_vfs_fsync
 0007:C0260B40       __ksymtab_current_umask
 0007:C0260B48       __ksymtab_unlock_buffer
 0007:C0260B50       __ksymtab_sync_dirty_buffer
 0007:C0260B58       __ksymtab_submit_bh
 0007:C0260B60       __ksymtab_mark_buffer_dirty
 0007:C0260B68       __ksymtab_ll_rw_block
 0007:C0260B70       __ksymtab_invalidate_bdev
 0007:C0260B78       __ksymtab_init_buffer
 0007:C0260B80       __ksymtab_generic_cont_expand_simple
 0007:C0260B88       __ksymtab_generic_block_bmap
 0007:C0260B90       __ksymtab_file_fsync
 0007:C0260B98       __ksymtab_end_buffer_async_write
 0007:C0260BA0       __ksymtab_end_buffer_write_sync
 0007:C0260BA8       __ksymtab_end_buffer_read_sync
 0007:C0260BB0       __ksymtab_cont_write_begin
 0007:C0260BB8       __ksymtab_block_write_full_page_endio
 0007:C0260BC0       __ksymtab_block_write_full_page
 0007:C0260BC8       __ksymtab_block_truncate_page
 0007:C0260BD0       __ksymtab_block_sync_page
 0007:C0260BD8       __ksymtab_block_read_full_page
 0007:C0260BE0       __ksymtab_block_page_mkwrite
 0007:C0260BE8       __ksymtab_block_prepare_write
 0007:C0260BF0       __ksymtab_block_commit_write
 0007:C0260BF8       __ksymtab___wait_on_buffer
 0007:C0260C00       __ksymtab___brelse
 0007:C0260C08       __ksymtab___bforget
 0007:C0260C10       __ksymtab_bh_submit_read
 0007:C0260C18       __ksymtab_bh_uptodate_or_lock
 0007:C0260C20       __ksymtab_free_buffer_head
 0007:C0260C28       __ksymtab_alloc_buffer_head
 0007:C0260C30       __ksymtab_try_to_free_buffers
 0007:C0260C38       __ksymtab_nobh_truncate_page
 0007:C0260C40       __ksymtab_nobh_writepage
 0007:C0260C48       __ksymtab_nobh_write_end
 0007:C0260C50       __ksymtab_nobh_write_begin
 0007:C0260C58       __ksymtab_block_is_partially_uptodate
 0007:C0260C60       __ksymtab_generic_write_end
 0007:C0260C68       __ksymtab_block_write_end
 0007:C0260C70       __ksymtab_block_write_begin
 0007:C0260C78       __ksymtab_page_zero_new_buffers
 0007:C0260C80       __ksymtab_unmap_underlying_metadata
 0007:C0260C88       __ksymtab_create_empty_buffers
 0007:C0260C90       __ksymtab_block_invalidatepage
 0007:C0260C98       __ksymtab_set_bh_page
 0007:C0260CA0       __ksymtab___bread
 0007:C0260CA8       __ksymtab___breadahead
 0007:C0260CB0       __ksymtab___getblk
 0007:C0260CB8       __ksymtab___find_get_block
 0007:C0260CC0       __ksymtab_invalidate_inode_buffers
 0007:C0260CC8       __ksymtab___set_page_dirty_buffers
 0007:C0260CD0       __ksymtab_mark_buffer_dirty_inode
 0007:C0260CD8       __ksymtab_sync_mapping_buffers
 0007:C0260CE0       __ksymtab_mark_buffer_async_write
 0007:C0260CE8       __ksymtab___lock_buffer
 0007:C0260CF0       __ksymtab_bio_alloc_bioset
 0007:C0260CF8       __ksymtab_bioset_free
 0007:C0260D00       __ksymtab_bioset_create
 0007:C0260D08       __ksymtab_bio_uncopy_user
 0007:C0260D10       __ksymtab_bio_copy_user
 0007:C0260D18       __ksymtab_bio_split
 0007:C0260D20       __ksymtab_bio_pair_release
 0007:C0260D28       __ksymtab_bio_copy_kern
 0007:C0260D30       __ksymtab_bio_map_kern
 0007:C0260D38       __ksymtab_bio_unmap_user
 0007:C0260D40       __ksymtab_bio_map_user
 0007:C0260D48       __ksymtab_bio_get_nr_vecs
 0007:C0260D50       __ksymtab_bio_add_pc_page
 0007:C0260D58       __ksymtab_bio_add_page
 0007:C0260D60       __ksymtab_bio_phys_segments
 0007:C0260D68       __ksymtab_bio_clone
 0007:C0260D70       __ksymtab___bio_clone
 0007:C0260D78       __ksymtab_bio_init
 0007:C0260D80       __ksymtab_bio_endio
 0007:C0260D88       __ksymtab_bio_free
 0007:C0260D90       __ksymtab_bio_put
 0007:C0260D98       __ksymtab_bio_kmalloc
 0007:C0260DA0       __ksymtab_bio_alloc
 0007:C0260DA8       __ksymtab_bio_sector_offset
 0007:C0260DB0       __ksymtab_zero_fill_bio
 0007:C0260DB8       __ksymtab___invalidate_device
 0007:C0260DC0       __ksymtab_close_bdev_exclusive
 0007:C0260DC8       __ksymtab_open_bdev_exclusive
 0007:C0260DD0       __ksymtab_lookup_bdev
 0007:C0260DD8       __ksymtab_ioctl_by_bdev
 0007:C0260DE0       __ksymtab_blkdev_put
 0007:C0260DE8       __ksymtab_blkdev_get
 0007:C0260DF0       __ksymtab_bd_set_size
 0007:C0260DF8       __ksymtab_check_disk_change
 0007:C0260E00       __ksymtab_revalidate_disk
 0007:C0260E08       __ksymtab_check_disk_size_change
 0007:C0260E10       __ksymtab_open_by_devnum
 0007:C0260E18       __ksymtab_bd_release
 0007:C0260E20       __ksymtab_bd_claim
 0007:C0260E28       __ksymtab_bdput
 0007:C0260E30       __ksymtab_bdget
 0007:C0260E38       __ksymtab_thaw_bdev
 0007:C0260E40       __ksymtab_freeze_bdev
 0007:C0260E48       __ksymtab_fsync_bdev
 0007:C0260E50       __ksymtab_sync_blockdev
 0007:C0260E58       __ksymtab_sb_min_blocksize
 0007:C0260E60       __ksymtab_sb_set_blocksize
 0007:C0260E68       __ksymtab_set_blocksize
 0007:C0260E70       __ksymtab_I_BDEV
 0007:C0260E78       __ksymtab___blockdev_direct_IO
 0007:C0260E80       __ksymtab_mpage_writepage
 0007:C0260E88       __ksymtab_mpage_writepages
 0007:C0260E90       __ksymtab_mpage_readpage
 0007:C0260E98       __ksymtab_mpage_readpages
 0007:C0260EA0       __ksymtab_wait_on_sync_kiocb
 0007:C0260EA8       __ksymtab_aio_put_req
 0007:C0260EB0       __ksymtab_aio_complete
 0007:C0260EB8       __ksymtab_kick_iocb
 0007:C0260EC0       __ksymtab_lock_may_write
 0007:C0260EC8       __ksymtab_lock_may_read
 0007:C0260ED0       __ksymtab_posix_unblock_lock
 0007:C0260ED8       __ksymtab_locks_remove_posix
 0007:C0260EE0       __ksymtab_flock_lock_file_wait
 0007:C0260EE8       __ksymtab_generic_setlease
 0007:C0260EF0       __ksymtab_lease_get_mtime
 0007:C0260EF8       __ksymtab___break_lease
 0007:C0260F00       __ksymtab_lease_modify
 0007:C0260F08       __ksymtab_locks_mandatory_area
 0007:C0260F10       __ksymtab_posix_lock_file_wait
 0007:C0260F18       __ksymtab_posix_lock_file
 0007:C0260F20       __ksymtab_posix_test_lock
 0007:C0260F28       __ksymtab_locks_copy_lock
 0007:C0260F30       __ksymtab___locks_copy_lock
 0007:C0260F38       __ksymtab_locks_init_lock
 0007:C0260F40       __ksymtab_remove_proc_entry
 0007:C0260F48       __ksymtab_proc_create_data
 0007:C0260F50       __ksymtab_create_proc_entry
 0007:C0260F58       __ksymtab_proc_mkdir
 0007:C0260F60       __ksymtab_proc_symlink
 0007:C0260F68       __ksymtab_read_dev_sector
 0007:C0260F70       __ksymtab___bdevname
 0007:C0260F78       __ksymtab_bdevname
 0007:C0260F80       __ksymtab_cap_netlink_recv
 0007:C0260F88       __ksymtab_elv_rb_latter_request
 0007:C0260F90       __ksymtab_elv_rb_former_request
 0007:C0260F98       __ksymtab_elv_abort_queue
 0007:C0260FA0       __ksymtab_elv_queue_empty
 0007:C0260FA8       __ksymtab_elv_add_request
 0007:C0260FB0       __ksymtab___elv_add_request
 0007:C0260FB8       __ksymtab_elv_dispatch_add_tail
 0007:C0260FC0       __ksymtab_elv_dispatch_sort
 0007:C0260FC8       __ksymtab_elv_rb_find
 0007:C0260FD0       __ksymtab_elv_rb_del
 0007:C0260FD8       __ksymtab_elv_rb_add
 0007:C0260FE0       __ksymtab_elevator_exit
 0007:C0260FE8       __ksymtab_elevator_init
 0007:C0260FF0       __ksymtab_elv_rq_merge_ok
 0007:C0260FF8       __ksymtab_kblockd_schedule_work
 0007:C0261000       __ksymtab___blk_end_request_cur
 0007:C0261008       __ksymtab___blk_end_request_all
 0007:C0261010       __ksymtab___blk_end_request
 0007:C0261018       __ksymtab_blk_end_request_cur
 0007:C0261020       __ksymtab_blk_end_request_all
 0007:C0261028       __ksymtab_blk_end_request
 0007:C0261030       __ksymtab_blk_fetch_request
 0007:C0261038       __ksymtab_blk_start_request
 0007:C0261040       __ksymtab_blk_peek_request
 0007:C0261048       __ksymtab_submit_bio
 0007:C0261050       __ksymtab_generic_make_request
 0007:C0261058       __ksymtab_blk_put_request
 0007:C0261060       __ksymtab_blk_insert_request
 0007:C0261068       __ksymtab_blk_requeue_request
 0007:C0261070       __ksymtab_blk_make_request
 0007:C0261078       __ksymtab_blk_get_request
 0007:C0261080       __ksymtab_blk_init_queue_node
 0007:C0261088       __ksymtab_blk_init_queue
 0007:C0261090       __ksymtab_blk_alloc_queue_node
 0007:C0261098       __ksymtab_blk_alloc_queue
 0007:C02610A0       __ksymtab_blk_cleanup_queue
 0007:C02610A8       __ksymtab_blk_run_queue
 0007:C02610B0       __ksymtab___blk_run_queue
 0007:C02610B8       __ksymtab_blk_sync_queue
 0007:C02610C0       __ksymtab_blk_stop_queue
 0007:C02610C8       __ksymtab_blk_start_queue
 0007:C02610D0       __ksymtab_blk_unplug
 0007:C02610D8       __ksymtab_generic_unplug_device
 0007:C02610E0       __ksymtab_blk_remove_plug
 0007:C02610E8       __ksymtab_blk_plug_device_unlocked
 0007:C02610F0       __ksymtab_blk_plug_device
 0007:C02610F8       __ksymtab_blk_dump_rq_flags
 0007:C0261100       __ksymtab_blk_rq_init
 0007:C0261108       __ksymtab_blk_get_backing_dev_info
 0007:C0261110       __ksymtab_blk_queue_invalidate_tags
 0007:C0261118       __ksymtab_blk_queue_start_tag
 0007:C0261120       __ksymtab_blk_queue_end_tag
 0007:C0261128       __ksymtab_blk_queue_resize_tags
 0007:C0261130       __ksymtab_blk_queue_init_tags
 0007:C0261138       __ksymtab_blk_init_tags
 0007:C0261140       __ksymtab_blk_queue_free_tags
 0007:C0261148       __ksymtab_blk_free_tags
 0007:C0261150       __ksymtab_blk_queue_find_tag
 0007:C0261158       __ksymtab_blkdev_issue_discard
 0007:C0261160       __ksymtab_blkdev_issue_flush
 0007:C0261168       __ksymtab_blk_queue_ordered
 0007:C0261170       __ksymtab_blk_queue_update_dma_alignment
 0007:C0261178       __ksymtab_blk_queue_dma_alignment
 0007:C0261180       __ksymtab_blk_queue_segment_boundary
 0007:C0261188       __ksymtab_blk_queue_update_dma_pad
 0007:C0261190       __ksymtab_blk_queue_dma_pad
 0007:C0261198       __ksymtab_disk_stack_limits
 0007:C02611A0       __ksymtab_blk_stack_limits
 0007:C02611A8       __ksymtab_blk_queue_stack_limits
 0007:C02611B0       __ksymtab_blk_queue_io_opt
 0007:C02611B8       __ksymtab_blk_queue_io_min
 0007:C02611C0       __ksymtab_blk_limits_io_min
 0007:C02611C8       __ksymtab_blk_queue_alignment_offset
 0007:C02611D0       __ksymtab_blk_queue_physical_block_size
 0007:C02611D8       __ksymtab_blk_queue_logical_block_size
 0007:C02611E0       __ksymtab_blk_queue_max_segment_size
 0007:C02611E8       __ksymtab_blk_queue_max_hw_segments
 0007:C02611F0       __ksymtab_blk_queue_max_phys_segments
 0007:C02611F8       __ksymtab_blk_queue_max_hw_sectors
 0007:C0261200       __ksymtab_blk_queue_max_sectors
 0007:C0261208       __ksymtab_blk_queue_bounce_limit
 0007:C0261210       __ksymtab_blk_queue_make_request
 0007:C0261218       __ksymtab_blk_set_default_limits
 0007:C0261220       __ksymtab_blk_queue_softirq_done
 0007:C0261228       __ksymtab_blk_queue_merge_bvec
 0007:C0261230       __ksymtab_blk_queue_set_discard
 0007:C0261238       __ksymtab_blk_queue_prep_rq
 0007:C0261240       __ksymtab_blk_max_low_pfn
 0007:C0261248       __ksymtab_copy_io_context
 0007:C0261250       __ksymtab_get_io_context
 0007:C0261258       __ksymtab_put_io_context
 0007:C0261260       __ksymtab_blk_rq_map_kern
 0007:C0261268       __ksymtab_blk_rq_unmap_user
 0007:C0261270       __ksymtab_blk_rq_map_user_iov
 0007:C0261278       __ksymtab_blk_rq_map_user
 0007:C0261280       __ksymtab_blk_execute_rq
 0007:C0261288       __ksymtab_blk_rq_map_sg
 0007:C0261290       __ksymtab_blk_recount_segments
 0007:C0261298       __ksymtab_blk_complete_request
 0007:C02612A0       __ksymtab_invalidate_partition
 0007:C02612A8       __ksymtab_bdev_read_only
 0007:C02612B0       __ksymtab_set_disk_ro
 0007:C02612B8       __ksymtab_set_device_ro
 0007:C02612C0       __ksymtab_put_disk
 0007:C02612C8       __ksymtab_get_disk
 0007:C02612D0       __ksymtab_alloc_disk_node
 0007:C02612D8       __ksymtab_alloc_disk
 0007:C02612E0       __ksymtab_blk_lookup_devt
 0007:C02612E8       __ksymtab_bdget_disk
 0007:C02612F0       __ksymtab_del_gendisk
 0007:C02612F8       __ksymtab_add_disk
 0007:C0261300       __ksymtab_blk_unregister_region
 0007:C0261308       __ksymtab_blk_register_region
 0007:C0261310       __ksymtab_unregister_blkdev
 0007:C0261318       __ksymtab_register_blkdev
 0007:C0261320       __ksymtab_scsi_cmd_ioctl
 0007:C0261328       __ksymtab_blk_verify_command
 0007:C0261330       __ksymtab_scsi_command_size_tbl
 0007:C0261338       __ksymtab_argv_split
 0007:C0261340       __ksymtab_argv_free
 0007:C0261348       __ksymtab_get_options
 0007:C0261350       __ksymtab_get_option
 0007:C0261358       __ksymtab_memparse
 0007:C0261360       __ksymtab__ctype
 0007:C0261368       __ksymtab__atomic_dec_and_lock
 0007:C0261370       __ksymtab_ida_init
 0007:C0261378       __ksymtab_ida_destroy
 0007:C0261380       __ksymtab_ida_remove
 0007:C0261388       __ksymtab_ida_get_new
 0007:C0261390       __ksymtab_ida_get_new_above
 0007:C0261398       __ksymtab_ida_pre_get
 0007:C02613A0       __ksymtab_idr_init
 0007:C02613A8       __ksymtab_idr_replace
 0007:C02613B0       __ksymtab_idr_for_each
 0007:C02613B8       __ksymtab_idr_find
 0007:C02613C0       __ksymtab_idr_destroy
 0007:C02613C8       __ksymtab_idr_remove_all
 0007:C02613D0       __ksymtab_idr_remove
 0007:C02613D8       __ksymtab_idr_get_new
 0007:C02613E0       __ksymtab_idr_get_new_above
 0007:C02613E8       __ksymtab_idr_pre_get
 0007:C02613F0       __ksymtab_int_sqrt
 0007:C02613F8       __ksymtab_per_cpu____irq_regs
 0007:C0261400       __ksymtab_kset_unregister
 0007:C0261408       __ksymtab_kset_register
 0007:C0261410       __ksymtab_kobject_del
 0007:C0261418       __ksymtab_kobject_put
 0007:C0261420       __ksymtab_kobject_get
 0007:C0261428       __ksymtab_kobject_add
 0007:C0261430       __ksymtab_kobject_init
 0007:C0261438       __ksymtab_kobject_set_name
 0007:C0261440       __ksymtab_kref_put
 0007:C0261448       __ksymtab_kref_get
 0007:C0261450       __ksymtab_kref_init
 0007:C0261458       __ksymtab_kref_set
 0007:C0261460       __ksymtab_radix_tree_tagged
 0007:C0261468       __ksymtab_radix_tree_delete
 0007:C0261470       __ksymtab_radix_tree_gang_lookup_tag_slot
 0007:C0261478       __ksymtab_radix_tree_gang_lookup_tag
 0007:C0261480       __ksymtab_radix_tree_gang_lookup_slot
 0007:C0261488       __ksymtab_radix_tree_gang_lookup
 0007:C0261490       __ksymtab_radix_tree_prev_hole
 0007:C0261498       __ksymtab_radix_tree_next_hole
 0007:C02614A0       __ksymtab_radix_tree_tag_clear
 0007:C02614A8       __ksymtab_radix_tree_tag_set
 0007:C02614B0       __ksymtab_radix_tree_lookup
 0007:C02614B8       __ksymtab_radix_tree_lookup_slot
 0007:C02614C0       __ksymtab_radix_tree_insert
 0007:C02614C8       __ksymtab_radix_tree_preload
 0007:C02614D0       __ksymtab___ratelimit
 0007:C02614D8       __ksymtab_rb_replace_node
 0007:C02614E0       __ksymtab_rb_prev
 0007:C02614E8       __ksymtab_rb_next
 0007:C02614F0       __ksymtab_rb_last
 0007:C02614F8       __ksymtab_rb_first
 0007:C0261500       __ksymtab_rb_erase
 0007:C0261508       __ksymtab_rb_insert_color
 0007:C0261510       __ksymtab___downgrade_write
 0007:C0261518       __ksymtab___up_write
 0007:C0261520       __ksymtab___up_read
 0007:C0261528       __ksymtab___down_write_trylock
 0007:C0261530       __ksymtab___down_write
 0007:C0261538       __ksymtab___down_write_nested
 0007:C0261540       __ksymtab___down_read_trylock
 0007:C0261548       __ksymtab___down_read
 0007:C0261550       __ksymtab___init_rwsem
 0007:C0261558       __ksymtab_strstr
 0007:C0261560       __ksymtab_memscan
 0007:C0261568       __ksymtab_memcmp
 0007:C0261570       __ksymtab_sysfs_streq
 0007:C0261578       __ksymtab_strsep
 0007:C0261580       __ksymtab_strpbrk
 0007:C0261588       __ksymtab_strcspn
 0007:C0261590       __ksymtab_strspn
 0007:C0261598       __ksymtab_strnlen
 0007:C02615A0       __ksymtab_strlen
 0007:C02615A8       __ksymtab_strstrip
 0007:C02615B0       __ksymtab_strnchr
 0007:C02615B8       __ksymtab_strncmp
 0007:C02615C0       __ksymtab_strcmp
 0007:C02615C8       __ksymtab_strlcat
 0007:C02615D0       __ksymtab_strncat
 0007:C02615D8       __ksymtab_strcat
 0007:C02615E0       __ksymtab_strlcpy
 0007:C02615E8       __ksymtab_strncpy
 0007:C02615F0       __ksymtab_strcpy
 0007:C02615F8       __ksymtab_strncasecmp
 0007:C0261600       __ksymtab_strcasecmp
 0007:C0261608       __ksymtab_strnicmp
 0007:C0261610       __ksymtab_sscanf
 0007:C0261618       __ksymtab_vsscanf
 0007:C0261620       __ksymtab_sprintf
 0007:C0261628       __ksymtab_vsprintf
 0007:C0261630       __ksymtab_scnprintf
 0007:C0261638       __ksymtab_snprintf
 0007:C0261640       __ksymtab_vscnprintf
 0007:C0261648       __ksymtab_vsnprintf
 0007:C0261650       __ksymtab_strict_strtoll
 0007:C0261658       __ksymtab_strict_strtoull
 0007:C0261660       __ksymtab_strict_strtol
 0007:C0261668       __ksymtab_strict_strtoul
 0007:C0261670       __ksymtab_simple_strtoull
 0007:C0261678       __ksymtab_simple_strtol
 0007:C0261680       __ksymtab_simple_strtoul
 0007:C0261688       __ksymtab_bin2bcd
 0007:C0261690       __ksymtab_bcd2bin
 0007:C0261698       __ksymtab_iter_div_u64_rem
 0007:C02616A0       __ksymtab_div64_u64
 0007:C02616A8       __ksymtab_div_s64_rem
 0007:C02616B0       __ksymtab___div64_32
 0007:C02616B8       __ksymtab_sort
 0007:C02616C0       __ksymtab_match_strdup
 0007:C02616C8       __ksymtab_match_strlcpy
 0007:C02616D0       __ksymtab_match_hex
 0007:C02616D8       __ksymtab_match_octal
 0007:C02616E0       __ksymtab_match_int
 0007:C02616E8       __ksymtab_match_token
 0007:C02616F0       __ksymtab_half_md4_transform
 0007:C02616F8       __ksymtab_srandom32
 0007:C0261700       __ksymtab_random32
 0007:C0261708       __ksymtab_print_hex_dump_bytes
 0007:C0261710       __ksymtab_print_hex_dump
 0007:C0261718       __ksymtab_hex_dump_to_buffer
 0007:C0261720       __ksymtab_hex_asc
 0007:C0261728       __ksymtab_kasprintf
 0007:C0261730       __ksymtab_kvasprintf
 0007:C0261738       __ksymtab_bitmap_copy_le
 0007:C0261740       __ksymtab_bitmap_allocate_region
 0007:C0261748       __ksymtab_bitmap_release_region
 0007:C0261750       __ksymtab_bitmap_find_free_region
 0007:C0261758       __ksymtab_bitmap_fold
 0007:C0261760       __ksymtab_bitmap_onto
 0007:C0261768       __ksymtab_bitmap_bitremap
 0007:C0261770       __ksymtab_bitmap_remap
 0007:C0261778       __ksymtab_bitmap_parselist
 0007:C0261780       __ksymtab_bitmap_scnlistprintf
 0007:C0261788       __ksymtab_bitmap_parse_user
 0007:C0261790       __ksymtab___bitmap_parse
 0007:C0261798       __ksymtab_bitmap_scnprintf
 0007:C02617A0       __ksymtab___bitmap_weight
 0007:C02617A8       __ksymtab___bitmap_subset
 0007:C02617B0       __ksymtab___bitmap_intersects
 0007:C02617B8       __ksymtab___bitmap_andnot
 0007:C02617C0       __ksymtab___bitmap_xor
 0007:C02617C8       __ksymtab___bitmap_or
 0007:C02617D0       __ksymtab___bitmap_and
 0007:C02617D8       __ksymtab___bitmap_shift_left
 0007:C02617E0       __ksymtab___bitmap_shift_right
 0007:C02617E8       __ksymtab___bitmap_complement
 0007:C02617F0       __ksymtab___bitmap_equal
 0007:C02617F8       __ksymtab___bitmap_full
 0007:C0261800       __ksymtab___bitmap_empty
 0007:C0261808       __ksymtab_sg_copy_to_buffer
 0007:C0261810       __ksymtab_sg_copy_from_buffer
 0007:C0261818       __ksymtab_sg_miter_stop
 0007:C0261820       __ksymtab_sg_miter_next
 0007:C0261828       __ksymtab_sg_miter_start
 0007:C0261830       __ksymtab_sg_alloc_table
 0007:C0261838       __ksymtab___sg_alloc_table
 0007:C0261840       __ksymtab_sg_free_table
 0007:C0261848       __ksymtab___sg_free_table
 0007:C0261850       __ksymtab_sg_init_one
 0007:C0261858       __ksymtab_sg_init_table
 0007:C0261860       __ksymtab_sg_last
 0007:C0261868       __ksymtab_sg_next
 0007:C0261870       __ksymtab_string_get_size
 0007:C0261878       __ksymtab_devm_ioport_unmap
 0007:C0261880       __ksymtab_devm_ioport_map
 0007:C0261888       __ksymtab_devm_iounmap
 0007:C0261890       __ksymtab_devm_ioremap_nocache
 0007:C0261898       __ksymtab_devm_ioremap
 0007:C02618A0       __ksymtab_find_last_bit
 0007:C02618A8       __ksymtab_hweight64
 0007:C02618B0       __ksymtab_hweight8
 0007:C02618B8       __ksymtab_hweight16
 0007:C02618C0       __ksymtab_hweight32
 0007:C02618C8       __ksymtab_bitrev32
 0007:C02618D0       __ksymtab_bitrev16
 0007:C02618D8       __ksymtab_crc32_be
 0007:C02618E0       __ksymtab_crc32_le
 0007:C02618E8       __ksymtab_zlib_inflate_blob
 0007:C02618F0       __ksymtab_zlib_inflateIncomp
 0007:C02618F8       __ksymtab_zlib_inflateReset
 0007:C0261900       __ksymtab_zlib_inflateEnd
 0007:C0261908       __ksymtab_zlib_inflateInit2
 0007:C0261910       __ksymtab_zlib_inflate
 0007:C0261918       __ksymtab_zlib_inflate_workspacesize
 0007:C0261920       __ksymtab_zlib_deflateReset
 0007:C0261928       __ksymtab_zlib_deflateEnd
 0007:C0261930       __ksymtab_zlib_deflateInit2
 0007:C0261938       __ksymtab_zlib_deflate
 0007:C0261940       __ksymtab_zlib_deflate_workspacesize
 0007:C0261948       __ksymtab_nla_strcmp
 0007:C0261950       __ksymtab_nla_memcmp
 0007:C0261958       __ksymtab_nla_memcpy
 0007:C0261960       __ksymtab_nla_strlcpy
 0007:C0261968       __ksymtab_nla_find
 0007:C0261970       __ksymtab_nla_parse
 0007:C0261978       __ksymtab_nla_policy_len
 0007:C0261980       __ksymtab_nla_validate
 0007:C0261988       __ksymtab_nla_append
 0007:C0261990       __ksymtab_nla_put_nohdr
 0007:C0261998       __ksymtab_nla_put
 0007:C02619A0       __ksymtab___nla_put_nohdr
 0007:C02619A8       __ksymtab___nla_put
 0007:C02619B0       __ksymtab_nla_reserve_nohdr
 0007:C02619B8       __ksymtab_nla_reserve
 0007:C02619C0       __ksymtab___nla_reserve_nohdr
 0007:C02619C8       __ksymtab___nla_reserve
 0007:C02619D0       __ksymtab_fb_unregister_client
 0007:C02619D8       __ksymtab_fb_register_client
 0007:C02619E0       __ksymtab_fb_get_options
 0007:C02619E8       __ksymtab_fb_set_suspend
 0007:C02619F0       __ksymtab_fb_get_buffer_offset
 0007:C02619F8       __ksymtab_fb_pan_display
 0007:C0261A00       __ksymtab_fb_blank
 0007:C0261A08       __ksymtab_fb_set_var
 0007:C0261A10       __ksymtab_fb_show_logo
 0007:C0261A18       __ksymtab_registered_fb
 0007:C0261A20       __ksymtab_num_registered_fb
 0007:C0261A28       __ksymtab_unregister_framebuffer
 0007:C0261A30       __ksymtab_register_framebuffer
 0007:C0261A38       __ksymtab_fb_class
 0007:C0261A40       __ksymtab_fb_pad_unaligned_buffer
 0007:C0261A48       __ksymtab_fb_pad_aligned_buffer
 0007:C0261A50       __ksymtab_fb_get_color_depth
 0007:C0261A58       __ksymtab_lock_fb_info
 0007:C0261A60       __ksymtab_fb_destroy_modedb
 0007:C0261A68       __ksymtab_fb_validate_mode
 0007:C0261A70       __ksymtab_fb_get_mode
 0007:C0261A78       __ksymtab_fb_edid_to_monspecs
 0007:C0261A80       __ksymtab_fb_parse_edid
 0007:C0261A88       __ksymtab_fb_firmware_edid
 0007:C0261A90       __ksymtab_fb_invert_cmaps
 0007:C0261A98       __ksymtab_fb_default_cmap
 0007:C0261AA0       __ksymtab_fb_set_cmap
 0007:C0261AA8       __ksymtab_fb_copy_cmap
 0007:C0261AB0       __ksymtab_fb_dealloc_cmap
 0007:C0261AB8       __ksymtab_fb_alloc_cmap
 0007:C0261AC0       __ksymtab_framebuffer_release
 0007:C0261AC8       __ksymtab_framebuffer_alloc
 0007:C0261AD0       __ksymtab_fb_find_mode
 0007:C0261AD8       __ksymtab_fb_videomode_to_modelist
 0007:C0261AE0       __ksymtab_fb_find_nearest_mode
 0007:C0261AE8       __ksymtab_fb_find_best_mode
 0007:C0261AF0       __ksymtab_fb_match_mode
 0007:C0261AF8       __ksymtab_fb_add_videomode
 0007:C0261B00       __ksymtab_fb_mode_is_equal
 0007:C0261B08       __ksymtab_fb_var_to_videomode
 0007:C0261B10       __ksymtab_fb_videomode_to_var
 0007:C0261B18       __ksymtab_fb_find_best_display
 0007:C0261B20       __ksymtab_generate_random_uuid
 0007:C0261B28       __ksymtab_get_random_bytes
 0007:C0261B30       __ksymtab_tty_devnum
 0007:C0261B38       __ksymtab_tty_unregister_driver
 0007:C0261B40       __ksymtab_tty_register_driver
 0007:C0261B48       __ksymtab_put_tty_driver
 0007:C0261B50       __ksymtab_tty_set_operations
 0007:C0261B58       __ksymtab_tty_driver_kref_put
 0007:C0261B60       __ksymtab_alloc_tty_driver
 0007:C0261B68       __ksymtab_tty_unregister_device
 0007:C0261B70       __ksymtab_tty_register_device
 0007:C0261B78       __ksymtab_do_SAK
 0007:C0261B80       __ksymtab_tty_pair_get_pty
 0007:C0261B88       __ksymtab_tty_pair_get_tty
 0007:C0261B90       __ksymtab_tty_kref_put
 0007:C0261B98       __ksymtab_tty_shutdown
 0007:C0261BA0       __ksymtab_tty_free_termios
 0007:C0261BA8       __ksymtab_start_tty
 0007:C0261BB0       __ksymtab_stop_tty
 0007:C0261BB8       __ksymtab_tty_hung_up_p
 0007:C0261BC0       __ksymtab_tty_vhangup
 0007:C0261BC8       __ksymtab_tty_hangup
 0007:C0261BD0       __ksymtab_tty_check_change
 0007:C0261BD8       __ksymtab_tty_name
 0007:C0261BE0       __ksymtab_tty_mutex
 0007:C0261BE8       __ksymtab_tty_std_termios
 0007:C0261BF0       __ksymtab_n_tty_ioctl_helper
 0007:C0261BF8       __ksymtab_tty_termios_hw_change
 0007:C0261C00       __ksymtab_tty_termios_copy_hw
 0007:C0261C08       __ksymtab_tty_get_baud_rate
 0007:C0261C10       __ksymtab_tty_termios_input_baud_rate
 0007:C0261C18       __ksymtab_tty_termios_baud_rate
 0007:C0261C20       __ksymtab_tty_wait_until_sent
 0007:C0261C28       __ksymtab_tty_unthrottle
 0007:C0261C30       __ksymtab_tty_throttle
 0007:C0261C38       __ksymtab_tty_driver_flush_buffer
 0007:C0261C40       __ksymtab_tty_write_room
 0007:C0261C48       __ksymtab_tty_chars_in_buffer
 0007:C0261C50       __ksymtab_tty_unregister_ldisc
 0007:C0261C58       __ksymtab_tty_register_ldisc
 0007:C0261C60       __ksymtab_tty_flip_buffer_push
 0007:C0261C68       __ksymtab_tty_schedule_flip
 0007:C0261C70       __ksymtab_tty_insert_flip_string_flags
 0007:C0261C78       __ksymtab_tty_insert_flip_string
 0007:C0261C80       __ksymtab_tty_port_close
 0007:C0261C88       __ksymtab_tty_port_close_end
 0007:C0261C90       __ksymtab_tty_port_close_start
 0007:C0261C98       __ksymtab_tty_port_block_til_ready
 0007:C0261CA0       __ksymtab_tty_port_lower_dtr_rts
 0007:C0261CA8       __ksymtab_tty_port_raise_dtr_rts
 0007:C0261CB0       __ksymtab_tty_port_carrier_raised
 0007:C0261CB8       __ksymtab_tty_port_hangup
 0007:C0261CC0       __ksymtab_tty_port_tty_set
 0007:C0261CC8       __ksymtab_tty_port_tty_get
 0007:C0261CD0       __ksymtab_tty_port_free_xmit_buf
 0007:C0261CD8       __ksymtab_tty_port_alloc_xmit_buf
 0007:C0261CE0       __ksymtab_tty_port_init
 0007:C0261CE8       __ksymtab_misc_deregister
 0007:C0261CF0       __ksymtab_misc_register
 0007:C0261CF8       __ksymtab_kd_mksound
 0007:C0261D00       __ksymtab_con_copy_unimap
 0007:C0261D08       __ksymtab_con_set_default_unimap
 0007:C0261D10       __ksymtab_give_up_console
 0007:C0261D18       __ksymtab_take_over_console
 0007:C0261D20       __ksymtab_vc_cons
 0007:C0261D28       __ksymtab_console_blanked
 0007:C0261D30       __ksymtab_console_blank_hook
 0007:C0261D38       __ksymtab_fg_console
 0007:C0261D40       __ksymtab_vc_resize
 0007:C0261D48       __ksymtab_redraw_screen
 0007:C0261D50       __ksymtab_update_region
 0007:C0261D58       __ksymtab_default_blu
 0007:C0261D60       __ksymtab_default_grn
 0007:C0261D68       __ksymtab_default_red
 0007:C0261D70       __ksymtab_color_table
 0007:C0261D78       __ksymtab_do_unblank_screen
 0007:C0261D80       __ksymtab_do_blank_screen
 0007:C0261D88       __ksymtab_unregister_con_driver
 0007:C0261D90       __ksymtab_register_con_driver
 0007:C0261D98       __ksymtab_con_is_bound
 0007:C0261DA0       __ksymtab_unregister_sysrq_key
 0007:C0261DA8       __ksymtab_register_sysrq_key
 0007:C0261DB0       __ksymtab_handle_sysrq
 0007:C0261DB8       __ksymtab_dev_driver_string
 0007:C0261DC0       __ksymtab_cpu_sysdev_class
 0007:C0261DC8       __ksymtab_dmam_release_declared_memory
 0007:C0261DD0       __ksymtab_dmam_declare_coherent_memory
 0007:C0261DD8       __ksymtab_dmam_free_noncoherent
 0007:C0261DE0       __ksymtab_dmam_alloc_noncoherent
 0007:C0261DE8       __ksymtab_dmam_free_coherent
 0007:C0261DF0       __ksymtab_dmam_alloc_coherent
 0007:C0261DF8       __ksymtab_request_firmware_nowait
 0007:C0261E00       __ksymtab_request_firmware
 0007:C0261E08       __ksymtab_release_firmware
 0007:C0261E10       __ksymtab_generic_mii_ioctl
 0007:C0261E18       __ksymtab_mii_check_gmii_support
 0007:C0261E20       __ksymtab_mii_check_media
 0007:C0261E28       __ksymtab_mii_check_link
 0007:C0261E30       __ksymtab_mii_ethtool_sset
 0007:C0261E38       __ksymtab_mii_ethtool_gset
 0007:C0261E40       __ksymtab_mii_nway_restart
 0007:C0261E48       __ksymtab_mii_link_ok
 0007:C0261E50       __ksymtab_add_mtd_partitions
 0007:C0261E58       __ksymtab_del_mtd_partitions
 0007:C0261E60       __ksymtab_map_destroy
 0007:C0261E68       __ksymtab_do_map_probe
 0007:C0261E70       __ksymtab_unregister_mtd_chip_driver
 0007:C0261E78       __ksymtab_register_mtd_chip_driver
 0007:C0261E80       __ksymtab_cfi_varsize_frob
 0007:C0261E88       __ksymtab_cfi_fixup
 0007:C0261E90       __ksymtab_cfi_read_pri
 0007:C0261E98       __ksymtab_mtd_do_chip_probe
 0007:C0261EA0       __ksymtab_serio_interrupt
 0007:C0261EA8       __ksymtab_serio_close
 0007:C0261EB0       __ksymtab_serio_open
 0007:C0261EB8       __ksymtab_serio_unregister_driver
 0007:C0261EC0       __ksymtab___serio_register_driver
 0007:C0261EC8       __ksymtab_serio_unregister_child_port
 0007:C0261ED0       __ksymtab_serio_unregister_port
 0007:C0261ED8       __ksymtab___serio_register_port
 0007:C0261EE0       __ksymtab_serio_reconnect
 0007:C0261EE8       __ksymtab_serio_rescan
 0007:C0261EF0       __ksymtab_ps2_cmd_aborted
 0007:C0261EF8       __ksymtab_ps2_handle_response
 0007:C0261F00       __ksymtab_ps2_handle_ack
 0007:C0261F08       __ksymtab_ps2_init
 0007:C0261F10       __ksymtab_ps2_command
 0007:C0261F18       __ksymtab_ps2_is_keyboard_id
 0007:C0261F20       __ksymtab_ps2_drain
 0007:C0261F28       __ksymtab_ps2_sendbyte
 0007:C0261F30       __ksymtab_input_unregister_handle
 0007:C0261F38       __ksymtab_input_register_handle
 0007:C0261F40       __ksymtab_input_unregister_handler
 0007:C0261F48       __ksymtab_input_register_handler
 0007:C0261F50       __ksymtab_input_unregister_device
 0007:C0261F58       __ksymtab_input_register_device
 0007:C0261F60       __ksymtab_input_set_capability
 0007:C0261F68       __ksymtab_input_free_device
 0007:C0261F70       __ksymtab_input_allocate_device
 0007:C0261F78       __ksymtab_input_set_keycode
 0007:C0261F80       __ksymtab_input_get_keycode
 0007:C0261F88       __ksymtab_input_close_device
 0007:C0261F90       __ksymtab_input_flush_device
 0007:C0261F98       __ksymtab_input_open_device
 0007:C0261FA0       __ksymtab_input_release_device
 0007:C0261FA8       __ksymtab_input_grab_device
 0007:C0261FB0       __ksymtab_input_inject_event
 0007:C0261FB8       __ksymtab_input_event
 0007:C0261FC0       __ksymtab_rtc_tm_to_time
 0007:C0261FC8       __ksymtab_rtc_valid_tm
 0007:C0261FD0       __ksymtab_rtc_time_to_tm
 0007:C0261FD8       __ksymtab_rtc_year_days
 0007:C0261FE0       __ksymtab_rtc_month_days
 0007:C0261FE8       __ksymtab_i2c_smbus_xfer
 0007:C0261FF0       __ksymtab_i2c_smbus_write_i2c_block_data
 0007:C0261FF8       __ksymtab_i2c_smbus_read_i2c_block_data
 0007:C0262000       __ksymtab_i2c_smbus_write_block_data
 0007:C0262008       __ksymtab_i2c_smbus_read_block_data
 0007:C0262010       __ksymtab_i2c_smbus_process_call
 0007:C0262018       __ksymtab_i2c_smbus_write_word_data
 0007:C0262020       __ksymtab_i2c_smbus_read_word_data
 0007:C0262028       __ksymtab_i2c_smbus_write_byte_data
 0007:C0262030       __ksymtab_i2c_smbus_read_byte_data
 0007:C0262038       __ksymtab_i2c_smbus_write_byte
 0007:C0262040       __ksymtab_i2c_smbus_read_byte
 0007:C0262048       __ksymtab_i2c_put_adapter
 0007:C0262050       __ksymtab_i2c_get_adapter
 0007:C0262058       __ksymtab_i2c_master_recv
 0007:C0262060       __ksymtab_i2c_master_send
 0007:C0262068       __ksymtab_i2c_transfer
 0007:C0262070       __ksymtab_i2c_clients_command
 0007:C0262078       __ksymtab_i2c_release_client
 0007:C0262080       __ksymtab_i2c_use_client
 0007:C0262088       __ksymtab_i2c_del_driver
 0007:C0262090       __ksymtab_i2c_register_driver
 0007:C0262098       __ksymtab_i2c_del_adapter
 0007:C02620A0       __ksymtab_i2c_add_adapter
 0007:C02620A8       __ksymtab_i2c_verify_client
 0007:C02620B0       __ksymtab_mmc_resume_host
 0007:C02620B8       __ksymtab_mmc_suspend_host
 0007:C02620C0       __ksymtab_mmc_detect_change
 0007:C02620C8       __ksymtab_mmc_vddrange_to_ocrmask
 0007:C02620D0       __ksymtab_mmc_release_host
 0007:C02620D8       __ksymtab___mmc_claim_host
 0007:C02620E0       __ksymtab_mmc_align_data_size
 0007:C02620E8       __ksymtab_mmc_set_data_timeout
 0007:C02620F0       __ksymtab_mmc_wait_for_cmd
 0007:C02620F8       __ksymtab_mmc_wait_for_req
 0007:C0262100       __ksymtab_mmc_request_done
 0007:C0262108       __ksymtab_mmc_unregister_driver
 0007:C0262110       __ksymtab_mmc_register_driver
 0007:C0262118       __ksymtab_mmc_free_host
 0007:C0262120       __ksymtab_mmc_remove_host
 0007:C0262128       __ksymtab_mmc_add_host
 0007:C0262130       __ksymtab_mmc_alloc_host
 0007:C0262138       __ksymtab_mmc_wait_for_app_cmd
 0007:C0262140       __ksymtab_mmc_cleanup_queue
 0007:C0262148       __ksymtab_unregister_sound_dsp
 0007:C0262150       __ksymtab_unregister_sound_midi
 0007:C0262158       __ksymtab_unregister_sound_mixer
 0007:C0262160       __ksymtab_unregister_sound_special
 0007:C0262168       __ksymtab_register_sound_dsp
 0007:C0262170       __ksymtab_register_sound_midi
 0007:C0262178       __ksymtab_register_sound_mixer
 0007:C0262180       __ksymtab_register_sound_special
 0007:C0262188       __ksymtab_register_sound_special_device
 0007:C0262190       __ksymtab_sound_class
 0007:C0262198       __ksymtab_kernel_sock_shutdown
 0007:C02621A0       __ksymtab_kernel_sock_ioctl
 0007:C02621A8       __ksymtab_kernel_sendpage
 0007:C02621B0       __ksymtab_kernel_setsockopt
 0007:C02621B8       __ksymtab_kernel_getsockopt
 0007:C02621C0       __ksymtab_kernel_getpeername
 0007:C02621C8       __ksymtab_kernel_getsockname
 0007:C02621D0       __ksymtab_kernel_connect
 0007:C02621D8       __ksymtab_kernel_accept
 0007:C02621E0       __ksymtab_kernel_listen
 0007:C02621E8       __ksymtab_kernel_bind
 0007:C02621F0       __ksymtab_kernel_recvmsg
 0007:C02621F8       __ksymtab_kernel_sendmsg
 0007:C0262200       __ksymtab_sockfd_lookup
 0007:C0262208       __ksymtab_sock_wake_async
 0007:C0262210       __ksymtab_sock_unregister
 0007:C0262218       __ksymtab_sock_sendmsg
 0007:C0262220       __ksymtab_sock_release
 0007:C0262228       __ksymtab_sock_register
 0007:C0262230       __ksymtab_sock_recvmsg
 0007:C0262238       __ksymtab_sock_map_fd
 0007:C0262240       __ksymtab_sock_create_lite
 0007:C0262248       __ksymtab_sock_create_kern
 0007:C0262250       __ksymtab_sock_create
 0007:C0262258       __ksymtab_dlci_ioctl_set
 0007:C0262260       __ksymtab_vlan_ioctl_set
 0007:C0262268       __ksymtab_brioctl_set
 0007:C0262270       __ksymtab_sock_tx_timestamp
 0007:C0262278       __ksymtab_proto_unregister
 0007:C0262280       __ksymtab_proto_register
 0007:C0262288       __ksymtab_sk_common_release
 0007:C0262290       __ksymtab_sock_common_setsockopt
 0007:C0262298       __ksymtab_sock_common_recvmsg
 0007:C02622A0       __ksymtab_sock_common_getsockopt
 0007:C02622A8       __ksymtab_sock_get_timestampns
 0007:C02622B0       __ksymtab_sock_get_timestamp
 0007:C02622B8       __ksymtab_release_sock
 0007:C02622C0       __ksymtab_lock_sock_nested
 0007:C02622C8       __ksymtab_sock_init_data
 0007:C02622D0       __ksymtab_sk_stop_timer
 0007:C02622D8       __ksymtab_sk_reset_timer
 0007:C02622E0       __ksymtab_sk_send_sigurg
 0007:C02622E8       __ksymtab_sock_no_sendpage
 0007:C02622F0       __ksymtab_sock_no_mmap
 0007:C02622F8       __ksymtab_sock_no_recvmsg
 0007:C0262300       __ksymtab_sock_no_sendmsg
 0007:C0262308       __ksymtab_sock_no_getsockopt
 0007:C0262310       __ksymtab_sock_no_setsockopt
 0007:C0262318       __ksymtab_sock_no_shutdown
 0007:C0262320       __ksymtab_sock_no_listen
 0007:C0262328       __ksymtab_sock_no_ioctl
 0007:C0262330       __ksymtab_sock_no_poll
 0007:C0262338       __ksymtab_sock_no_getname
 0007:C0262340       __ksymtab_sock_no_accept
 0007:C0262348       __ksymtab_sock_no_socketpair
 0007:C0262350       __ksymtab_sock_no_connect
 0007:C0262358       __ksymtab_sock_no_bind
 0007:C0262360       __ksymtab___sk_mem_reclaim
 0007:C0262368       __ksymtab___sk_mem_schedule
 0007:C0262370       __ksymtab_sk_wait_data
 0007:C0262378       __ksymtab_sock_alloc_send_skb
 0007:C0262380       __ksymtab_sock_alloc_send_pskb
 0007:C0262388       __ksymtab_sock_kfree_s
 0007:C0262390       __ksymtab_sock_kmalloc
 0007:C0262398       __ksymtab_sock_wmalloc
 0007:C02623A0       __ksymtab_sock_i_ino
 0007:C02623A8       __ksymtab_sock_i_uid
 0007:C02623B0       __ksymtab_sock_rfree
 0007:C02623B8       __ksymtab_sock_wfree
 0007:C02623C0       __ksymtab_sk_release_kernel
 0007:C02623C8       __ksymtab_sk_free
 0007:C02623D0       __ksymtab_sk_alloc
 0007:C02623D8       __ksymtab_sock_setsockopt
 0007:C02623E0       __ksymtab_sk_dst_check
 0007:C02623E8       __ksymtab___sk_dst_check
 0007:C02623F0       __ksymtab_sk_receive_skb
 0007:C02623F8       __ksymtab_sock_queue_rcv_skb
 0007:C0262400       __ksymtab_sysctl_optmem_max
 0007:C0262408       __ksymtab___skb_warn_lro_forwarding
 0007:C0262410       __ksymtab_skb_append_datato_frags
 0007:C0262418       __ksymtab_skb_find_text
 0007:C0262420       __ksymtab_skb_abort_seq_read
 0007:C0262428       __ksymtab_skb_seq_read
 0007:C0262430       __ksymtab_skb_prepare_seq_read
 0007:C0262438       __ksymtab_skb_split
 0007:C0262440       __ksymtab_skb_insert
 0007:C0262448       __ksymtab_skb_append
 0007:C0262450       __ksymtab_skb_unlink
 0007:C0262458       __ksymtab_skb_queue_tail
 0007:C0262460       __ksymtab_skb_queue_head
 0007:C0262468       __ksymtab_skb_queue_purge
 0007:C0262470       __ksymtab_skb_dequeue_tail
 0007:C0262478       __ksymtab_skb_dequeue
 0007:C0262480       __ksymtab_skb_copy_and_csum_dev
 0007:C0262488       __ksymtab_skb_copy_and_csum_bits
 0007:C0262490       __ksymtab_skb_checksum
 0007:C0262498       __ksymtab_skb_store_bits
 0007:C02624A0       __ksymtab_skb_copy_bits
 0007:C02624A8       __ksymtab___pskb_pull_tail
 0007:C02624B0       __ksymtab____pskb_trim
 0007:C02624B8       __ksymtab_skb_trim
 0007:C02624C0       __ksymtab_skb_pull
 0007:C02624C8       __ksymtab_skb_push
 0007:C02624D0       __ksymtab_skb_put
 0007:C02624D8       __ksymtab_skb_pad
 0007:C02624E0       __ksymtab_skb_copy_expand
 0007:C02624E8       __ksymtab_skb_realloc_headroom
 0007:C02624F0       __ksymtab_pskb_expand_head
 0007:C02624F8       __ksymtab_pskb_copy
 0007:C0262500       __ksymtab_skb_copy
 0007:C0262508       __ksymtab_skb_clone
 0007:C0262510       __ksymtab_skb_recycle_check
 0007:C0262518       __ksymtab_consume_skb
 0007:C0262520       __ksymtab_kfree_skb
 0007:C0262528       __ksymtab___kfree_skb
 0007:C0262530       __ksymtab_dev_alloc_skb
 0007:C0262538       __ksymtab_skb_add_rx_frag
 0007:C0262540       __ksymtab___netdev_alloc_page
 0007:C0262548       __ksymtab___netdev_alloc_skb
 0007:C0262550       __ksymtab___alloc_skb
 0007:C0262558       __ksymtab_skb_under_panic
 0007:C0262560       __ksymtab_skb_over_panic
 0007:C0262568       __ksymtab_memcpy_toiovecend
 0007:C0262570       __ksymtab_memcpy_toiovec
 0007:C0262578       __ksymtab_memcpy_fromiovecend
 0007:C0262580       __ksymtab_memcpy_fromiovec
 0007:C0262588       __ksymtab_csum_partial_copy_fromiovecend
 0007:C0262590       __ksymtab_skb_recv_datagram
 0007:C0262598       __ksymtab_skb_copy_datagram_iovec
 0007:C02625A0       __ksymtab_skb_copy_and_csum_datagram_iovec
 0007:C02625A8       __ksymtab_datagram_poll
 0007:C02625B0       __ksymtab___skb_checksum_complete
 0007:C02625B8       __ksymtab___skb_checksum_complete_head
 0007:C02625C0       __ksymtab_skb_copy_datagram_from_iovec
 0007:C02625C8       __ksymtab_skb_copy_datagram_const_iovec
 0007:C02625D0       __ksymtab_skb_kill_datagram
 0007:C02625D8       __ksymtab_skb_free_datagram_locked
 0007:C02625E0       __ksymtab_skb_free_datagram
 0007:C02625E8       __ksymtab___skb_recv_datagram
 0007:C02625F0       __ksymtab_sk_stream_kill_queues
 0007:C02625F8       __ksymtab_sk_stream_error
 0007:C0262600       __ksymtab_sk_stream_wait_memory
 0007:C0262608       __ksymtab_sk_stream_wait_close
 0007:C0262610       __ksymtab_sk_stream_wait_connect
 0007:C0262618       __ksymtab_sk_stream_write_space
 0007:C0262620       __ksymtab_scm_fp_dup
 0007:C0262628       __ksymtab_scm_detach_fds
 0007:C0262630       __ksymtab_put_cmsg
 0007:C0262638       __ksymtab___scm_send
 0007:C0262640       __ksymtab___scm_destroy
 0007:C0262648       __ksymtab_gnet_stats_finish_copy
 0007:C0262650       __ksymtab_gnet_stats_copy_app
 0007:C0262658       __ksymtab_gnet_stats_copy_queue
 0007:C0262660       __ksymtab_gnet_stats_copy_rate_est
 0007:C0262668       __ksymtab_gnet_stats_copy_basic
 0007:C0262670       __ksymtab_gnet_stats_start_copy_compat
 0007:C0262678       __ksymtab_gnet_stats_start_copy
 0007:C0262680       __ksymtab_gen_estimator_active
 0007:C0262688       __ksymtab_gen_replace_estimator
 0007:C0262690       __ksymtab_gen_kill_estimator
 0007:C0262698       __ksymtab_gen_new_estimator
 0007:C02626A0       __ksymtab_init_net
 0007:C02626A8       __ksymtab_skb_dma_unmap
 0007:C02626B0       __ksymtab_skb_dma_map
 0007:C02626B8       __ksymtab_per_cpu__softnet_data
 0007:C02626C0       __ksymtab_dev_load
 0007:C02626C8       __ksymtab_dev_get_flags
 0007:C02626D0       __ksymtab_net_disable_timestamp
 0007:C02626D8       __ksymtab_net_enable_timestamp
 0007:C02626E0       __ksymtab_unregister_netdevice_notifier
 0007:C02626E8       __ksymtab_unregister_netdevice
 0007:C02626F0       __ksymtab_synchronize_net
 0007:C02626F8       __ksymtab_skb_checksum_help
 0007:C0262700       __ksymtab_register_netdevice_notifier
 0007:C0262708       __ksymtab_register_netdevice
 0007:C0262710       __ksymtab_register_gifconf
 0007:C0262718       __ksymtab_netif_rx
 0007:C0262720       __ksymtab_netif_receive_skb
 0007:C0262728       __ksymtab_netdev_state_change
 0007:C0262730       __ksymtab_netdev_set_master
 0007:C0262738       __ksymtab_netdev_boot_setup_check
 0007:C0262740       __ksymtab_free_netdev
 0007:C0262748       __ksymtab_dev_set_mac_address
 0007:C0262750       __ksymtab_dev_set_mtu
 0007:C0262758       __ksymtab_dev_change_flags
 0007:C0262760       __ksymtab_dev_set_promiscuity
 0007:C0262768       __ksymtab_dev_set_allmulti
 0007:C0262770       __ksymtab_dev_remove_pack
 0007:C0262778       __ksymtab_dev_queue_xmit
 0007:C0262780       __ksymtab_dev_open
 0007:C0262788       __ksymtab_dev_get_by_name
 0007:C0262790       __ksymtab_dev_get_by_index
 0007:C0262798       __ksymtab_dev_get_by_flags
 0007:C02627A0       __ksymtab_dev_close
 0007:C02627A8       __ksymtab_dev_alloc_name
 0007:C02627B0       __ksymtab_dev_add_pack
 0007:C02627B8       __ksymtab_dev_valid_name
 0007:C02627C0       __ksymtab___dev_remove_pack
 0007:C02627C8       __ksymtab___dev_get_by_name
 0007:C02627D0       __ksymtab___dev_get_by_index
 0007:C02627D8       __ksymtab_netdev_increment_features
 0007:C02627E0       __ksymtab_unregister_netdev
 0007:C02627E8       __ksymtab_alloc_netdev_mq
 0007:C02627F0       __ksymtab_dev_get_stats
 0007:C02627F8       __ksymtab_register_netdev
 0007:C0262800       __ksymtab_netdev_fix_features
 0007:C0262808       __ksymtab_dev_unicast_unsync
 0007:C0262810       __ksymtab_dev_unicast_sync
 0007:C0262818       __ksymtab_dev_unicast_add
 0007:C0262820       __ksymtab_dev_unicast_delete
 0007:C0262828       __ksymtab_dev_addr_del_multiple
 0007:C0262830       __ksymtab_dev_addr_add_multiple
 0007:C0262838       __ksymtab_dev_addr_del
 0007:C0262840       __ksymtab_dev_addr_add
 0007:C0262848       __ksymtab_netif_napi_del
 0007:C0262850       __ksymtab_netif_napi_add
 0007:C0262858       __ksymtab_napi_complete
 0007:C0262860       __ksymtab___napi_complete
 0007:C0262868       __ksymtab___napi_schedule
 0007:C0262870       __ksymtab_napi_gro_frags
 0007:C0262878       __ksymtab_napi_frags_skb
 0007:C0262880       __ksymtab_napi_frags_finish
 0007:C0262888       __ksymtab_napi_get_frags
 0007:C0262890       __ksymtab_napi_reuse_skb
 0007:C0262898       __ksymtab_napi_gro_receive
 0007:C02628A0       __ksymtab_skb_gro_reset_offset
 0007:C02628A8       __ksymtab_napi_skb_finish
 0007:C02628B0       __ksymtab_dev_gro_receive
 0007:C02628B8       __ksymtab_napi_gro_flush
 0007:C02628C0       __ksymtab_netif_rx_ni
 0007:C02628C8       __ksymtab_skb_tx_hash
 0007:C02628D0       __ksymtab_netdev_rx_csum_fault
 0007:C02628D8       __ksymtab_skb_gso_segment
 0007:C02628E0       __ksymtab_netif_device_attach
 0007:C02628E8       __ksymtab_netif_device_detach
 0007:C02628F0       __ksymtab_dev_kfree_skb_any
 0007:C02628F8       __ksymtab_dev_kfree_skb_irq
 0007:C0262900       __ksymtab___netif_schedule
 0007:C0262908       __ksymtab_dev_disable_lro
 0007:C0262910       __ksymtab_netdev_bonding_change
 0007:C0262918       __ksymtab_netdev_features_change
 0007:C0262920       __ksymtab_dev_getfirstbyhwtype
 0007:C0262928       __ksymtab___dev_getfirstbyhwtype
 0007:C0262930       __ksymtab_dev_getbyhwaddr
 0007:C0262938       __ksymtab_dev_base_lock
 0007:C0262940       __ksymtab_ethtool_op_get_flags
 0007:C0262948       __ksymtab_ethtool_op_set_flags
 0007:C0262950       __ksymtab_ethtool_op_get_ufo
 0007:C0262958       __ksymtab_ethtool_op_set_ufo
 0007:C0262960       __ksymtab_ethtool_op_set_tx_ipv6_csum
 0007:C0262968       __ksymtab_ethtool_op_set_tx_hw_csum
 0007:C0262970       __ksymtab_ethtool_op_set_tx_csum
 0007:C0262978       __ksymtab_ethtool_op_set_tso
 0007:C0262980       __ksymtab_ethtool_op_set_sg
 0007:C0262988       __ksymtab_ethtool_op_get_tx_csum
 0007:C0262990       __ksymtab_ethtool_op_get_tso
 0007:C0262998       __ksymtab_ethtool_op_get_sg
 0007:C02629A0       __ksymtab_ethtool_op_get_link
 0007:C02629A8       __ksymtab_dev_mc_delete
 0007:C02629B0       __ksymtab_dev_mc_add
 0007:C02629B8       __ksymtab_dev_mc_unsync
 0007:C02629C0       __ksymtab_dev_mc_sync
 0007:C02629C8       __ksymtab_dst_destroy
 0007:C02629D0       __ksymtab_dst_alloc
 0007:C02629D8       __ksymtab___dst_free
 0007:C02629E0       __ksymtab_dst_release
 0007:C02629E8       __ksymtab_dst_discard
 0007:C02629F0       __ksymtab_neigh_sysctl_unregister
 0007:C02629F8       __ksymtab_neigh_sysctl_register
 0007:C0262A00       __ksymtab_neigh_seq_stop
 0007:C0262A08       __ksymtab_neigh_seq_next
 0007:C0262A10       __ksymtab_neigh_seq_start
 0007:C0262A18       __ksymtab___neigh_for_each_release
 0007:C0262A20       __ksymtab_neigh_for_each
 0007:C0262A28       __ksymtab_neigh_table_clear
 0007:C0262A30       __ksymtab_neigh_table_init
 0007:C0262A38       __ksymtab_neigh_table_init_no_netlink
 0007:C0262A40       __ksymtab_neigh_parms_release
 0007:C0262A48       __ksymtab_neigh_parms_alloc
 0007:C0262A50       __ksymtab_pneigh_enqueue
 0007:C0262A58       __ksymtab_neigh_connected_output
 0007:C0262A60       __ksymtab_neigh_resolve_output
 0007:C0262A68       __ksymtab_neigh_compat_output
 0007:C0262A70       __ksymtab_neigh_event_ns
 0007:C0262A78       __ksymtab_neigh_update
 0007:C0262A80       __ksymtab___neigh_event_send
 0007:C0262A88       __ksymtab_neigh_destroy
 0007:C0262A90       __ksymtab_pneigh_lookup
 0007:C0262A98       __ksymtab_neigh_create
 0007:C0262AA0       __ksymtab_neigh_lookup_nodev
 0007:C0262AA8       __ksymtab_neigh_lookup
 0007:C0262AB0       __ksymtab_neigh_ifdown
 0007:C0262AB8       __ksymtab_neigh_changeaddr
 0007:C0262AC0       __ksymtab_neigh_rand_reach_time
 0007:C0262AC8       __ksymtab_ifla_policy
 0007:C0262AD0       __ksymtab_rtnl_create_link
 0007:C0262AD8       __ksymtab_rtnl_set_sk_err
 0007:C0262AE0       __ksymtab_rtnl_notify
 0007:C0262AE8       __ksymtab_rtnl_unicast
 0007:C0262AF0       __ksymtab_rtnl_is_locked
 0007:C0262AF8       __ksymtab_rtnl_unlock
 0007:C0262B00       __ksymtab_rtnl_trylock
 0007:C0262B08       __ksymtab_rtnl_lock
 0007:C0262B10       __ksymtab_rtnetlink_put_metrics
 0007:C0262B18       __ksymtab___rta_fill
 0007:C0262B20       __ksymtab_inet_proto_csum_replace4
 0007:C0262B28       __ksymtab_in6_pton
 0007:C0262B30       __ksymtab_in4_pton
 0007:C0262B38       __ksymtab_in_aton
 0007:C0262B40       __ksymtab_net_ratelimit
 0007:C0262B48       __ksymtab_net_msg_warn
 0007:C0262B50       __ksymtab_linkwatch_fire_event
 0007:C0262B58       __ksymtab_sk_chk_filter
 0007:C0262B60       __ksymtab_sk_run_filter
 0007:C0262B68       __ksymtab_sk_filter
 0007:C0262B70       __ksymtab_flow_cache_lookup
 0007:C0262B78       __ksymtab_flow_cache_genid
 0007:C0262B80       __ksymtab_netdev_class_remove_file
 0007:C0262B88       __ksymtab_netdev_class_create_file
 0007:C0262B90       __ksymtab_print_mac
 0007:C0262B98       __ksymtab_sysfs_format_mac
 0007:C0262BA0       __ksymtab_alloc_etherdev_mq
 0007:C0262BA8       __ksymtab_ether_setup
 0007:C0262BB0       __ksymtab_eth_validate_addr
 0007:C0262BB8       __ksymtab_eth_change_mtu
 0007:C0262BC0       __ksymtab_eth_mac_addr
 0007:C0262BC8       __ksymtab_eth_header_cache_update
 0007:C0262BD0       __ksymtab_eth_header_cache
 0007:C0262BD8       __ksymtab_eth_header_parse
 0007:C0262BE0       __ksymtab_eth_type_trans
 0007:C0262BE8       __ksymtab_eth_rebuild_header
 0007:C0262BF0       __ksymtab_eth_header
 0007:C0262BF8       __ksymtab_qdisc_destroy
 0007:C0262C00       __ksymtab_qdisc_reset
 0007:C0262C08       __ksymtab_qdisc_create_dflt
 0007:C0262C10       __ksymtab_noop_qdisc
 0007:C0262C18       __ksymtab_netif_carrier_off
 0007:C0262C20       __ksymtab_netif_carrier_on
 0007:C0262C28       __ksymtab_dev_trans_start
 0007:C0262C30       __ksymtab_netlink_unregister_notifier
 0007:C0262C38       __ksymtab_netlink_register_notifier
 0007:C0262C40       __ksymtab_nlmsg_notify
 0007:C0262C48       __ksymtab_netlink_rcv_skb
 0007:C0262C50       __ksymtab_netlink_ack
 0007:C0262C58       __ksymtab_netlink_dump_start
 0007:C0262C60       __ksymtab_netlink_set_nonroot
 0007:C0262C68       __ksymtab_netlink_clear_multicast_users
 0007:C0262C70       __ksymtab_netlink_change_ngroups
 0007:C0262C78       __ksymtab_netlink_kernel_release
 0007:C0262C80       __ksymtab_netlink_kernel_create
 0007:C0262C88       __ksymtab_netlink_set_err
 0007:C0262C90       __ksymtab_netlink_broadcast
 0007:C0262C98       __ksymtab_netlink_unicast
 0007:C0262CA0       __ksymtab_genl_unregister_family
 0007:C0262CA8       __ksymtab_genl_register_family
 0007:C0262CB0       __ksymtab_genl_unregister_ops
 0007:C0262CB8       __ksymtab_genl_register_ops
 0007:C0262CC0       __ksymtab_genl_sock
 0007:C0262CC8       __ksymtab_genl_register_family_with_ops
 0007:C0262CD0       __ksymtab_genl_unregister_mc_group
 0007:C0262CD8       __ksymtab_genl_register_mc_group
 0007:C0262CE0       __ksymtab_ip_route_output_key
 0007:C0262CE8       __ksymtab_ip_route_input
 0007:C0262CF0       __ksymtab___ip_select_ident
 0007:C0262CF8       __ksymtab_inet_del_protocol
 0007:C0262D00       __ksymtab_inet_add_protocol
 0007:C0262D08       __ksymtab_ip_defrag
 0007:C0262D10       __ksymtab_ip_send_check
 0007:C0262D18       __ksymtab_ip_queue_xmit
 0007:C0262D20       __ksymtab_ip_generic_getfrag
 0007:C0262D28       __ksymtab_ip_fragment
 0007:C0262D30       __ksymtab_ip_getsockopt
 0007:C0262D38       __ksymtab_ip_setsockopt
 0007:C0262D40       __ksymtab_ip_cmsg_recv
 0007:C0262D48       __ksymtab_inet_put_port
 0007:C0262D50       __ksymtab_inet_twsk_deschedule
 0007:C0262D58       __ksymtab_inet_csk_destroy_sock
 0007:C0262D60       __ksymtab_inet_csk_reset_keepalive_timer
 0007:C0262D68       __ksymtab_inet_csk_delete_keepalive_timer
 0007:C0262D70       __ksymtab_inet_csk_clear_xmit_timers
 0007:C0262D78       __ksymtab_inet_csk_init_xmit_timers
 0007:C0262D80       __ksymtab_inet_csk_accept
 0007:C0262D88       __ksymtab_inet_get_local_port_range
 0007:C0262D90       __ksymtab_inet_csk_timer_bug_msg
 0007:C0262D98       __ksymtab_tcp_shutdown
 0007:C0262DA0       __ksymtab_tcp_setsockopt
 0007:C0262DA8       __ksymtab_tcp_sendpage
 0007:C0262DB0       __ksymtab_tcp_splice_read
 0007:C0262DB8       __ksymtab_tcp_sendmsg
 0007:C0262DC0       __ksymtab_tcp_recvmsg
 0007:C0262DC8       __ksymtab_tcp_read_sock
 0007:C0262DD0       __ksymtab_tcp_poll
 0007:C0262DD8       __ksymtab_tcp_ioctl
 0007:C0262DE0       __ksymtab_tcp_getsockopt
 0007:C0262DE8       __ksymtab_tcp_disconnect
 0007:C0262DF0       __ksymtab_tcp_close
 0007:C0262DF8       __ksymtab_tcp_gro_complete
 0007:C0262E00       __ksymtab_tcp_gro_receive
 0007:C0262E08       __ksymtab_tcp_tso_segment
 0007:C0262E10       __ksymtab_tcp_enter_memory_pressure
 0007:C0262E18       __ksymtab_tcp_memory_pressure
 0007:C0262E20       __ksymtab_tcp_sockets_allocated
 0007:C0262E28       __ksymtab_tcp_memory_allocated
 0007:C0262E30       __ksymtab_sysctl_tcp_wmem
 0007:C0262E38       __ksymtab_sysctl_tcp_rmem
 0007:C0262E40       __ksymtab_sysctl_tcp_mem
 0007:C0262E48       __ksymtab_tcp_initialize_rcv_mss
 0007:C0262E50       __ksymtab_tcp_rcv_state_process
 0007:C0262E58       __ksymtab_tcp_rcv_established
 0007:C0262E60       __ksymtab_tcp_parse_options
 0007:C0262E68       __ksymtab_sysctl_tcp_adv_win_scale
 0007:C0262E70       __ksymtab_sysctl_tcp_reordering
 0007:C0262E78       __ksymtab_sysctl_tcp_ecn
 0007:C0262E80       __ksymtab_tcp_mtup_init
 0007:C0262E88       __ksymtab_tcp_sync_mss
 0007:C0262E90       __ksymtab_tcp_simple_retransmit
 0007:C0262E98       __ksymtab_tcp_make_synack
 0007:C0262EA0       __ksymtab_tcp_connect
 0007:C0262EA8       __ksymtab_tcp_select_initial_window
 0007:C0262EB0       __ksymtab_tcp_init_xmit_timers
 0007:C0262EB8       __ksymtab_sysctl_tcp_low_latency
 0007:C0262EC0       __ksymtab_tcp_proc_unregister
 0007:C0262EC8       __ksymtab_tcp_proc_register
 0007:C0262ED0       __ksymtab_tcp_v4_syn_recv_sock
 0007:C0262ED8       __ksymtab_tcp_v4_send_check
 0007:C0262EE0       __ksymtab_tcp_v4_remember_stamp
 0007:C0262EE8       __ksymtab_tcp_v4_do_rcv
 0007:C0262EF0       __ksymtab_tcp_v4_connect
 0007:C0262EF8       __ksymtab_tcp_v4_conn_request
 0007:C0262F00       __ksymtab_tcp_prot
 0007:C0262F08       __ksymtab_tcp_hashinfo
 0007:C0262F10       __ksymtab_ipv4_specific
 0007:C0262F18       __ksymtab_tcp4_gro_complete
 0007:C0262F20       __ksymtab_tcp4_gro_receive
 0007:C0262F28       __ksymtab_tcp_v4_destroy_sock
 0007:C0262F30       __ksymtab_tcp_timewait_state_process
 0007:C0262F38       __ksymtab_tcp_create_openreq_child
 0007:C0262F40       __ksymtab_tcp_child_process
 0007:C0262F48       __ksymtab_tcp_check_req
 0007:C0262F50       __ksymtab_sysctl_tcp_syncookies
 0007:C0262F58       __ksymtab_ip4_datagram_connect
 0007:C0262F60       __ksymtab_udp_proc_unregister
 0007:C0262F68       __ksymtab_udp_proc_register
 0007:C0262F70       __ksymtab_udp_lib_get_port
 0007:C0262F78       __ksymtab_udp_poll
 0007:C0262F80       __ksymtab_udp_lib_setsockopt
 0007:C0262F88       __ksymtab_udp_lib_getsockopt
 0007:C0262F90       __ksymtab_udp_sendmsg
 0007:C0262F98       __ksymtab_udp_prot
 0007:C0262FA0       __ksymtab_udp_ioctl
 0007:C0262FA8       __ksymtab_udp_disconnect
 0007:C0262FB0       __ksymtab_udp_lib_unhash
 0007:C0262FB8       __ksymtab_udp_flush_pending_frames
 0007:C0262FC0       __ksymtab_udp_memory_allocated
 0007:C0262FC8       __ksymtab_sysctl_udp_wmem_min
 0007:C0262FD0       __ksymtab_sysctl_udp_rmem_min
 0007:C0262FD8       __ksymtab_sysctl_udp_mem
 0007:C0262FE0       __ksymtab_udp_table
 0007:C0262FE8       __ksymtab_udplite_prot
 0007:C0262FF0       __ksymtab_udplite_table
 0007:C0262FF8       __ksymtab_arp_tbl
 0007:C0263000       __ksymtab_arp_send
 0007:C0263008       __ksymtab_arp_xmit
 0007:C0263010       __ksymtab_arp_create
 0007:C0263018       __ksymtab_arp_find
 0007:C0263020       __ksymtab_arp_broken_ops
 0007:C0263028       __ksymtab_xrlim_allow
 0007:C0263030       __ksymtab_icmp_send
 0007:C0263038       __ksymtab_icmp_err_convert
 0007:C0263040       __ksymtab_unregister_inetaddr_notifier
 0007:C0263048       __ksymtab_register_inetaddr_notifier
 0007:C0263050       __ksymtab_inetdev_by_index
 0007:C0263058       __ksymtab_inet_select_addr
 0007:C0263060       __ksymtab_in_dev_finish_destroy
 0007:C0263068       __ksymtab_sysctl_ip_nonlocal_bind
 0007:C0263070       __ksymtab_inet_unregister_protosw
 0007:C0263078       __ksymtab_inet_stream_ops
 0007:C0263080       __ksymtab_inet_stream_connect
 0007:C0263088       __ksymtab_inet_sock_destruct
 0007:C0263090       __ksymtab_inet_shutdown
 0007:C0263098       __ksymtab_inet_sendmsg
 0007:C02630A0       __ksymtab_inet_release
 0007:C02630A8       __ksymtab_inet_register_protosw
 0007:C02630B0       __ksymtab_inet_listen
 0007:C02630B8       __ksymtab_inet_ioctl
 0007:C02630C0       __ksymtab_inet_getname
 0007:C02630C8       __ksymtab_inet_dgram_ops
 0007:C02630D0       __ksymtab_inet_dgram_connect
 0007:C02630D8       __ksymtab_inet_bind
 0007:C02630E0       __ksymtab_inet_accept
 0007:C02630E8       __ksymtab_inet_sk_rebuild_header
 0007:C02630F0       __ksymtab_build_ehash_secret
 0007:C02630F8       __ksymtab_inet_ehash_secret
 0007:C0263100       __ksymtab_ipv4_config
 0007:C0263108       __ksymtab_ip_mc_rejoin_group
 0007:C0263110       __ksymtab_ip_mc_join_group
 0007:C0263118       __ksymtab_ip_mc_inc_group
 0007:C0263120       __ksymtab_ip_mc_dec_group
 0007:C0263128       __ksymtab_ip_dev_find
 0007:C0263130       __ksymtab_inet_dev_addr_type
 0007:C0263138       __ksymtab_inet_addr_type
 0007:C0263140       __ksymtab_inet_frag_find
 0007:C0263148       __ksymtab_inet_frag_evictor
 0007:C0263150       __ksymtab_inet_frag_destroy
 0007:C0263158       __ksymtab_inet_frag_kill
 0007:C0263160       __ksymtab_inet_frags_exit_net
 0007:C0263168       __ksymtab_inet_frags_fini
 0007:C0263170       __ksymtab_inet_frags_init_net
 0007:C0263178       __ksymtab_inet_frags_init
 0007:C0263180       __ksymtab_lro_flush_pkt
 0007:C0263188       __ksymtab_lro_flush_all
 0007:C0263190       __ksymtab_lro_vlan_hwaccel_receive_frags
 0007:C0263198       __ksymtab_lro_receive_frags
 0007:C02631A0       __ksymtab_lro_vlan_hwaccel_receive_skb
 0007:C02631A8       __ksymtab_lro_receive_skb
 0007:C02631B0       __ksymtab_xfrm4_rcv
 0007:C02631B8       __ksymtab_xfrm4_rcv_encap
 0007:C02631C0       __ksymtab_xfrm4_prepare_output
 0007:C02631C8       __ksymtab_xfrm_policy_unregister_afinfo
 0007:C02631D0       __ksymtab_xfrm_policy_register_afinfo
 0007:C02631D8       __ksymtab_xfrm_bundle_ok
 0007:C02631E0       __ksymtab_xfrm_dst_ifdown
 0007:C02631E8       __ksymtab___xfrm_route_forward
 0007:C02631F0       __ksymtab___xfrm_policy_check
 0007:C02631F8       __ksymtab___xfrm_decode_session
 0007:C0263200       __ksymtab_xfrm_lookup
 0007:C0263208       __ksymtab___xfrm_lookup
 0007:C0263210       __ksymtab_xfrm_policy_delete
 0007:C0263218       __ksymtab_xfrm_policy_walk_done
 0007:C0263220       __ksymtab_xfrm_policy_walk_init
 0007:C0263228       __ksymtab_xfrm_policy_walk
 0007:C0263230       __ksymtab_xfrm_policy_flush
 0007:C0263238       __ksymtab_xfrm_policy_byid
 0007:C0263240       __ksymtab_xfrm_policy_bysel_ctx
 0007:C0263248       __ksymtab_xfrm_policy_insert
 0007:C0263250       __ksymtab_xfrm_spd_getinfo
 0007:C0263258       __ksymtab_xfrm_policy_destroy
 0007:C0263260       __ksymtab_xfrm_policy_alloc
 0007:C0263268       __ksymtab_xfrm_cfg_mutex
 0007:C0263270       __ksymtab_xfrm_init_state
 0007:C0263278       __ksymtab_xfrm_state_delete_tunnel
 0007:C0263280       __ksymtab_xfrm_state_unregister_afinfo
 0007:C0263288       __ksymtab_xfrm_state_register_afinfo
 0007:C0263290       __ksymtab_xfrm_unregister_km
 0007:C0263298       __ksymtab_xfrm_register_km
 0007:C02632A0       __ksymtab_xfrm_user_policy
 0007:C02632A8       __ksymtab_km_report
 0007:C02632B0       __ksymtab_km_policy_expired
 0007:C02632B8       __ksymtab_km_new_mapping
 0007:C02632C0       __ksymtab_km_query
 0007:C02632C8       __ksymtab_km_state_expired
 0007:C02632D0       __ksymtab_km_state_notify
 0007:C02632D8       __ksymtab_km_policy_notify
 0007:C02632E0       __ksymtab_xfrm_state_walk_done
 0007:C02632E8       __ksymtab_xfrm_state_walk_init
 0007:C02632F0       __ksymtab_xfrm_state_walk
 0007:C02632F8       __ksymtab_xfrm_alloc_spi
 0007:C0263300       __ksymtab_xfrm_get_acqseq
 0007:C0263308       __ksymtab_xfrm_find_acq_byseq
 0007:C0263310       __ksymtab_xfrm_find_acq
 0007:C0263318       __ksymtab_xfrm_state_lookup_byaddr
 0007:C0263320       __ksymtab_xfrm_state_lookup
 0007:C0263328       __ksymtab_xfrm_state_check_expire
 0007:C0263330       __ksymtab_xfrm_state_update
 0007:C0263338       __ksymtab_xfrm_state_add
 0007:C0263340       __ksymtab_xfrm_state_insert
 0007:C0263348       __ksymtab_xfrm_stateonly_find
 0007:C0263350       __ksymtab_xfrm_sad_getinfo
 0007:C0263358       __ksymtab_xfrm_state_flush
 0007:C0263360       __ksymtab_xfrm_state_delete
 0007:C0263368       __ksymtab___xfrm_state_delete
 0007:C0263370       __ksymtab___xfrm_state_destroy
 0007:C0263378       __ksymtab_xfrm_state_alloc
 0007:C0263380       __ksymtab_xfrm_unregister_mode
 0007:C0263388       __ksymtab_xfrm_register_mode
 0007:C0263390       __ksymtab_xfrm_unregister_type
 0007:C0263398       __ksymtab_xfrm_register_type
 0007:C02633A0       __ksymtab_xfrm_input_resume
 0007:C02633A8       __ksymtab_xfrm_input
 0007:C02633B0       __ksymtab_xfrm_prepare_input
 0007:C02633B8       __ksymtab_secpath_dup
 0007:C02633C0       __ksymtab___secpath_destroy
 0007:C02633C8       __ksymtab_svc_pool_stats_open
 0008:C02633D0       __start___ksymtab_gpl
 0008:C02633D8       __ksymtab_thread_notify_head
 0008:C02633E0       __ksymtab_arm_pm_restart
 0008:C02633E8       __ksymtab_sched_setscheduler
 0008:C02633F0       __ksymtab___wake_up_sync
 0008:C02633F8       __ksymtab___wake_up_sync_key
 0008:C0263400       __ksymtab_get_task_mm
 0008:C0263408       __ksymtab_mmput
 0008:C0263410       __ksymtab___mmdrop
 0008:C0263418       __ksymtab_console_drivers
 0008:C0263420       __ksymtab_cpu_bit_bitmap
 0008:C0263428       __ksymtab_do_exit
 0008:C0263430       __ksymtab_getnstimeofday
 0008:C0263438       __ksymtab_tasklet_hrtimer_init
 0008:C0263440       __ksymtab_add_timer_on
 0008:C0263448       __ksymtab_round_jiffies_up_relative
 0008:C0263450       __ksymtab_round_jiffies_up
 0008:C0263458       __ksymtab___round_jiffies_up_relative
 0008:C0263460       __ksymtab___round_jiffies_up
 0008:C0263468       __ksymtab_round_jiffies_relative
 0008:C0263470       __ksymtab_round_jiffies
 0008:C0263478       __ksymtab___round_jiffies_relative
 0008:C0263480       __ksymtab___round_jiffies
 0008:C0263488       __ksymtab_init_user_ns
 0008:C0263490       __ksymtab_dequeue_signal
 0008:C0263498       __ksymtab_kill_pid_info_as_uid
 0008:C02634A0       __ksymtab_orderly_poweroff
 0008:C02634A8       __ksymtab_kernel_power_off
 0008:C02634B0       __ksymtab_kernel_halt
 0008:C02634B8       __ksymtab_kernel_restart
 0008:C02634C0       __ksymtab_emergency_restart
 0008:C02634C8       __ksymtab_destroy_workqueue
 0008:C02634D0       __ksymtab___create_workqueue_key
 0008:C02634D8       __ksymtab_execute_in_process_context
 0008:C02634E0       __ksymtab_cancel_work_sync
 0008:C02634E8       __ksymtab_flush_work
 0008:C02634F0       __ksymtab_flush_workqueue
 0008:C02634F8       __ksymtab_queue_delayed_work_on
 0008:C0263500       __ksymtab_queue_delayed_work
 0008:C0263508       __ksymtab_queue_work_on
 0008:C0263510       __ksymtab_queue_work
 0008:C0263518       __ksymtab_task_active_pid_ns
 0008:C0263520       __ksymtab_pid_vnr
 0008:C0263528       __ksymtab_find_get_pid
 0008:C0263530       __ksymtab_find_vpid
 0008:C0263538       __ksymtab_find_pid_ns
 0008:C0263540       __ksymtab_put_pid
 0008:C0263548       __ksymtab_init_pid_ns
 0008:C0263550       __ksymtab_rcu_barrier_sched
 0008:C0263558       __ksymtab_rcu_barrier_bh
 0008:C0263560       __ksymtab_rcu_barrier
 0008:C0263568       __ksymtab_synchronize_rcu
 0008:C0263570       __ksymtab_do_posix_clock_nonanosleep
 0008:C0263578       __ksymtab_do_posix_clock_nosettime
 0008:C0263580       __ksymtab_register_posix_clock
 0008:C0263588       __ksymtab_posix_timer_event
 0008:C0263590       __ksymtab_schedule_hrtimeout
 0008:C0263598       __ksymtab_schedule_hrtimeout_range
 0008:C02635A0       __ksymtab_hrtimer_get_res
 0008:C02635A8       __ksymtab_hrtimer_init
 0008:C02635B0       __ksymtab_hrtimer_get_remaining
 0008:C02635B8       __ksymtab_hrtimer_cancel
 0008:C02635C0       __ksymtab_hrtimer_try_to_cancel
 0008:C02635C8       __ksymtab_hrtimer_start
 0008:C02635D0       __ksymtab_hrtimer_start_range_ns
 0008:C02635D8       __ksymtab_hrtimer_forward
 0008:C02635E0       __ksymtab_ktime_add_safe
 0008:C02635E8       __ksymtab_ktime_sub_ns
 0008:C02635F0       __ksymtab_ktime_add_ns
 0008:C02635F8       __ksymtab_ktime_get_ts
 0008:C0263600       __ksymtab_ktime_get_real
 0008:C0263608       __ksymtab_ktime_get
 0008:C0263610       __ksymtab_srcu_batches_completed
 0008:C0263618       __ksymtab_synchronize_srcu
 0008:C0263620       __ksymtab_srcu_read_unlock
 0008:C0263628       __ksymtab_srcu_read_lock
 0008:C0263630       __ksymtab_cleanup_srcu_struct
 0008:C0263638       __ksymtab_init_srcu_struct
 0008:C0263640       __ksymtab_unregister_die_notifier
 0008:C0263648       __ksymtab_register_die_notifier
 0008:C0263650       __ksymtab_srcu_init_notifier_head
 0008:C0263658       __ksymtab_srcu_notifier_call_chain
 0008:C0263660       __ksymtab___srcu_notifier_call_chain
 0008:C0263668       __ksymtab_srcu_notifier_chain_unregister
 0008:C0263670       __ksymtab_srcu_notifier_chain_register
 0008:C0263678       __ksymtab_raw_notifier_call_chain
 0008:C0263680       __ksymtab___raw_notifier_call_chain
 0008:C0263688       __ksymtab_raw_notifier_chain_unregister
 0008:C0263690       __ksymtab_raw_notifier_chain_register
 0008:C0263698       __ksymtab_blocking_notifier_call_chain
 0008:C02636A0       __ksymtab___blocking_notifier_call_chain
 0008:C02636A8       __ksymtab_blocking_notifier_chain_unregister
 0008:C02636B0       __ksymtab_blocking_notifier_chain_cond_register
 0008:C02636B8       __ksymtab_blocking_notifier_chain_register
 0008:C02636C0       __ksymtab_atomic_notifier_call_chain
 0008:C02636C8       __ksymtab___atomic_notifier_call_chain
 0008:C02636D0       __ksymtab_atomic_notifier_chain_unregister
 0008:C02636D8       __ksymtab_atomic_notifier_chain_register
 0008:C02636E0       __ksymtab_kernel_kobj
 0008:C02636E8       __ksymtab_pm_qos_remove_notifier
 0008:C02636F0       __ksymtab_pm_qos_add_notifier
 0008:C02636F8       __ksymtab_pm_qos_remove_requirement
 0008:C0263700       __ksymtab_pm_qos_update_requirement
 0008:C0263708       __ksymtab_pm_qos_add_requirement
 0008:C0263710       __ksymtab_pm_qos_requirement
 0008:C0263718       __ksymtab_cpu_clock
 0008:C0263720       __ksymtab_async_synchronize_cookie
 0008:C0263728       __ksymtab_async_synchronize_cookie_domain
 0008:C0263730       __ksymtab_async_synchronize_full_domain
 0008:C0263738       __ksymtab_async_synchronize_full
 0008:C0263740       __ksymtab_async_schedule_domain
 0008:C0263748       __ksymtab_async_schedule
 0008:C0263750       __ksymtab_clockevents_notify
 0008:C0263758       __ksymtab_clockevents_register_device
 0008:C0263760       __ksymtab_clockevent_delta2ns
 0008:C0263768       __ksymtab___rt_mutex_init
 0008:C0263770       __ksymtab_rt_mutex_destroy
 0008:C0263778       __ksymtab_rt_mutex_unlock
 0008:C0263780       __ksymtab_rt_mutex_trylock
 0008:C0263788       __ksymtab_rt_mutex_timed_lock
 0008:C0263790       __ksymtab_rt_mutex_lock_interruptible
 0008:C0263798       __ksymtab_rt_mutex_lock
 0008:C02637A0       __ksymtab___module_text_address
 0008:C02637A8       __ksymtab___module_address
 0008:C02637B0       __ksymtab___symbol_get
 0008:C02637B8       __ksymtab_symbol_put_addr
 0008:C02637C0       __ksymtab_use_module
 0008:C02637C8       __ksymtab_find_module
 0008:C02637D0       __ksymtab_find_symbol
 0008:C02637D8       __ksymtab_each_symbol
 0008:C02637E0       __ksymtab_module_mutex
 0008:C02637E8       __ksymtab_sprint_symbol
 0008:C02637F0       __ksymtab_kallsyms_on_each_symbol
 0008:C02637F8       __ksymtab_unregister_pm_notifier
 0008:C0263800       __ksymtab_register_pm_notifier
 0008:C0263808       __ksymtab_nr_irqs
 0008:C0263810       __ksymtab_remove_irq
 0008:C0263818       __ksymtab_setup_irq
 0008:C0263820       __ksymtab___set_irq_handler
 0008:C0263828       __ksymtab_handle_level_irq
 0008:C0263830       __ksymtab_resume_device_irqs
 0008:C0263838       __ksymtab_suspend_device_irqs
 0008:C0263840       __ksymtab_call_rcu_bh
 0008:C0263848       __ksymtab_call_rcu
 0008:C0263850       __ksymtab_rcu_batches_completed_bh
 0008:C0263858       __ksymtab_rcu_batches_completed
 0008:C0263860       __ksymtab___lock_page_killable
 0008:C0263868       __ksymtab_add_page_wait_queue
 0008:C0263870       __ksymtab_add_to_page_cache_lru
 0008:C0263878       __ksymtab_unregister_oom_notifier
 0008:C0263880       __ksymtab_register_oom_notifier
 0008:C0263888       __ksymtab_probe_kernel_write
 0008:C0263890       __ksymtab_probe_kernel_read
 0008:C0263898       __ksymtab_nr_free_buffer_pages
 0008:C02638A0       __ksymtab_bdi_writeout_inc
 0008:C02638A8       __ksymtab_page_cache_async_readahead
 0008:C02638B0       __ksymtab_page_cache_sync_readahead
 0008:C02638B8       __ksymtab_file_ra_state_init
 0008:C02638C0       __ksymtab_invalidate_inode_pages2
 0008:C02638C8       __ksymtab_invalidate_inode_pages2_range
 0008:C02638D0       __ksymtab_shmem_file_setup
 0008:C02638D8       __ksymtab_get_user_pages_fast
 0008:C02638E0       __ksymtab_all_vm_events
 0008:C02638E8       __ksymtab_default_backing_dev_info
 0008:C02638F0       __ksymtab_mm_kobj
 0008:C02638F8       __ksymtab_apply_to_page_range
 0008:C0263900       __ksymtab_zap_vma_ptes
 0008:C0263908       __ksymtab_page_mkclean
 0008:C0263910       __ksymtab_free_vm_area
 0008:C0263918       __ksymtab_alloc_vm_area
 0008:C0263920       __ksymtab___get_vm_area
 0008:C0263928       __ksymtab_map_vm_area
 0008:C0263930       __ksymtab_vm_unmap_aliases
 0008:C0263938       __ksymtab_kmem_cache_name
 0008:C0263940       __ksymtab_lookup_instantiate_filp
 0008:C0263948       __ksymtab_drop_file_write_access
 0008:C0263950       __ksymtab_get_max_files
 0008:C0263958       __ksymtab_kern_mount_data
 0008:C0263960       __ksymtab_do_kern_mount
 0008:C0263968       __ksymtab_vfs_kern_mount
 0008:C0263970       __ksymtab_lookup_create
 0008:C0263978       __ksymtab_d_materialise_unique
 0008:C0263980       __ksymtab_sysctl_vfs_cache_pressure
 0008:C0263988       __ksymtab_generic_drop_inode
 0008:C0263990       __ksymtab_inode_add_to_lists
 0008:C0263998       __ksymtab_mark_mounts_for_expiry
 0008:C02639A0       __ksymtab_do_add_mount
 0008:C02639A8       __ksymtab_mnt_drop_write
 0008:C02639B0       __ksymtab_mnt_want_write_file
 0008:C02639B8       __ksymtab_mnt_clone_write
 0008:C02639C0       __ksymtab_mnt_want_write
 0008:C02639C8       __ksymtab___mnt_is_readonly
 0008:C02639D0       __ksymtab_fs_kobj
 0008:C02639D8       __ksymtab_vfs_removexattr
 0008:C02639E0       __ksymtab_vfs_listxattr
 0008:C02639E8       __ksymtab_vfs_getxattr
 0008:C02639F0       __ksymtab_xattr_getsecurity
 0008:C02639F8       __ksymtab_vfs_setxattr
 0008:C0263A00       __ksymtab_simple_attr_write
 0008:C0263A08       __ksymtab_simple_attr_read
 0008:C0263A10       __ksymtab_simple_attr_release
 0008:C0263A18       __ksymtab_simple_attr_open
 0008:C0263A20       __ksymtab_generic_fh_to_parent
 0008:C0263A28       __ksymtab_generic_fh_to_dentry
 0008:C0263A30       __ksymtab_generic_sync_sb_inodes
 0008:C0263A38       __ksymtab_do_sync_mapping_range
 0008:C0263A40       __ksymtab_sync_filesystem
 0008:C0263A48       __ksymtab_fsstack_copy_attr_all
 0008:C0263A50       __ksymtab_fsstack_copy_inode_size
 0008:C0263A58       __ksymtab_unshare_fs_struct
 0008:C0263A60       __ksymtab_invalidate_bh_lrus
 0008:C0263A68       __ksymtab_alloc_page_buffers
 0008:C0263A70       __ksymtab_bd_release_from_disk
 0008:C0263A78       __ksymtab_bd_claim_by_disk
 0008:C0263A80       __ksymtab_set_task_ioprio
 0008:C0263A88       __ksymtab_fsnotify
 0008:C0263A90       __ksymtab___fsnotify_parent
 0008:C0263A98       __ksymtab___fsnotify_inode_delete
 0008:C0263AA0       __ksymtab_fsnotify_get_cookie
 0008:C0263AA8       __ksymtab_anon_inode_getfd
 0008:C0263AB0       __ksymtab_eventfd_ctx_fileget
 0008:C0263AB8       __ksymtab_eventfd_ctx_fdget
 0008:C0263AC0       __ksymtab_eventfd_fget
 0008:C0263AC8       __ksymtab_eventfd_ctx_put
 0008:C0263AD0       __ksymtab_eventfd_ctx_get
 0008:C0263AD8       __ksymtab_eventfd_signal
 0008:C0263AE0       __ksymtab_vfs_cancel_lock
 0008:C0263AE8       __ksymtab_vfs_lock_file
 0008:C0263AF0       __ksymtab_vfs_test_lock
 0008:C0263AF8       __ksymtab_vfs_setlease
 0008:C0263B00       __ksymtab_locks_release_private
 0008:C0263B08       __ksymtab_proc_net_mkdir
 0008:C0263B10       __ksymtab_proc_net_remove
 0008:C0263B18       __ksymtab_proc_net_fops_create
 0008:C0263B20       __ksymtab_single_release_net
 0008:C0263B28       __ksymtab_seq_release_net
 0008:C0263B30       __ksymtab_single_open_net
 0008:C0263B38       __ksymtab_seq_open_net
 0008:C0263B40       __ksymtab_sysfs_remove_file
 0008:C0263B48       __ksymtab_sysfs_create_file
 0008:C0263B50       __ksymtab_sysfs_schedule_callback
 0008:C0263B58       __ksymtab_sysfs_remove_file_from_group
 0008:C0263B60       __ksymtab_sysfs_chmod_file
 0008:C0263B68       __ksymtab_sysfs_add_file_to_group
 0008:C0263B70       __ksymtab_sysfs_notify
 0008:C0263B78       __ksymtab_sysfs_notify_dirent
 0008:C0263B80       __ksymtab_sysfs_get_dirent
 0008:C0263B88       __ksymtab_sysfs_remove_link
 0008:C0263B90       __ksymtab_sysfs_create_link
 0008:C0263B98       __ksymtab_sysfs_put
 0008:C0263BA0       __ksymtab_sysfs_get
 0008:C0263BA8       __ksymtab_sysfs_remove_bin_file
 0008:C0263BB0       __ksymtab_sysfs_create_bin_file
 0008:C0263BB8       __ksymtab_sysfs_remove_group
 0008:C0263BC0       __ksymtab_sysfs_update_group
 0008:C0263BC8       __ksymtab_sysfs_create_group
 0008:C0263BD0       __ksymtab_exportfs_decode_fh
 0008:C0263BD8       __ksymtab_exportfs_encode_fh
 0008:C0263BE0       __ksymtab_nlmclnt_done
 0008:C0263BE8       __ksymtab_nlmclnt_init
 0008:C0263BF0       __ksymtab_nlmclnt_proc
 0008:C0263BF8       __ksymtab_lockd_down
 0008:C0263C00       __ksymtab_lockd_up
 0008:C0263C08       __ksymtab_nlmsvc_ops
 0008:C0263C10       __ksymtab_nlmsvc_unlock_all_by_ip
 0008:C0263C18       __ksymtab_nlmsvc_unlock_all_by_sb
 0008:C0263C20       __ksymtab_locks_in_grace
 0008:C0263C28       __ksymtab_locks_end_grace
 0008:C0263C30       __ksymtab_locks_start_grace
 0008:C0263C38       __ksymtab_crypto_has_alg
 0008:C0263C40       __ksymtab_crypto_destroy_tfm
 0008:C0263C48       __ksymtab_crypto_alloc_tfm
 0008:C0263C50       __ksymtab_crypto_create_tfm
 0008:C0263C58       __ksymtab_crypto_alloc_base
 0008:C0263C60       __ksymtab___crypto_alloc_tfm
 0008:C0263C68       __ksymtab_crypto_shoot_alg
 0008:C0263C70       __ksymtab_crypto_alg_mod_lookup
 0008:C0263C78       __ksymtab_crypto_probing_notify
 0008:C0263C80       __ksymtab_crypto_larval_lookup
 0008:C0263C88       __ksymtab_crypto_alg_lookup
 0008:C0263C90       __ksymtab_crypto_larval_kill
 0008:C0263C98       __ksymtab_crypto_larval_alloc
 0008:C0263CA0       __ksymtab_crypto_mod_put
 0008:C0263CA8       __ksymtab_crypto_mod_get
 0008:C0263CB0       __ksymtab_crypto_chain
 0008:C0263CB8       __ksymtab_crypto_alg_sem
 0008:C0263CC0       __ksymtab_crypto_alg_list
 0008:C0263CC8       __ksymtab_elv_unregister
 0008:C0263CD0       __ksymtab_elv_register
 0008:C0263CD8       __ksymtab_blk_rq_prep_clone
 0008:C0263CE0       __ksymtab_blk_rq_unprep_clone
 0008:C0263CE8       __ksymtab_blk_lld_busy
 0008:C0263CF0       __ksymtab_blk_update_request
 0008:C0263CF8       __ksymtab_blk_insert_cloned_request
 0008:C0263D00       __ksymtab_blk_rq_check_limits
 0008:C0263D08       __ksymtab___blk_put_request
 0008:C0263D10       __ksymtab_part_round_stats
 0008:C0263D18       __ksymtab_blk_queue_dma_drain
 0008:C0263D20       __ksymtab_blk_queue_lld_busy
 0008:C0263D28       __ksymtab_blk_queue_rq_timed_out
 0008:C0263D30       __ksymtab_blk_queue_rq_timeout
 0008:C0263D38       __ksymtab_blk_execute_rq_nowait
 0008:C0263D40       __ksymtab_blk_abort_queue
 0008:C0263D48       __ksymtab_blk_abort_request
 0008:C0263D50       __ksymtab_blkdev_ioctl
 0008:C0263D58       __ksymtab___blkdev_driver_ioctl
 0008:C0263D60       __ksymtab_disk_map_sector_rcu
 0008:C0263D68       __ksymtab_disk_part_iter_exit
 0008:C0263D70       __ksymtab_disk_part_iter_next
 0008:C0263D78       __ksymtab_disk_part_iter_init
 0008:C0263D80       __ksymtab_disk_get_part
 0008:C0263D88       __ksymtab_sg_scsi_ioctl
 0008:C0263D90       __ksymtab_bsg_register_queue
 0008:C0263D98       __ksymtab_bsg_unregister_queue
 0008:C0263DA0       __ksymtab_kset_create_and_add
 0008:C0263DA8       __ksymtab_kobject_create_and_add
 0008:C0263DB0       __ksymtab_kobject_rename
 0008:C0263DB8       __ksymtab_kobject_init_and_add
 0008:C0263DC0       __ksymtab_kobject_get_path
 0008:C0263DC8       __ksymtab_add_uevent_var
 0008:C0263DD0       __ksymtab_kobject_uevent
 0008:C0263DD8       __ksymtab_kobject_uevent_env
 0008:C0263DE0       __ksymtab_gcd
 0008:C0263DE8       __ksymtab___iowrite64_copy
 0008:C0263DF0       __ksymtab___iowrite32_copy
 0008:C0263DF8       __ksymtab_byte_rev_table
 0008:C0263E00       __ksymtab_fb_notifier_call_chain
 0008:C0263E08       __ksymtab_fb_destroy_modelist
 0008:C0263E10       __ksymtab_fb_mode_option
 0008:C0263E18       __ksymtab_secure_ipv4_port_ephemeral
 0008:C0263E20       __ksymtab_add_input_randomness
 0008:C0263E28       __ksymtab_get_current_tty
 0008:C0263E30       __ksymtab_tty_put_char
 0008:C0263E38       __ksymtab_tty_get_pgrp
 0008:C0263E40       __ksymtab_tty_init_termios
 0008:C0263E48       __ksymtab_tty_wakeup
 0008:C0263E50       __ksymtab_tty_perform_flush
 0008:C0263E58       __ksymtab_tty_mode_ioctl
 0008:C0263E60       __ksymtab_tty_encode_baud_rate
 0008:C0263E68       __ksymtab_tty_termios_encode_baud_rate
 0008:C0263E70       __ksymtab_tty_ldisc_flush
 0008:C0263E78       __ksymtab_tty_ldisc_deref
 0008:C0263E80       __ksymtab_tty_ldisc_ref
 0008:C0263E88       __ksymtab_tty_ldisc_ref_wait
 0008:C0263E90       __ksymtab_tty_prepare_flip_string_flags
 0008:C0263E98       __ksymtab_tty_prepare_flip_string
 0008:C0263EA0       __ksymtab_tty_buffer_request_room
 0008:C0263EA8       __ksymtab_unregister_keyboard_notifier
 0008:C0263EB0       __ksymtab_register_keyboard_notifier
 0008:C0263EB8       __ksymtab_kbd_table
 0008:C0263EC0       __ksymtab_k_handler
 0008:C0263EC8       __ksymtab_inverse_translate
 0008:C0263ED0       __ksymtab_screen_glyph
 0008:C0263ED8       __ksymtab_unregister_vt_notifier
 0008:C0263EE0       __ksymtab_register_vt_notifier
 0008:C0263EE8       __ksymtab_device_move
 0008:C0263EF0       __ksymtab_device_rename
 0008:C0263EF8       __ksymtab_device_destroy
 0008:C0263F00       __ksymtab_device_create
 0008:C0263F08       __ksymtab_device_create_vargs
 0008:C0263F10       __ksymtab_root_device_unregister
 0008:C0263F18       __ksymtab___root_device_register
 0008:C0263F20       __ksymtab_device_remove_file
 0008:C0263F28       __ksymtab_device_create_file
 0008:C0263F30       __ksymtab_put_device
 0008:C0263F38       __ksymtab_get_device
 0008:C0263F40       __ksymtab_device_unregister
 0008:C0263F48       __ksymtab_device_del
 0008:C0263F50       __ksymtab_device_register
 0008:C0263F58       __ksymtab_device_add
 0008:C0263F60       __ksymtab_device_initialize
 0008:C0263F68       __ksymtab_device_find_child
 0008:C0263F70       __ksymtab_device_for_each_child
 0008:C0263F78       __ksymtab_dev_set_name
 0008:C0263F80       __ksymtab_device_schedule_callback_owner
 0008:C0263F88       __ksymtab_device_remove_bin_file
 0008:C0263F90       __ksymtab_device_create_bin_file
 0008:C0263F98       __ksymtab_sysdev_show_int
 0008:C0263FA0       __ksymtab_sysdev_store_int
 0008:C0263FA8       __ksymtab_sysdev_show_ulong
 0008:C0263FB0       __ksymtab_sysdev_store_ulong
 0008:C0263FB8       __ksymtab_sysdev_unregister
 0008:C0263FC0       __ksymtab_sysdev_register
 0008:C0263FC8       __ksymtab_sysdev_resume
 0008:C0263FD0       __ksymtab_sysdev_suspend
 0008:C0263FD8       __ksymtab_sysdev_driver_unregister
 0008:C0263FE0       __ksymtab_sysdev_driver_register
 0008:C0263FE8       __ksymtab_sysdev_class_unregister
 0008:C0263FF0       __ksymtab_sysdev_class_register
 0008:C0263FF8       __ksymtab_sysdev_class_remove_file
 0008:C0264000       __ksymtab_sysdev_class_create_file
 0008:C0264008       __ksymtab_sysdev_remove_file
 0008:C0264010       __ksymtab_sysdev_create_file
 0008:C0264018       __ksymtab_bus_sort_breadthfirst
 0008:C0264020       __ksymtab_bus_get_device_klist
 0008:C0264028       __ksymtab_bus_get_kset
 0008:C0264030       __ksymtab_bus_unregister_notifier
 0008:C0264038       __ksymtab_bus_register_notifier
 0008:C0264040       __ksymtab_bus_unregister
 0008:C0264048       __ksymtab_bus_register
 0008:C0264050       __ksymtab_device_reprobe
 0008:C0264058       __ksymtab_bus_rescan_devices
 0008:C0264060       __ksymtab_bus_for_each_drv
 0008:C0264068       __ksymtab_bus_find_device_by_name
 0008:C0264070       __ksymtab_bus_find_device
 0008:C0264078       __ksymtab_bus_for_each_dev
 0008:C0264080       __ksymtab_bus_remove_file
 0008:C0264088       __ksymtab_bus_create_file
 0008:C0264090       __ksymtab_device_release_driver
 0008:C0264098       __ksymtab_driver_attach
 0008:C02640A0       __ksymtab_device_attach
 0008:C02640A8       __ksymtab_wait_for_device_probe
 0008:C02640B0       __ksymtab_device_bind_driver
 0008:C02640B8       __ksymtab_driver_find
 0008:C02640C0       __ksymtab_driver_unregister
 0008:C02640C8       __ksymtab_driver_register
 0008:C02640D0       __ksymtab_put_driver
 0008:C02640D8       __ksymtab_get_driver
 0008:C02640E0       __ksymtab_driver_add_kobj
 0008:C02640E8       __ksymtab_driver_remove_file
 0008:C02640F0       __ksymtab_driver_create_file
 0008:C02640F8       __ksymtab_driver_find_device
 0008:C0264100       __ksymtab_driver_for_each_device
 0008:C0264108       __ksymtab_class_interface_unregister
 0008:C0264110       __ksymtab_class_interface_register
 0008:C0264118       __ksymtab_class_destroy
 0008:C0264120       __ksymtab_class_unregister
 0008:C0264128       __ksymtab_class_remove_file
 0008:C0264130       __ksymtab_class_create_file
 0008:C0264138       __ksymtab_class_find_device
 0008:C0264140       __ksymtab_class_for_each_device
 0008:C0264148       __ksymtab_class_dev_iter_exit
 0008:C0264150       __ksymtab_class_dev_iter_next
 0008:C0264158       __ksymtab_class_dev_iter_init
 0008:C0264160       __ksymtab___class_create
 0008:C0264168       __ksymtab___class_register
 0008:C0264170       __ksymtab_dma_get_required_mask
 0008:C0264178       __ksymtab_platform_bus_type
 0008:C0264180       __ksymtab_platform_driver_probe
 0008:C0264188       __ksymtab_platform_driver_unregister
 0008:C0264190       __ksymtab_platform_driver_register
 0008:C0264198       __ksymtab_platform_device_register_simple
 0008:C02641A0       __ksymtab_platform_device_unregister
 0008:C02641A8       __ksymtab_platform_device_register
 0008:C02641B0       __ksymtab_platform_device_del
 0008:C02641B8       __ksymtab_platform_device_add
 0008:C02641C0       __ksymtab_platform_device_add_data
 0008:C02641C8       __ksymtab_platform_device_add_resources
 0008:C02641D0       __ksymtab_platform_device_alloc
 0008:C02641D8       __ksymtab_platform_device_put
 0008:C02641E0       __ksymtab_platform_add_devices
 0008:C02641E8       __ksymtab_platform_get_irq_byname
 0008:C02641F0       __ksymtab_platform_get_resource_byname
 0008:C02641F8       __ksymtab_platform_get_irq
 0008:C0264200       __ksymtab_platform_get_resource
 0008:C0264208       __ksymtab_platform_bus
 0008:C0264210       __ksymtab_get_cpu_sysdev
 0008:C0264218       __ksymtab_firmware_kobj
 0008:C0264220       __ksymtab_devm_kfree
 0008:C0264228       __ksymtab_devm_kzalloc
 0008:C0264230       __ksymtab_devres_release_group
 0008:C0264238       __ksymtab_devres_remove_group
 0008:C0264240       __ksymtab_devres_close_group
 0008:C0264248       __ksymtab_devres_open_group
 0008:C0264250       __ksymtab_devres_destroy
 0008:C0264258       __ksymtab_devres_remove
 0008:C0264260       __ksymtab_devres_get
 0008:C0264268       __ksymtab_devres_find
 0008:C0264270       __ksymtab_devres_add
 0008:C0264278       __ksymtab_devres_free
 0008:C0264280       __ksymtab_devres_alloc
 0008:C0264288       __ksymtab_attribute_container_find_class_device
 0008:C0264290       __ksymtab_attribute_container_unregister
 0008:C0264298       __ksymtab_attribute_container_register
 0008:C02642A0       __ksymtab_attribute_container_classdev_to_container
 0008:C02642A8       __ksymtab_transport_destroy_device
 0008:C02642B0       __ksymtab_transport_remove_device
 0008:C02642B8       __ksymtab_transport_configure_device
 0008:C02642C0       __ksymtab_transport_add_device
 0008:C02642C8       __ksymtab_transport_setup_device
 0008:C02642D0       __ksymtab_anon_transport_class_unregister
 0008:C02642D8       __ksymtab_anon_transport_class_register
 0008:C02642E0       __ksymtab_transport_class_unregister
 0008:C02642E8       __ksymtab_transport_class_register
 0008:C02642F0       __ksymtab___suspend_report_result
 0008:C02642F8       __ksymtab_dpm_suspend_start
 0008:C0264300       __ksymtab_dpm_suspend_noirq
 0008:C0264308       __ksymtab_dpm_resume_end
 0008:C0264310       __ksymtab_dpm_resume_noirq
 0008:C0264318       __ksymtab_default_mtd_writev
 0008:C0264320       __ksymtab_unregister_mtd_user
 0008:C0264328       __ksymtab_register_mtd_user
 0008:C0264330       __ksymtab_put_mtd_device
 0008:C0264338       __ksymtab_get_mtd_device_nm
 0008:C0264340       __ksymtab_get_mtd_device
 0008:C0264348       __ksymtab_del_mtd_device
 0008:C0264350       __ksymtab_add_mtd_device
 0008:C0264358       __ksymtab_mtd_table
 0008:C0264360       __ksymtab_mtd_table_mutex
 0008:C0264368       __ksymtab_kill_mtd_super
 0008:C0264370       __ksymtab_get_sb_mtd
 0008:C0264378       __ksymtab_parse_mtd_partitions
 0008:C0264380       __ksymtab_deregister_mtd_parser
 0008:C0264388       __ksymtab_register_mtd_parser
 0008:C0264390       __ksymtab_mtd_erase_callback
 0008:C0264398       __ksymtab_del_mtd_blktrans_dev
 0008:C02643A0       __ksymtab_add_mtd_blktrans_dev
 0008:C02643A8       __ksymtab_deregister_mtd_blktrans
 0008:C02643B0       __ksymtab_register_mtd_blktrans
 0008:C02643B8       __ksymtab_cfi_qry_mode_off
 0008:C02643C0       __ksymtab_cfi_qry_mode_on
 0008:C02643C8       __ksymtab_cfi_qry_present
 0008:C02643D0       __ksymtab_cfi_cmdset_0200
 0008:C02643D8       __ksymtab_cfi_cmdset_0003
 0008:C02643E0       __ksymtab_cfi_cmdset_0001
 0008:C02643E8       __ksymtab_input_class
 0008:C02643F0       __ksymtab_input_ff_effect_from_user
 0008:C02643F8       __ksymtab_input_event_to_user
 0008:C0264400       __ksymtab_input_event_from_user
 0008:C0264408       __ksymtab_input_ff_destroy
 0008:C0264410       __ksymtab_input_ff_create
 0008:C0264418       __ksymtab_input_ff_event
 0008:C0264420       __ksymtab_input_ff_erase
 0008:C0264428       __ksymtab_input_ff_upload
 0008:C0264430       __ksymtab___i2c_first_dynamic_bus_num
 0008:C0264438       __ksymtab___i2c_board_list
 0008:C0264440       __ksymtab___i2c_board_lock
 0008:C0264448       __ksymtab_i2c_new_probed_device
 0008:C0264450       __ksymtab_i2c_add_numbered_adapter
 0008:C0264458       __ksymtab_i2c_new_dummy
 0008:C0264460       __ksymtab_i2c_unregister_device
 0008:C0264468       __ksymtab_i2c_new_device
 0008:C0264470       __ksymtab_i2c_bus_type
 0008:C0264478       __ksymtab_sdio_unregister_driver
 0008:C0264480       __ksymtab_sdio_register_driver
 0008:C0264488       __ksymtab_sdio_f0_writeb
 0008:C0264490       __ksymtab_sdio_f0_readb
 0008:C0264498       __ksymtab_sdio_writel
 0008:C02644A0       __ksymtab_sdio_readl
 0008:C02644A8       __ksymtab_sdio_writew
 0008:C02644B0       __ksymtab_sdio_readw
 0008:C02644B8       __ksymtab_sdio_writesb
 0008:C02644C0       __ksymtab_sdio_readsb
 0008:C02644C8       __ksymtab_sdio_memcpy_toio
 0008:C02644D0       __ksymtab_sdio_memcpy_fromio
 0008:C02644D8       __ksymtab_sdio_writeb
 0008:C02644E0       __ksymtab_sdio_readb
 0008:C02644E8       __ksymtab_sdio_align_size
 0008:C02644F0       __ksymtab_sdio_set_block_size
 0008:C02644F8       __ksymtab_sdio_disable_func
 0008:C0264500       __ksymtab_sdio_enable_func
 0008:C0264508       __ksymtab_sdio_release_host
 0008:C0264510       __ksymtab_sdio_claim_host
 0008:C0264518       __ksymtab_sdio_release_irq
 0008:C0264520       __ksymtab_sdio_claim_irq
 0008:C0264528       __ksymtab_hid_check_keys_pressed
 0008:C0264530       __ksymtab_hid_unregister_driver
 0008:C0264538       __ksymtab___hid_register_driver
 0008:C0264540       __ksymtab_hid_destroy_device
 0008:C0264548       __ksymtab_hid_allocate_device
 0008:C0264550       __ksymtab_hid_add_device
 0008:C0264558       __ksymtab_hid_connect
 0008:C0264560       __ksymtab_hid_input_report
 0008:C0264568       __ksymtab_hid_report_raw_event
 0008:C0264570       __ksymtab_hid_set_field
 0008:C0264578       __ksymtab_hid_output_report
 0008:C0264580       __ksymtab_hid_parse_report
 0008:C0264588       __ksymtab_hid_debug
 0008:C0264590       __ksymtab_hidinput_disconnect
 0008:C0264598       __ksymtab_hidinput_connect
 0008:C02645A0       __ksymtab_hidinput_find_field
 0008:C02645A8       __ksymtab_hidinput_report_event
 0008:C02645B0       __ksymtab_hid_resolv_event
 0008:C02645B8       __ksymtab_hid_dump_input
 0008:C02645C0       __ksymtab_hid_dump_device
 0008:C02645C8       __ksymtab_hid_dump_field
 0008:C02645D0       __ksymtab_hid_resolv_usage
 0008:C02645D8       __ksymtab___sock_recv_timestamp
 0008:C02645E0       __ksymtab_sock_prot_inuse_get
 0008:C02645E8       __ksymtab_sock_prot_inuse_add
 0008:C02645F0       __ksymtab_sk_setup_caps
 0008:C02645F8       __ksymtab_sk_clone
 0008:C0264600       __ksymtab_skb_partial_csum_set
 0008:C0264608       __ksymtab_skb_tstamp_tx
 0008:C0264610       __ksymtab_skb_cow_data
 0008:C0264618       __ksymtab_skb_to_sgvec
 0008:C0264620       __ksymtab_skb_gro_receive
 0008:C0264628       __ksymtab_skb_segment
 0008:C0264630       __ksymtab_skb_pull_rcsum
 0008:C0264638       __ksymtab_skb_morph
 0008:C0264640       __ksymtab_net_assign_generic
 0008:C0264648       __ksymtab_unregister_pernet_gen_device
 0008:C0264650       __ksymtab_unregister_pernet_device
 0008:C0264658       __ksymtab_register_pernet_gen_device
 0008:C0264660       __ksymtab_register_pernet_device
 0008:C0264668       __ksymtab_unregister_pernet_gen_subsys
 0008:C0264670       __ksymtab_register_pernet_gen_subsys
 0008:C0264678       __ksymtab_unregister_pernet_subsys
 0008:C0264680       __ksymtab_register_pernet_subsys
 0008:C0264688       __ksymtab_net_namespace_list
 0008:C0264690       __ksymtab_init_dummy_netdev
 0008:C0264698       __ksymtab_call_netevent_notifiers
 0008:C02646A0       __ksymtab_unregister_netevent_notifier
 0008:C02646A8       __ksymtab_register_netevent_notifier
 0008:C02646B0       __ksymtab___pneigh_lookup
 0008:C02646B8       __ksymtab_rtnl_put_cacheinfo
 0008:C02646C0       __ksymtab_rtnl_link_unregister
 0008:C02646C8       __ksymtab___rtnl_link_unregister
 0008:C02646D0       __ksymtab_rtnl_kill_links
 0008:C02646D8       __ksymtab_rtnl_link_register
 0008:C02646E0       __ksymtab___rtnl_link_register
 0008:C02646E8       __ksymtab_rtnl_unregister_all
 0008:C02646F0       __ksymtab_rtnl_unregister
 0008:C02646F8       __ksymtab_rtnl_register
 0008:C0264700       __ksymtab___rtnl_register
 0008:C0264708       __ksymtab_netlink_has_listeners
 0008:C0264710       __ksymtab_ip_route_output_flow
 0008:C0264718       __ksymtab___ip_route_output_key
 0008:C0264720       __ksymtab_ip_build_and_send_pkt
 0008:C0264728       __ksymtab_ip_local_out
 0008:C0264730       __ksymtab_inet_hashinfo_init
 0008:C0264738       __ksymtab_inet_hash_connect
 0008:C0264740       __ksymtab_inet_unhash
 0008:C0264748       __ksymtab_inet_hash
 0008:C0264750       __ksymtab___inet_hash_nolisten
 0008:C0264758       __ksymtab___inet_lookup_established
 0008:C0264760       __ksymtab___inet_lookup_listener
 0008:C0264768       __ksymtab___inet_inherit_port
 0008:C0264770       __ksymtab_inet_twsk_purge
 0008:C0264778       __ksymtab_inet_twdr_twcal_tick
 0008:C0264780       __ksymtab_inet_twsk_schedule
 0008:C0264788       __ksymtab_inet_twdr_twkill_work
 0008:C0264790       __ksymtab_inet_twdr_hangman
 0008:C0264798       __ksymtab_inet_twsk_alloc
 0008:C02647A0       __ksymtab___inet_twsk_hashdance
 0008:C02647A8       __ksymtab_inet_twsk_put
 0008:C02647B0       __ksymtab_inet_csk_addr2sockaddr
 0008:C02647B8       __ksymtab_inet_csk_listen_stop
 0008:C02647C0       __ksymtab_inet_csk_listen_start
 0008:C02647C8       __ksymtab_inet_csk_clone
 0008:C02647D0       __ksymtab_inet_csk_reqsk_queue_prune
 0008:C02647D8       __ksymtab_inet_csk_reqsk_queue_hash_add
 0008:C02647E0       __ksymtab_inet_csk_search_req
 0008:C02647E8       __ksymtab_inet_csk_route_req
 0008:C02647F0       __ksymtab_inet_csk_get_port
 0008:C02647F8       __ksymtab_inet_csk_bind_conflict
 0008:C0264800       __ksymtab_tcp_done
 0008:C0264808       __ksymtab_tcp_get_info
 0008:C0264810       __ksymtab_tcp_set_state
 0008:C0264818       __ksymtab_tcp_orphan_count
 0008:C0264820       __ksymtab_tcp_twsk_unique
 0008:C0264828       __ksymtab_tcp_twsk_destructor
 0008:C0264830       __ksymtab_tcp_death_row
 0008:C0264838       __ksymtab_tcp_init_congestion_ops
 0008:C0264840       __ksymtab_tcp_reno_min_cwnd
 0008:C0264848       __ksymtab_tcp_reno_ssthresh
 0008:C0264850       __ksymtab_tcp_reno_cong_avoid
 0008:C0264858       __ksymtab_tcp_cong_avoid_ai
 0008:C0264860       __ksymtab_tcp_slow_start
 0008:C0264868       __ksymtab_tcp_is_cwnd_limited
 0008:C0264870       __ksymtab_tcp_unregister_congestion_control
 0008:C0264878       __ksymtab_tcp_register_congestion_control
 0008:C0264880       __ksymtab_raw_seq_open
 0008:C0264888       __ksymtab_raw_seq_stop
 0008:C0264890       __ksymtab_raw_seq_next
 0008:C0264898       __ksymtab_raw_seq_start
 0008:C02648A0       __ksymtab_raw_unhash_sk
 0008:C02648A8       __ksymtab_raw_hash_sk
 0008:C02648B0       __ksymtab_udp4_lib_lookup
 0008:C02648B8       __ksymtab_snmp_mib_free
 0008:C02648C0       __ksymtab_snmp_mib_init
 0008:C02648C8       __ksymtab_snmp_fold_field
 0008:C02648D0       __ksymtab_inet_ctl_sock_create
 0008:C02648D8       __ksymtab_net_ipv4_ctl_path
 0008:C02648E0       __ksymtab_xfrm_inner_extract_output
 0008:C02648E8       __ksymtab_xfrm_output
 0008:C02648F0       __ksymtab_xfrm_output_resume
 0008:C02648F8       __ksymtab_skb_icv_walk
 0008:C0264900       __ksymtab_xfrm_count_enc_supported
 0008:C0264908       __ksymtab_xfrm_count_auth_supported
 0008:C0264910       __ksymtab_xfrm_probe_algs
 0008:C0264918       __ksymtab_xfrm_ealg_get_byidx
 0008:C0264920       __ksymtab_xfrm_aalg_get_byidx
 0008:C0264928       __ksymtab_xfrm_aead_get_byname
 0008:C0264930       __ksymtab_xfrm_calg_get_byname
 0008:C0264938       __ksymtab_xfrm_ealg_get_byname
 0008:C0264940       __ksymtab_xfrm_aalg_get_byname
 0008:C0264948       __ksymtab_xfrm_calg_get_byid
 0008:C0264950       __ksymtab_xfrm_ealg_get_byid
 0008:C0264958       __ksymtab_xfrm_aalg_get_byid
 0008:C0264960       __ksymtab_rpc_call_null
 0008:C0264968       __ksymtab_rpc_restart_call
 0008:C0264970       __ksymtab_rpc_restart_call_prepare
 0008:C0264978       __ksymtab_rpc_force_rebind
 0008:C0264980       __ksymtab_rpc_max_payload
 0008:C0264988       __ksymtab_rpc_setbufsize
 0008:C0264990       __ksymtab_rpc_peeraddr2str
 0008:C0264998       __ksymtab_rpc_peeraddr
 0008:C02649A0       __ksymtab_rpc_call_start
 0008:C02649A8       __ksymtab_rpc_call_async
 0008:C02649B0       __ksymtab_rpc_call_sync
 0008:C02649B8       __ksymtab_rpc_run_task
 0008:C02649C0       __ksymtab_rpc_bind_new_program
 0008:C02649C8       __ksymtab_rpc_shutdown_client
 0008:C02649D0       __ksymtab_rpc_clone_client
 0008:C02649D8       __ksymtab_rpc_create
 0008:C02649E0       __ksymtab_xprt_complete_rqst
 0008:C02649E8       __ksymtab_xprt_update_rtt
 0008:C02649F0       __ksymtab_xprt_lookup_rqst
 0008:C02649F8       __ksymtab_xprt_disconnect_done
 0008:C0264A00       __ksymtab_xprt_set_retrans_timeout_rtt
 0008:C0264A08       __ksymtab_xprt_set_retrans_timeout_def
 0008:C0264A10       __ksymtab_xprt_write_space
 0008:C0264A18       __ksymtab_xprt_wait_for_buffer_space
 0008:C0264A20       __ksymtab_xprt_wake_pending_tasks
 0008:C0264A28       __ksymtab_xprt_adjust_cwnd
 0008:C0264A30       __ksymtab_xprt_release_rqst_cong
 0008:C0264A38       __ksymtab_xprt_release_xprt_cong
 0008:C0264A40       __ksymtab_xprt_release_xprt
 0008:C0264A48       __ksymtab_xprt_reserve_xprt_cong
 0008:C0264A50       __ksymtab_xprt_reserve_xprt
 0008:C0264A58       __ksymtab_xprt_load_transport
 0008:C0264A60       __ksymtab_xprt_unregister_transport
 0008:C0264A68       __ksymtab_xprt_register_transport
 0008:C0264A70       __ksymtab_csum_partial_copy_to_xdr
 0008:C0264A78       __ksymtab_xdr_partial_copy_from_skb
 0008:C0264A80       __ksymtab_xdr_skb_read_bits
 0008:C0264A88       __ksymtab_rpc_killall_tasks
 0008:C0264A90       __ksymtab_rpc_put_task
 0008:C0264A98       __ksymtab_rpc_free
 0008:C0264AA0       __ksymtab_rpc_malloc
 0008:C0264AA8       __ksymtab_rpc_exit_task
 0008:C0264AB0       __ksymtab_rpc_delay
 0008:C0264AB8       __ksymtab_rpc_wake_up_status
 0008:C0264AC0       __ksymtab_rpc_wake_up
 0008:C0264AC8       __ksymtab_rpc_wake_up_next
 0008:C0264AD0       __ksymtab_rpc_wake_up_queued_task
 0008:C0264AD8       __ksymtab_rpc_sleep_on
 0008:C0264AE0       __ksymtab___rpc_wait_for_completion_task
 0008:C0264AE8       __ksymtab_rpc_destroy_wait_queue
 0008:C0264AF0       __ksymtab_rpc_init_wait_queue
 0008:C0264AF8       __ksymtab_put_rpccred
 0008:C0264B00       __ksymtab_rpcauth_generic_bind_cred
 0008:C0264B08       __ksymtab_rpcauth_init_cred
 0008:C0264B10       __ksymtab_rpcauth_lookup_credcache
 0008:C0264B18       __ksymtab_rpcauth_destroy_credcache
 0008:C0264B20       __ksymtab_rpcauth_init_credcache
 0008:C0264B28       __ksymtab_rpcauth_create
 0008:C0264B30       __ksymtab_rpcauth_unregister
 0008:C0264B38       __ksymtab_rpcauth_register
 0008:C0264B40       __ksymtab_rpc_lookup_machine_cred
 0008:C0264B48       __ksymtab_rpc_lookup_cred
 0008:C0264B50       __ksymtab_svc_max_payload
 0008:C0264B58       __ksymtab_svc_process
 0008:C0264B60       __ksymtab_svc_exit_thread
 0008:C0264B68       __ksymtab_svc_set_num_threads
 0008:C0264B70       __ksymtab_svc_prepare_thread
 0008:C0264B78       __ksymtab_svc_destroy
 0008:C0264B80       __ksymtab_svc_create_pooled
 0008:C0264B88       __ksymtab_svc_create
 0008:C0264B90       __ksymtab_svc_sock_destroy
 0008:C0264B98       __ksymtab_svc_sock_create
 0008:C0264BA0       __ksymtab_svc_addsock
 0008:C0264BA8       __ksymtab_svc_sock_update_bufs
 0008:C0264BB0       __ksymtab_svc_sock_names
 0008:C0264BB8       __ksymtab_auth_domain_find
 0008:C0264BC0       __ksymtab_auth_domain_lookup
 0008:C0264BC8       __ksymtab_auth_domain_put
 0008:C0264BD0       __ksymtab_svc_auth_unregister
 0008:C0264BD8       __ksymtab_svc_auth_register
 0008:C0264BE0       __ksymtab_svc_set_client
 0008:C0264BE8       __ksymtab_svc_authenticate
 0008:C0264BF0       __ksymtab_svcauth_unix_set_client
 0008:C0264BF8       __ksymtab_svcauth_unix_purge
 0008:C0264C00       __ksymtab_auth_unix_lookup
 0008:C0264C08       __ksymtab_auth_unix_forget_old
 0008:C0264C10       __ksymtab_auth_unix_add_addr
 0008:C0264C18       __ksymtab_unix_domain_find
 0008:C0264C20       __ksymtab_rpcb_getport_async
 0008:C0264C28       __ksymtab_rpcb_getport_sync
 0008:C0264C30       __ksymtab_rpc_calc_rto
 0008:C0264C38       __ksymtab_rpc_update_rtt
 0008:C0264C40       __ksymtab_rpc_init_rtt
 0008:C0264C48       __ksymtab_xdr_process_buf
 0008:C0264C50       __ksymtab_xdr_encode_array2
 0008:C0264C58       __ksymtab_xdr_decode_array2
 0008:C0264C60       __ksymtab_xdr_buf_read_netobj
 0008:C0264C68       __ksymtab_xdr_encode_word
 0008:C0264C70       __ksymtab_xdr_decode_word
 0008:C0264C78       __ksymtab_read_bytes_from_xdr_buf
 0008:C0264C80       __ksymtab_xdr_buf_subsegment
 0008:C0264C88       __ksymtab_xdr_buf_from_iov
 0008:C0264C90       __ksymtab_xdr_enter_page
 0008:C0264C98       __ksymtab_xdr_read_pages
 0008:C0264CA0       __ksymtab_xdr_inline_decode
 0008:C0264CA8       __ksymtab_xdr_init_decode
 0008:C0264CB0       __ksymtab_xdr_write_pages
 0008:C0264CB8       __ksymtab_xdr_reserve_space
 0008:C0264CC0       __ksymtab_xdr_init_encode
 0008:C0264CC8       __ksymtab_xdr_shift_buf
 0008:C0264CD0       __ksymtab_xdr_inline_pages
 0008:C0264CD8       __ksymtab_xdr_encode_pages
 0008:C0264CE0       __ksymtab_xdr_decode_string_inplace
 0008:C0264CE8       __ksymtab_xdr_encode_string
 0008:C0264CF0       __ksymtab_xdr_encode_opaque
 0008:C0264CF8       __ksymtab_xdr_encode_opaque_fixed
 0008:C0264D00       __ksymtab_xdr_decode_netobj
 0008:C0264D08       __ksymtab_xdr_encode_netobj
 0008:C0264D10       __ksymtab_qword_get
 0008:C0264D18       __ksymtab_qword_addhex
 0008:C0264D20       __ksymtab_qword_add
 0008:C0264D28       __ksymtab_cache_purge
 0008:C0264D30       __ksymtab_cache_flush
 0008:C0264D38       __ksymtab_cache_unregister
 0008:C0264D40       __ksymtab_cache_register
 0008:C0264D48       __ksymtab_cache_check
 0008:C0264D50       __ksymtab_sunrpc_cache_update
 0008:C0264D58       __ksymtab_sunrpc_cache_lookup
 0008:C0264D60       __ksymtab_rpc_unlink
 0008:C0264D68       __ksymtab_rpc_mkpipe
 0008:C0264D70       __ksymtab_rpc_queue_upcall
 0008:C0264D78       __ksymtab_svc_xprt_names
 0008:C0264D80       __ksymtab_svc_find_xprt
 0008:C0264D88       __ksymtab_svc_close_xprt
 0008:C0264D90       __ksymtab_svc_drop
 0008:C0264D98       __ksymtab_svc_recv
 0008:C0264DA0       __ksymtab_svc_wake_up
 0008:C0264DA8       __ksymtab_svc_reserve
 0008:C0264DB0       __ksymtab_svc_xprt_received
 0008:C0264DB8       __ksymtab_svc_xprt_enqueue
 0008:C0264DC0       __ksymtab_svc_print_addr
 0008:C0264DC8       __ksymtab_svc_xprt_copy_addrs
 0008:C0264DD0       __ksymtab_svc_create_xprt
 0008:C0264DD8       __ksymtab_svc_xprt_init
 0008:C0264DE0       __ksymtab_svc_xprt_put
 0008:C0264DE8       __ksymtab_svc_unreg_xprt_class
 0008:C0264DF0       __ksymtab_svc_reg_xprt_class
 0008:C0264DF8       __ksymtab_svc_proc_unregister
 0008:C0264E00       __ksymtab_svc_proc_register
 0008:C0264E08       __ksymtab_rpc_proc_unregister
 0008:C0264E10       __ksymtab_rpc_proc_register
 0008:C0264E18       __ksymtab_rpc_print_iostats
 0008:C0264E20       __ksymtab_rpc_free_iostats
 0008:C0264E28       __ksymtab_rpc_alloc_iostats
 0008:C0264E30       __ksymtab_svc_seq_show
 0008:C0264E38       __ksymtab_nlm_debug
 0008:C0264E40       __ksymtab_nfsd_debug
 0008:C0264E48       __ksymtab_nfs_debug
 0008:C0264E50       __ksymtab_rpc_debug
 0008:C0264E58       __ksymtab_unregister_net_sysctl_table
 0008:C0264E60       __ksymtab_register_net_sysctl_rotable
 0008:C0264E68       __ksymtab_register_net_sysctl_table
 0008:C0264E70       __ksymtab_klist_next
 0008:C0264E78       __ksymtab_klist_iter_exit
 0008:C0264E80       __ksymtab_klist_iter_init
 0008:C0264E88       __ksymtab_klist_iter_init_node
 0008:C0264E90       __ksymtab_klist_node_attached
 0008:C0264E98       __ksymtab_klist_remove
 0008:C0264EA0       __ksymtab_klist_del
 0008:C0264EA8       __ksymtab_klist_add_before
 0008:C0264EB0       __ksymtab_klist_add_after
 0008:C0264EB8       __ksymtab_klist_add_tail
 0008:C0264EC0       __ksymtab_klist_add_head
 0008:C0264EC8       __ksymtab_klist_init
 0009:C0264ED0       __start___kcrctab
 0009:C0264EDA       __kstrtab_loops_per_jiffy
 0009:C0264EEA       __kstrtab_reset_devices
 0009:C0264EF8       __kstrtab_system_state
 0009:C0264F05       __kstrtab_init_uts_ns
 0009:C0264F11       __kstrtab_arm_elf_read_implies_exec
 0009:C0264F2B       __kstrtab_elf_set_personality
 0009:C0264F3F       __kstrtab_elf_check_arch
 0009:C0264F4E       __kstrtab_kernel_thread
 0009:C0264F5C       __kstrtab_dump_fpu
 0009:C0264F65       __kstrtab_thread_notify_head
 0009:C0264F78       __kstrtab_pm_idle
 0009:C0264F80       __kstrtab_arm_pm_restart
 0009:C0264F8F       __kstrtab_pm_power_off
 0009:C0264F9C       __kstrtab_enable_hlt
 0009:C0264FA7       __kstrtab_disable_hlt
 0009:C0264FB3       __kstrtab_elf_platform
 0009:C0264FC0       __kstrtab_elf_hwcap
 0009:C0264FCA       __kstrtab_system_serial_high
 0009:C0264FDD       __kstrtab_system_serial_low
 0009:C0264FEF       __kstrtab_system_rev
 0009:C0264FFA       __kstrtab_cacheid
 0009:C0265002       __kstrtab___machine_arch_type
 0009:C0265016       __kstrtab_processor_id
 0009:C0265023       __kstrtab_kernel_execve
 0009:C0265031       __kstrtab_walk_stackframe
 0009:C0265041       __kstrtab_restore_time_delta
 0009:C0265054       __kstrtab_save_time_delta
 0009:C0265064       __kstrtab_do_settimeofday
 0009:C0265074       __kstrtab_do_gettimeofday
 0009:C0265084       __kstrtab_abort
 0009:C026508A       __kstrtab___div0
 0009:C0265091       __kstrtab___readwrite_bug
 0009:C02650A1       __kstrtab___bug
 0009:C02650A7       __kstrtab___bad_xchg
 0009:C02650B2       __kstrtab_dump_stack
 0009:C02650BD       __kstrtab__find_next_bit_le
 0009:C02650CF       __kstrtab__find_first_bit_le
 0009:C02650E2       __kstrtab__find_next_zero_bit_le
 0009:C02650F9       __kstrtab__find_first_zero_bit_le
 0009:C0265111       __kstrtab__test_and_change_bit_le
 0009:C0265129       __kstrtab__change_bit_le
 0009:C0265138       __kstrtab__test_and_clear_bit_le
 0009:C026514F       __kstrtab__clear_bit_le
 0009:C026515D       __kstrtab__test_and_set_bit_le
 0009:C0265172       __kstrtab__set_bit_le
 0009:C026517E       __kstrtab___aeabi_ulcmp
 0009:C026518C       __kstrtab___aeabi_uidivmod
 0009:C026519D       __kstrtab___aeabi_uidiv
 0009:C02651AB       __kstrtab___aeabi_lmul
 0009:C02651B8       __kstrtab___aeabi_llsr
 0009:C02651C5       __kstrtab___aeabi_llsl
 0009:C02651D2       __kstrtab___aeabi_lasr
 0009:C02651DF       __kstrtab___aeabi_idivmod
 0009:C02651EF       __kstrtab___aeabi_idiv
 0009:C02651FC       __kstrtab___do_div64
 0009:C0265207       __kstrtab___umodsi3
 0009:C0265211       __kstrtab___udivsi3
 0009:C026521B       __kstrtab___ucmpdi2
 0009:C0265225       __kstrtab___muldi3
 0009:C026522E       __kstrtab___modsi3
 0009:C0265237       __kstrtab___lshrdi3
 0009:C0265241       __kstrtab___divsi3
 0009:C026524A       __kstrtab___ashrdi3
 0009:C0265254       __kstrtab___ashldi3
 0009:C026525E       __kstrtab_sha_transform
 0009:C026526C       __kstrtab___put_user_8
 0009:C0265279       __kstrtab___put_user_4
 0009:C0265286       __kstrtab___put_user_2
 0009:C0265293       __kstrtab___put_user_1
 0009:C02652A0       __kstrtab___get_user_4
 0009:C02652AD       __kstrtab___get_user_2
 0009:C02652BA       __kstrtab___get_user_1
 0009:C02652C7       __kstrtab___clear_user
 0009:C02652D4       __kstrtab___copy_to_user
 0009:C02652E3       __kstrtab___copy_from_user
 0009:C02652F4       __kstrtab_copy_page
 0009:C02652FE       __kstrtab___strncpy_from_user
 0009:C0265312       __kstrtab___strnlen_user
 0009:C0265321       __kstrtab___memzero
 0009:C026532B       __kstrtab_memchr
 0009:C0265332       __kstrtab_memmove
 0009:C026533A       __kstrtab_memcpy
 0009:C0265341       __kstrtab_memset
 0009:C0265348       __kstrtab_strrchr
 0009:C0265350       __kstrtab_strchr
 0009:C0265357       __kstrtab___raw_writesl
 0009:C0265365       __kstrtab___raw_writesw
 0009:C0265373       __kstrtab___raw_writesb
 0009:C0265381       __kstrtab___raw_readsl
 0009:C026538E       __kstrtab___raw_readsw
 0009:C026539B       __kstrtab___raw_readsb
 0009:C02653A8       __kstrtab___csum_ipv6_magic
 0009:C02653BA       __kstrtab_csum_partial_copy_nocheck
 0009:C02653D4       __kstrtab_csum_partial_copy_from_user
 0009:C02653F0       __kstrtab_csum_partial
 0009:C02653FD       __kstrtab___const_udelay
 0009:C026540C       __kstrtab___udelay
 0009:C0265415       __kstrtab___backtrace
 0009:C0265421       __kstrtab___aeabi_unwind_cpp_pr2
 0009:C0265438       __kstrtab___aeabi_unwind_cpp_pr1
 0009:C026544F       __kstrtab___aeabi_unwind_cpp_pr0
 0009:C0265466       __kstrtab__memset_io
 0009:C0265471       __kstrtab__memcpy_toio
 0009:C026547E       __kstrtab__memcpy_fromio
 0009:C026548D       __kstrtab_dma_sync_sg_for_device
 0009:C02654A4       __kstrtab_dma_sync_sg_for_cpu
 0009:C02654B8       __kstrtab_dma_unmap_sg
 0009:C02654C5       __kstrtab_dma_map_sg
 0009:C02654D0       __kstrtab_dma_cache_maint_page
 0009:C02654E5       __kstrtab_dma_cache_maint
 0009:C02654F5       __kstrtab_dma_free_coherent
 0009:C0265507       __kstrtab_dma_mmap_writecombine
 0009:C026551D       __kstrtab_dma_mmap_coherent
 0009:C026552F       __kstrtab_dma_alloc_writecombine
 0009:C0265546       __kstrtab_dma_alloc_coherent
 0009:C0265559       __kstrtab_ioport_unmap
 0009:C0265566       __kstrtab_ioport_map
 0009:C0265571       __kstrtab_flush_dcache_page
 0009:C0265583       __kstrtab___iounmap
 0009:C026558D       __kstrtab___arm_ioremap
 0009:C026559B       __kstrtab___arm_ioremap_pfn
 0009:C02655AD       __kstrtab_ioremap_page
 0009:C02655BA       __kstrtab_get_mem_type
 0009:C02655C7       __kstrtab_pgprot_kernel
 0009:C02655D5       __kstrtab_pgprot_user
 0009:C02655E1       __kstrtab_empty_zero_page
 0009:C02655F1       __kstrtab_cpu_user
 0009:C02655FA       __kstrtab_cpu_cache
 0009:C0265604       __kstrtab_cpu_v6_set_pte_ext
 0009:C0265617       __kstrtab_cpu_v6_dcache_clean_area
 0009:C0265630       __kstrtab_io_schedule
 0009:C026563C       __kstrtab_yield
 0009:C0265642       __kstrtab_cond_resched_softirq
 0009:C0265657       __kstrtab_cond_resched_lock
 0009:C0265669       __kstrtab__cond_resched
 0009:C0265677       __kstrtab_sched_setscheduler
 0009:C026568A       __kstrtab_task_nice
 0009:C0265694       __kstrtab_set_user_nice
 0009:C02656A2       __kstrtab_sleep_on_timeout
 0009:C02656B3       __kstrtab_sleep_on
 0009:C02656BC       __kstrtab_interruptible_sleep_on_timeout
 0009:C02656DB       __kstrtab_interruptible_sleep_on
 0009:C02656F2       __kstrtab_completion_done
 0009:C0265702       __kstrtab_try_wait_for_completion
 0009:C026571A       __kstrtab_wait_for_completion_killable
 0009:C0265737       __kstrtab_wait_for_completion_interruptible_timeout
 0009:C0265761       __kstrtab_wait_for_completion_interruptible
 0009:C0265783       __kstrtab_wait_for_completion_timeout
 0009:C026579F       __kstrtab_wait_for_completion
 0009:C02657B3       __kstrtab_complete_all
 0009:C02657C0       __kstrtab_complete
 0009:C02657C9       __kstrtab___wake_up_sync
 0009:C02657D8       __kstrtab___wake_up_sync_key
 0009:C02657EB       __kstrtab___wake_up
 0009:C02657F5       __kstrtab_default_wake_function
 0009:C026580B       __kstrtab_schedule
 0009:C0265814       __kstrtab_per_cpu__kstat
 0009:C0265823       __kstrtab_avenrun
 0009:C026582B       __kstrtab_wake_up_process
 0009:C026583B       __kstrtab_get_task_mm
 0009:C0265847       __kstrtab_mmput
 0009:C026584D       __kstrtab___mmdrop
 0009:C0265856       __kstrtab_free_task
 0009:C0265860       __kstrtab___set_personality
 0009:C0265872       __kstrtab_unregister_exec_domain
 0009:C0265889       __kstrtab_register_exec_domain
 0009:C026589E       __kstrtab_warn_slowpath_null
 0009:C02658B1       __kstrtab_warn_slowpath_fmt
 0009:C02658C3       __kstrtab_add_taint
 0009:C02658CD       __kstrtab_test_taint
 0009:C02658D8       __kstrtab_panic
 0009:C02658DE       __kstrtab_panic_blink
 0009:C02658EA       __kstrtab_panic_notifier_list
 0009:C02658FE       __kstrtab_printk_timed_ratelimit
 0009:C0265915       __kstrtab_printk_ratelimit
 0009:C0265926       __kstrtab_unregister_console
 0009:C0265939       __kstrtab_register_console
 0009:C026594A       __kstrtab_console_start
 0009:C0265958       __kstrtab_console_stop
 0009:C0265965       __kstrtab_console_print
 0009:C0265973       __kstrtab_console_conditional_schedule
 0009:C0265990       __kstrtab_release_console_sem
 0009:C02659A4       __kstrtab_try_acquire_console_sem
 0009:C02659BC       __kstrtab_acquire_console_sem
 0009:C02659D0       __kstrtab_console_suspend_enabled
 0009:C02659E8       __kstrtab_vprintk
 0009:C02659F0       __kstrtab_printk
 0009:C02659F7       __kstrtab_console_set_on_cmdline
 0009:C0265A0E       __kstrtab_console_drivers
 0009:C0265A1E       __kstrtab_oops_in_progress
 0009:C0265A2F       __kstrtab_cpu_active_mask
 0009:C0265A3F       __kstrtab_cpu_present_mask
 0009:C0265A50       __kstrtab_cpu_online_mask
 0009:C0265A60       __kstrtab_cpu_possible_mask
 0009:C0265A72       __kstrtab_cpu_all_bits
 0009:C0265A7F       __kstrtab_cpu_bit_bitmap
 0009:C0265A8E       __kstrtab_complete_and_exit
 0009:C0265AA0       __kstrtab_do_exit
 0009:C0265AA8       __kstrtab_daemonize
 0009:C0265AB2       __kstrtab_disallow_signal
 0009:C0265AC2       __kstrtab_allow_signal
 0009:C0265ACF       __kstrtab_jiffies
 0009:C0265AD7       __kstrtab_get_jiffies_64
 0009:C0265AE6       __kstrtab_jiffies_64_to_clock_t
 0009:C0265AFC       __kstrtab_clock_t_to_jiffies
 0009:C0265B0F       __kstrtab_jiffies_to_clock_t
 0009:C0265B22       __kstrtab_jiffies_to_timeval
 0009:C0265B35       __kstrtab_timeval_to_jiffies
 0009:C0265B48       __kstrtab_jiffies_to_timespec
 0009:C0265B5C       __kstrtab_timespec_to_jiffies
 0009:C0265B70       __kstrtab_usecs_to_jiffies
 0009:C0265B81       __kstrtab_msecs_to_jiffies
 0009:C0265B92       __kstrtab_ns_to_timeval
 0009:C0265BA0       __kstrtab_ns_to_timespec
 0009:C0265BAF       __kstrtab_set_normalized_timespec
 0009:C0265BC7       __kstrtab_mktime
 0009:C0265BCE       __kstrtab_getnstimeofday
 0009:C0265BDD       __kstrtab_timespec_trunc
 0009:C0265BEC       __kstrtab_jiffies_to_usecs
 0009:C0265BFD       __kstrtab_jiffies_to_msecs
 0009:C0265C0E       __kstrtab_current_fs_time
 0009:C0265C1E       __kstrtab_sys_tz
 0009:C0265C25       __kstrtab_send_remote_softirq
 0009:C0265C39       __kstrtab___send_remote_softirq
 0009:C0265C4F       __kstrtab_per_cpu__softirq_work_list
 0009:C0265C6A       __kstrtab_tasklet_hrtimer_init
 0009:C0265C7F       __kstrtab_tasklet_kill
 0009:C0265C8C       __kstrtab_tasklet_init
 0009:C0265C99       __kstrtab___tasklet_hi_schedule_first
 0009:C0265CB5       __kstrtab___tasklet_hi_schedule
 0009:C0265CCB       __kstrtab___tasklet_schedule
 0009:C0265CDE       __kstrtab_local_bh_enable_ip
 0009:C0265CF1       __kstrtab_local_bh_enable
 0009:C0265D01       __kstrtab__local_bh_enable
 0009:C0265D12       __kstrtab_local_bh_disable
 0009:C0265D23       __kstrtab_irq_stat
 0009:C0265D2C       __kstrtab___devm_release_region
 0009:C0265D42       __kstrtab___devm_request_region
 0009:C0265D58       __kstrtab___release_region
 0009:C0265D69       __kstrtab___check_region
 0009:C0265D78       __kstrtab___request_region
 0009:C0265D89       __kstrtab_adjust_resource
 0009:C0265D99       __kstrtab_allocate_resource
 0009:C0265DAB       __kstrtab_release_resource
 0009:C0265DBC       __kstrtab_request_resource
 0009:C0265DCD       __kstrtab_iomem_resource
 0009:C0265DDC       __kstrtab_ioport_resource
 0009:C0265DEC       __kstrtab_unregister_sysctl_table
 0009:C0265E04       __kstrtab_sysctl_data
 0009:C0265E10       __kstrtab_sysctl_string
 0009:C0265E1E       __kstrtab_sysctl_ms_jiffies
 0009:C0265E30       __kstrtab_sysctl_jiffies
 0009:C0265E3F       __kstrtab_sysctl_intvec
 0009:C0265E4D       __kstrtab_register_sysctl_paths
 0009:C0265E63       __kstrtab_register_sysctl_table
 0009:C0265E79       __kstrtab_proc_doulongvec_ms_jiffies_minmax
 0009:C0265E9B       __kstrtab_proc_doulongvec_minmax
 0009:C0265EB2       __kstrtab_proc_dostring
 0009:C0265EC0       __kstrtab_proc_dointvec_ms_jiffies
 0009:C0265ED9       __kstrtab_proc_dointvec_userhz_jiffies
 0009:C0265EF6       __kstrtab_proc_dointvec_minmax
 0009:C0265F0B       __kstrtab_proc_dointvec_jiffies
 0009:C0265F21       __kstrtab_proc_dointvec
 0009:C0265F2F       __kstrtab_capable
 0009:C0265F37       __kstrtab___cap_init_eff_set
 0009:C0265F4A       __kstrtab___cap_full_set
 0009:C0265F59       __kstrtab___cap_empty_set
 0009:C0265F69       __kstrtab_msleep_interruptible
 0009:C0265F7E       __kstrtab_msleep
 0009:C0265F85       __kstrtab_schedule_timeout_uninterruptible
 0009:C0265FA6       __kstrtab_schedule_timeout_killable
 0009:C0265FC0       __kstrtab_schedule_timeout_interruptible
 0009:C0265FDF       __kstrtab_schedule_timeout
 0009:C0265FF0       __kstrtab_del_timer
 0009:C0265FFA       __kstrtab_add_timer_on
 0009:C0266007       __kstrtab_add_timer
 0009:C0266011       __kstrtab_mod_timer_pinned
 0009:C0266022       __kstrtab_mod_timer
 0009:C026602C       __kstrtab_mod_timer_pending
 0009:C026603E       __kstrtab_init_timer_deferrable_key
 0009:C0266058       __kstrtab_init_timer_key
 0009:C0266067       __kstrtab_round_jiffies_up_relative
 0009:C0266081       __kstrtab_round_jiffies_up
 0009:C0266092       __kstrtab___round_jiffies_up_relative
 0009:C02660AE       __kstrtab___round_jiffies_up
 0009:C02660C1       __kstrtab_round_jiffies_relative
 0009:C02660D8       __kstrtab_round_jiffies
 0009:C02660E6       __kstrtab___round_jiffies_relative
 0009:C02660FF       __kstrtab___round_jiffies
 0009:C026610F       __kstrtab_boot_tvec_bases
 0009:C026611F       __kstrtab_jiffies_64
 0009:C026612A       __kstrtab_init_user_ns
 0009:C0266137       __kstrtab_unblock_all_signals
 0009:C026614B       __kstrtab_block_all_signals
 0009:C026615D       __kstrtab_sigprocmask
 0009:C0266169       __kstrtab_send_sig_info
 0009:C0266177       __kstrtab_send_sig
 0009:C0266180       __kstrtab_force_sig
 0009:C026618A       __kstrtab_flush_signals
 0009:C0266198       __kstrtab_dequeue_signal
 0009:C02661A7       __kstrtab_recalc_sigpending
 0009:C02661B9       __kstrtab_kill_pid
 0009:C02661C2       __kstrtab_kill_pgrp
 0009:C02661CC       __kstrtab_kill_pid_info_as_uid
 0009:C02661E1       __kstrtab___fatal_signal_pending
 0009:C02661F8       __kstrtab_orderly_poweroff
 0009:C0266209       __kstrtab_kernel_power_off
 0009:C026621A       __kstrtab_kernel_halt
 0009:C0266226       __kstrtab_kernel_restart
 0009:C0266235       __kstrtab_emergency_restart
 0009:C0266247       __kstrtab_cad_pid
 0009:C026624F       __kstrtab_fs_overflowgid
 0009:C026625E       __kstrtab_fs_overflowuid
 0009:C026626D       __kstrtab_overflowgid
 0009:C0266279       __kstrtab_overflowuid
 0009:C0266285       __kstrtab_call_usermodehelper_pipe
 0009:C026629E       __kstrtab_call_usermodehelper_exec
 0009:C02662B7       __kstrtab_call_usermodehelper_stdinpipe
 0009:C02662D5       __kstrtab_call_usermodehelper_setcleanup
 0009:C02662F4       __kstrtab_call_usermodehelper_setkeys
 0009:C0266310       __kstrtab_call_usermodehelper_setup
 0009:C026632A       __kstrtab_call_usermodehelper_freeinfo
 0009:C0266347       __kstrtab___request_module
 0009:C0266358       __kstrtab_destroy_workqueue
 0009:C026636A       __kstrtab___create_workqueue_key
 0009:C0266381       __kstrtab_execute_in_process_context
 0009:C026639C       __kstrtab_flush_scheduled_work
 0009:C02663B1       __kstrtab_schedule_delayed_work_on
 0009:C02663CA       __kstrtab_schedule_delayed_work
 0009:C02663E0       __kstrtab_schedule_work_on
 0009:C02663F1       __kstrtab_schedule_work
 0009:C02663FF       __kstrtab_cancel_delayed_work_sync
 0009:C0266418       __kstrtab_cancel_work_sync
 0009:C0266429       __kstrtab_flush_work
 0009:C0266434       __kstrtab_flush_workqueue
 0009:C0266444       __kstrtab_queue_delayed_work_on
 0009:C026645A       __kstrtab_queue_delayed_work
 0009:C026646D       __kstrtab_queue_work_on
 0009:C026647B       __kstrtab_queue_work
 0009:C0266486       __kstrtab_task_active_pid_ns
 0009:C0266499       __kstrtab_task_tgid_nr_ns
 0009:C02664A9       __kstrtab___task_pid_nr_ns
 0009:C02664BA       __kstrtab_pid_vnr
 0009:C02664C2       __kstrtab_find_get_pid
 0009:C02664CF       __kstrtab_pid_task
 0009:C02664D8       __kstrtab_find_vpid
 0009:C02664E2       __kstrtab_find_pid_ns
 0009:C02664EE       __kstrtab_put_pid
 0009:C02664F6       __kstrtab_is_container_init
 0009:C0266508       __kstrtab_init_pid_ns
 0009:C0266514       __kstrtab_rcu_barrier_sched
 0009:C0266526       __kstrtab_rcu_barrier_bh
 0009:C0266535       __kstrtab_rcu_barrier
 0009:C0266541       __kstrtab_synchronize_rcu
 0009:C0266551       __kstrtab_param_get_string
 0009:C0266562       __kstrtab_param_set_copystring
 0009:C0266577       __kstrtab_param_array_get
 0009:C0266587       __kstrtab_param_array_set
 0009:C0266597       __kstrtab_param_get_invbool
 0009:C02665A9       __kstrtab_param_set_invbool
 0009:C02665BB       __kstrtab_param_get_bool
 0009:C02665CA       __kstrtab_param_set_bool
 0009:C02665D9       __kstrtab_param_get_charp
 0009:C02665E9       __kstrtab_param_set_charp
 0009:C02665F9       __kstrtab_param_get_ulong
 0009:C0266609       __kstrtab_param_set_ulong
 0009:C0266619       __kstrtab_param_get_long
 0009:C0266628       __kstrtab_param_set_long
 0009:C0266637       __kstrtab_param_get_uint
 0009:C0266646       __kstrtab_param_set_uint
 0009:C0266655       __kstrtab_param_get_int
 0009:C0266663       __kstrtab_param_set_int
 0009:C0266671       __kstrtab_param_get_ushort
 0009:C0266682       __kstrtab_param_set_ushort
 0009:C0266693       __kstrtab_param_get_short
 0009:C02666A3       __kstrtab_param_set_short
 0009:C02666B3       __kstrtab_param_get_byte
 0009:C02666C2       __kstrtab_param_set_byte
 0009:C02666D1       __kstrtab_do_posix_clock_nonanosleep
 0009:C02666EC       __kstrtab_do_posix_clock_nosettime
 0009:C0266705       __kstrtab_register_posix_clock
 0009:C026671A       __kstrtab_posix_timer_event
 0009:C026672C       __kstrtab_kthread_stop
 0009:C0266739       __kstrtab_kthread_bind
 0009:C0266746       __kstrtab_kthread_create
 0009:C0266755       __kstrtab_kthread_should_stop
 0009:C0266769       __kstrtab_bit_waitqueue
 0009:C0266777       __kstrtab_wake_up_bit
 0009:C0266783       __kstrtab___wake_up_bit
 0009:C0266791       __kstrtab_out_of_line_wait_on_bit_lock
 0009:C02667AE       __kstrtab___wait_on_bit_lock
 0009:C02667C1       __kstrtab_out_of_line_wait_on_bit
 0009:C02667D9       __kstrtab___wait_on_bit
 0009:C02667E7       __kstrtab_wake_bit_function
 0009:C02667F9       __kstrtab_autoremove_wake_function
 0009:C0266812       __kstrtab_abort_exclusive_wait
 0009:C0266827       __kstrtab_finish_wait
 0009:C0266833       __kstrtab_prepare_to_wait_exclusive
 0009:C026684D       __kstrtab_prepare_to_wait
 0009:C026685D       __kstrtab_remove_wait_queue
 0009:C026686F       __kstrtab_add_wait_queue_exclusive
 0009:C0266888       __kstrtab_add_wait_queue
 0009:C0266897       __kstrtab___init_waitqueue_head
 0009:C02668AD       __kstrtab___kfifo_get
 0009:C02668B9       __kstrtab___kfifo_put
 0009:C02668C5       __kstrtab_kfifo_free
 0009:C02668D0       __kstrtab_kfifo_alloc
 0009:C02668DC       __kstrtab_kfifo_init
 0009:C02668E7       __kstrtab_atomic_dec_and_mutex_lock
 0009:C0266901       __kstrtab_mutex_trylock
 0009:C026690F       __kstrtab_mutex_lock_killable
 0009:C0266923       __kstrtab_mutex_lock_interruptible
 0009:C026693C       __kstrtab_mutex_unlock
 0009:C0266949       __kstrtab_mutex_lock
 0009:C0266954       __kstrtab___mutex_init
 0009:C0266961       __kstrtab_schedule_hrtimeout
 0009:C0266974       __kstrtab_schedule_hrtimeout_range
 0009:C026698D       __kstrtab_hrtimer_get_res
 0009:C026699D       __kstrtab_hrtimer_init
 0009:C02669AA       __kstrtab_hrtimer_get_remaining
 0009:C02669C0       __kstrtab_hrtimer_cancel
 0009:C02669CF       __kstrtab_hrtimer_try_to_cancel
 0009:C02669E5       __kstrtab_hrtimer_start
 0009:C02669F3       __kstrtab_hrtimer_start_range_ns
 0009:C0266A0A       __kstrtab_hrtimer_forward
 0009:C0266A1A       __kstrtab_ktime_add_safe
 0009:C0266A29       __kstrtab_ktime_sub_ns
 0009:C0266A36       __kstrtab_ktime_add_ns
 0009:C0266A43       __kstrtab_ktime_get_ts
 0009:C0266A50       __kstrtab_ktime_get_real
 0009:C0266A5F       __kstrtab_ktime_get
 0009:C0266A69       __kstrtab_downgrade_write
 0009:C0266A79       __kstrtab_up_write
 0009:C0266A82       __kstrtab_up_read
 0009:C0266A8A       __kstrtab_down_write_trylock
 0009:C0266A9D       __kstrtab_down_write
 0009:C0266AA8       __kstrtab_down_read_trylock
 0009:C0266ABA       __kstrtab_down_read
 0009:C0266AC4       __kstrtab_srcu_batches_completed
 0009:C0266ADB       __kstrtab_synchronize_srcu
 0009:C0266AEC       __kstrtab_srcu_read_unlock
 0009:C0266AFD       __kstrtab_srcu_read_lock
 0009:C0266B0C       __kstrtab_cleanup_srcu_struct
 0009:C0266B20       __kstrtab_init_srcu_struct
 0009:C0266B31       __kstrtab_up
 0009:C0266B34       __kstrtab_down_timeout
 0009:C0266B41       __kstrtab_down_trylock
 0009:C0266B4E       __kstrtab_down_killable
 0009:C0266B5C       __kstrtab_down_interruptible
 0009:C0266B6F       __kstrtab_down
 0009:C0266B74       __kstrtab_unregister_die_notifier
 0009:C0266B8C       __kstrtab_register_die_notifier
 0009:C0266BA2       __kstrtab_unregister_reboot_notifier
 0009:C0266BBD       __kstrtab_register_reboot_notifier
 0009:C0266BD6       __kstrtab_srcu_init_notifier_head
 0009:C0266BEE       __kstrtab_srcu_notifier_call_chain
 0009:C0266C07       __kstrtab___srcu_notifier_call_chain
 0009:C0266C22       __kstrtab_srcu_notifier_chain_unregister
 0009:C0266C41       __kstrtab_srcu_notifier_chain_register
 0009:C0266C5E       __kstrtab_raw_notifier_call_chain
 0009:C0266C76       __kstrtab___raw_notifier_call_chain
 0009:C0266C90       __kstrtab_raw_notifier_chain_unregister
 0009:C0266CAE       __kstrtab_raw_notifier_chain_register
 0009:C0266CCA       __kstrtab_blocking_notifier_call_chain
 0009:C0266CE7       __kstrtab___blocking_notifier_call_chain
 0009:C0266D06       __kstrtab_blocking_notifier_chain_unregister
 0009:C0266D29       __kstrtab_blocking_notifier_chain_cond_register
 0009:C0266D4F       __kstrtab_blocking_notifier_chain_register
 0009:C0266D70       __kstrtab_atomic_notifier_call_chain
 0009:C0266D8B       __kstrtab___atomic_notifier_call_chain
 0009:C0266DA8       __kstrtab_atomic_notifier_chain_unregister
 0009:C0266DC9       __kstrtab_atomic_notifier_chain_register
 0009:C0266DE8       __kstrtab_kernel_kobj
 0009:C0266DF4       __kstrtab_pm_qos_remove_notifier
 0009:C0266E0B       __kstrtab_pm_qos_add_notifier
 0009:C0266E1F       __kstrtab_pm_qos_remove_requirement
 0009:C0266E39       __kstrtab_pm_qos_update_requirement
 0009:C0266E53       __kstrtab_pm_qos_add_requirement
 0009:C0266E6A       __kstrtab_pm_qos_requirement
 0009:C0266E7D       __kstrtab_cpu_clock
 0009:C0266E87       __kstrtab_set_create_files_as
 0009:C0266E9B       __kstrtab_set_security_override_from_ctx
 0009:C0266EBA       __kstrtab_set_security_override
 0009:C0266ED0       __kstrtab_prepare_kernel_cred
 0009:C0266EE4       __kstrtab_revert_creds
 0009:C0266EF1       __kstrtab_override_creds
 0009:C0266F00       __kstrtab_abort_creds
 0009:C0266F0C       __kstrtab_commit_creds
 0009:C0266F19       __kstrtab_prepare_creds
 0009:C0266F27       __kstrtab___put_cred
 0009:C0266F32       __kstrtab_async_synchronize_cookie
 0009:C0266F4B       __kstrtab_async_synchronize_cookie_domain
 0009:C0266F6B       __kstrtab_async_synchronize_full_domain
 0009:C0266F89       __kstrtab_async_synchronize_full
 0009:C0266FA0       __kstrtab_async_schedule_domain
 0009:C0266FB6       __kstrtab_async_schedule
 0009:C0266FC5       __kstrtab_in_egroup_p
 0009:C0266FD1       __kstrtab_in_group_p
 0009:C0266FDC       __kstrtab_set_current_groups
 0009:C0266FEF       __kstrtab_set_groups
 0009:C0266FFA       __kstrtab_groups_free
 0009:C0267006       __kstrtab_groups_alloc
 0009:C0267013       __kstrtab_thaw_process
 0009:C0267020       __kstrtab_refrigerator
 0009:C026702D       __kstrtab_current_kernel_time
 0009:C0267041       __kstrtab_get_seconds
 0009:C026704D       __kstrtab_getrawmonotonic
 0009:C026705D       __kstrtab_clocksource_register
 0009:C0267072       __kstrtab_timecounter_cyc2time
 0009:C0267087       __kstrtab_timecounter_read
 0009:C0267098       __kstrtab_timecounter_init
 0009:C02670A9       __kstrtab___timecompare_update
 0009:C02670BE       __kstrtab_timecompare_offset
 0009:C02670D1       __kstrtab_timecompare_transform
 0009:C02670E7       __kstrtab_clockevents_notify
 0009:C02670FA       __kstrtab_clockevents_register_device
 0009:C0267116       __kstrtab_clockevent_delta2ns
 0009:C026712A       __kstrtab___rt_mutex_init
 0009:C026713A       __kstrtab_rt_mutex_destroy
 0009:C026714B       __kstrtab_rt_mutex_unlock
 0009:C026715B       __kstrtab_rt_mutex_trylock
 0009:C026716C       __kstrtab_rt_mutex_timed_lock
 0009:C0267180       __kstrtab_rt_mutex_lock_interruptible
 0009:C026719C       __kstrtab_rt_mutex_lock
 0009:C02671AA       __kstrtab_smp_call_function_single
 0009:C02671C3       __kstrtab___module_text_address
 0009:C02671D9       __kstrtab___module_address
 0009:C02671EA       __kstrtab___symbol_get
 0009:C02671F7       __kstrtab_module_put
 0009:C0267202       __kstrtab_symbol_put_addr
 0009:C0267212       __kstrtab___symbol_put
 0009:C026721F       __kstrtab_module_refcount
 0009:C026722F       __kstrtab_use_module
 0009:C026723A       __kstrtab_find_module
 0009:C0267246       __kstrtab_find_symbol
 0009:C0267252       __kstrtab_each_symbol
 0009:C026725E       __kstrtab___module_put_and_exit
 0009:C0267274       __kstrtab_unregister_module_notifier
 0009:C026728F       __kstrtab_register_module_notifier
 0009:C02672A8       __kstrtab_module_mutex
 0009:C02672B5       __kstrtab___print_symbol
 0009:C02672C4       __kstrtab_sprint_symbol
 0009:C02672D2       __kstrtab_kallsyms_on_each_symbol
 0009:C02672EA       __kstrtab_unregister_pm_notifier
 0009:C0267301       __kstrtab_register_pm_notifier
 0009:C0267316       __kstrtab_pm_flags
 0009:C026731F       __kstrtab_pm_set_vt_switch
 0009:C0267330       __kstrtab_pm_suspend
 0009:C026733B       __kstrtab_touch_all_softlockup_watchdogs
 0009:C026735A       __kstrtab_touch_softlockup_watchdog
 0009:C0267374       __kstrtab_kstat_irqs_cpu
 0009:C0267383       __kstrtab_nr_irqs
 0009:C026738B       __kstrtab_request_threaded_irq
 0009:C02673A0       __kstrtab_free_irq
 0009:C02673A9       __kstrtab_remove_irq
 0009:C02673B4       __kstrtab_setup_irq
 0009:C02673BE       __kstrtab_set_irq_wake
 0009:C02673CB       __kstrtab_enable_irq
 0009:C02673D6       __kstrtab_disable_irq
 0009:C02673E2       __kstrtab_disable_irq_nosync
 0009:C02673F5       __kstrtab_synchronize_irq
 0009:C0267405       __kstrtab___set_irq_handler
 0009:C0267417       __kstrtab_handle_level_irq
 0009:C0267428       __kstrtab_set_irq_chip_data
 0009:C026743A       __kstrtab_set_irq_data
 0009:C0267447       __kstrtab_set_irq_type
 0009:C0267454       __kstrtab_set_irq_chip
 0009:C0267461       __kstrtab_devm_free_irq
 0009:C026746F       __kstrtab_devm_request_threaded_irq
 0009:C0267489       __kstrtab_probe_irq_off
 0009:C0267497       __kstrtab_probe_irq_mask
 0009:C02674A6       __kstrtab_probe_irq_on
 0009:C02674B3       __kstrtab_resume_device_irqs
 0009:C02674C6       __kstrtab_suspend_device_irqs
 0009:C02674DA       __kstrtab_call_rcu_bh
 0009:C02674E6       __kstrtab_call_rcu
 0009:C02674EF       __kstrtab_rcu_batches_completed_bh
 0009:C0267508       __kstrtab_rcu_batches_completed
 0009:C026751E       __kstrtab_dma_release_from_coherent
 0009:C0267538       __kstrtab_dma_alloc_from_coherent
 0009:C0267550       __kstrtab_dma_mark_declared_memory_occupied
 0009:C0267572       __kstrtab_dma_release_declared_memory
 0009:C026758E       __kstrtab_dma_declare_coherent_memory
 0009:C02675AA       __kstrtab_try_to_release_page
 0009:C02675BE       __kstrtab_generic_file_aio_write
 0009:C02675D5       __kstrtab_generic_file_aio_write_nolock
 0009:C02675F3       __kstrtab_generic_file_buffered_write
 0009:C026760F       __kstrtab_grab_cache_page_write_begin
 0009:C026762B       __kstrtab_generic_file_direct_write
 0009:C0267645       __kstrtab_pagecache_write_end
 0009:C0267659       __kstrtab_pagecache_write_begin
 0009:C026766F       __kstrtab_generic_write_checks
 0009:C0267684       __kstrtab_iov_iter_single_seg_count
 0009:C026769E       __kstrtab_iov_iter_fault_in_readable
 0009:C02676B9       __kstrtab_iov_iter_advance
 0009:C02676CA       __kstrtab_iov_iter_copy_from_user
 0009:C02676E2       __kstrtab_iov_iter_copy_from_user_atomic
 0009:C0267701       __kstrtab_file_remove_suid
 0009:C0267712       __kstrtab_should_remove_suid
 0009:C0267725       __kstrtab_read_cache_page
 0009:C0267735       __kstrtab_read_cache_page_async
 0009:C026774B       __kstrtab_generic_file_readonly_mmap
 0009:C0267766       __kstrtab_generic_file_mmap
 0009:C0267778       __kstrtab_filemap_fault
 0009:C0267786       __kstrtab_generic_file_aio_read
 0009:C026779C       __kstrtab_generic_segment_checks
 0009:C02677B3       __kstrtab_grab_cache_page_nowait
 0009:C02677CA       __kstrtab_find_get_pages_tag
 0009:C02677DD       __kstrtab_find_get_pages_contig
 0009:C02677F3       __kstrtab_find_or_create_page
 0009:C0267807       __kstrtab_find_lock_page
 0009:C0267816       __kstrtab_find_get_page
 0009:C0267824       __kstrtab___lock_page_killable
 0009:C0267839       __kstrtab___lock_page
 0009:C0267845       __kstrtab_end_page_writeback
 0009:C0267858       __kstrtab_unlock_page
 0009:C0267864       __kstrtab_add_page_wait_queue
 0009:C0267878       __kstrtab_wait_on_page_bit
 0009:C0267889       __kstrtab_add_to_page_cache_lru
 0009:C026789F       __kstrtab_add_to_page_cache_locked
 0009:C02678B8       __kstrtab_filemap_write_and_wait_range
 0009:C02678D5       __kstrtab_filemap_write_and_wait
 0009:C02678EC       __kstrtab_filemap_fdatawait
 0009:C02678FE       __kstrtab_sync_page_range_nolock
 0009:C0267915       __kstrtab_sync_page_range
 0009:C0267925       __kstrtab_filemap_flush
 0009:C0267933       __kstrtab_filemap_fdatawrite_range
 0009:C026794C       __kstrtab_filemap_fdatawrite
 0009:C026795F       __kstrtab_mempool_free_pages
 0009:C0267972       __kstrtab_mempool_alloc_pages
 0009:C0267986       __kstrtab_mempool_kfree
 0009:C0267994       __kstrtab_mempool_kzalloc
 0009:C02679A4       __kstrtab_mempool_kmalloc
 0009:C02679B4       __kstrtab_mempool_free_slab
 0009:C02679C6       __kstrtab_mempool_alloc_slab
 0009:C02679D9       __kstrtab_mempool_free
 0009:C02679E6       __kstrtab_mempool_alloc
 0009:C02679F4       __kstrtab_mempool_destroy
 0009:C0267A04       __kstrtab_mempool_resize
 0009:C0267A13       __kstrtab_mempool_create_node
 0009:C0267A27       __kstrtab_mempool_create
 0009:C0267A36       __kstrtab_unregister_oom_notifier
 0009:C0267A4E       __kstrtab_register_oom_notifier
 0009:C0267A64       __kstrtab_probe_kernel_write
 0009:C0267A77       __kstrtab_probe_kernel_read
 0009:C0267A89       __kstrtab_contig_page_data
 0009:C0267A9A       __kstrtab_si_meminfo
 0009:C0267AA5       __kstrtab_nr_free_buffer_pages
 0009:C0267ABA       __kstrtab_free_pages_exact
 0009:C0267ACB       __kstrtab_alloc_pages_exact
 0009:C0267ADD       __kstrtab_free_pages
 0009:C0267AE8       __kstrtab___free_pages
 0009:C0267AF5       __kstrtab_get_zeroed_page
 0009:C0267B05       __kstrtab___get_free_pages
 0009:C0267B16       __kstrtab___alloc_pages_nodemask
 0009:C0267B2D       __kstrtab_totalram_pages
 0009:C0267B3C       __kstrtab_node_states
 0009:C0267B48       __kstrtab_mapping_tagged
 0009:C0267B57       __kstrtab_test_set_page_writeback
 0009:C0267B6F       __kstrtab_clear_page_dirty_for_io
 0009:C0267B87       __kstrtab_set_page_dirty_lock
 0009:C0267B9B       __kstrtab_set_page_dirty
 0009:C0267BAA       __kstrtab_redirty_page_for_writepage
 0009:C0267BC5       __kstrtab___set_page_dirty_nobuffers
 0009:C0267BE0       __kstrtab_write_one_page
 0009:C0267BEF       __kstrtab_generic_writepages
 0009:C0267C02       __kstrtab_write_cache_pages
 0009:C0267C14       __kstrtab_balance_dirty_pages_ratelimited_nr
 0009:C0267C37       __kstrtab_bdi_set_max_ratio
 0009:C0267C49       __kstrtab_bdi_writeout_inc
 0009:C0267C5A       __kstrtab_laptop_mode
 0009:C0267C66       __kstrtab_page_cache_async_readahead
 0009:C0267C81       __kstrtab_page_cache_sync_readahead
 0009:C0267C9B       __kstrtab_read_cache_pages
 0009:C0267CAC       __kstrtab_file_ra_state_init
 0009:C0267CBF       __kstrtab_pagevec_lookup_tag
 0009:C0267CD2       __kstrtab_pagevec_lookup
 0009:C0267CE1       __kstrtab_____pagevec_lru_add
 0009:C0267CF5       __kstrtab___pagevec_release
 0009:C0267D07       __kstrtab_mark_page_accessed
 0009:C0267D1A       __kstrtab_put_pages_list
 0009:C0267D29       __kstrtab_put_page
 0009:C0267D32       __kstrtab_invalidate_inode_pages2
 0009:C0267D4A       __kstrtab_invalidate_inode_pages2_range
 0009:C0267D68       __kstrtab_invalidate_mapping_pages
 0009:C0267D81       __kstrtab_truncate_inode_pages
 0009:C0267D96       __kstrtab_truncate_inode_pages_range
 0009:C0267DB1       __kstrtab_cancel_dirty_page
 0009:C0267DC3       __kstrtab_unregister_shrinker
 0009:C0267DD7       __kstrtab_register_shrinker
 0009:C0267DE9       __kstrtab_shmem_file_setup
 0009:C0267DFA       __kstrtab_get_user_pages_fast
 0009:C0267E0E       __kstrtab_strndup_user
 0009:C0267E1B       __kstrtab_kzfree
 0009:C0267E22       __kstrtab_krealloc
 0009:C0267E2B       __kstrtab___krealloc
 0009:C0267E36       __kstrtab_memdup_user
 0009:C0267E42       __kstrtab_kmemdup
 0009:C0267E4A       __kstrtab_kstrndup
 0009:C0267E53       __kstrtab_kstrdup
 0009:C0267E5B       __kstrtab_vm_stat
 0009:C0267E63       __kstrtab_all_vm_events
 0009:C0267E71       __kstrtab_per_cpu__vm_event_states
 0009:C0267E8A       __kstrtab_congestion_wait
 0009:C0267E9A       __kstrtab_set_bdi_congested
 0009:C0267EAC       __kstrtab_clear_bdi_congested
 0009:C0267EC0       __kstrtab_bdi_destroy
 0009:C0267ECC       __kstrtab_bdi_init
 0009:C0267ED5       __kstrtab_bdi_unregister
 0009:C0267EE4       __kstrtab_bdi_register_dev
 0009:C0267EF5       __kstrtab_bdi_register
 0009:C0267F02       __kstrtab_default_backing_dev_info
 0009:C0267F1B       __kstrtab_default_unplug_io_fn
 0009:C0267F30       __kstrtab_mm_kobj
 0009:C0267F38       __kstrtab_follow_pfn
 0009:C0267F43       __kstrtab_vmtruncate
 0009:C0267F4E       __kstrtab_unmap_mapping_range
 0009:C0267F62       __kstrtab_apply_to_page_range
 0009:C0267F76       __kstrtab_remap_pfn_range
 0009:C0267F86       __kstrtab_vm_insert_mixed
 0009:C0267F96       __kstrtab_vm_insert_pfn
 0009:C0267FA4       __kstrtab_vm_insert_page
 0009:C0267FB3       __kstrtab_get_user_pages
 0009:C0267FC2       __kstrtab_zap_vma_ptes
 0009:C0267FCF       __kstrtab_high_memory
 0009:C0267FDB       __kstrtab_num_physpages
 0009:C0267FE9       __kstrtab_mem_map
 0009:C0267FF1       __kstrtab_max_mapnr
 0009:C0267FFB       __kstrtab_can_do_mlock
 0009:C0268008       __kstrtab_do_brk
 0009:C026800F       __kstrtab_do_munmap
 0009:C0268019       __kstrtab_find_vma
 0009:C0268022       __kstrtab_get_unmapped_area
 0009:C0268034       __kstrtab_do_mmap_pgoff
 0009:C0268042       __kstrtab_vm_get_page_prot
 0009:C0268053       __kstrtab_page_mkclean
 0009:C0268060       __kstrtab_free_vm_area
 0009:C026806D       __kstrtab_alloc_vm_area
 0009:C026807B       __kstrtab_remap_vmalloc_range
 0009:C026808F       __kstrtab_vmalloc_32_user
 0009:C026809F       __kstrtab_vmalloc_32
 0009:C02680AA       __kstrtab_vmalloc_node
 0009:C02680B7       __kstrtab_vmalloc_user
 0009:C02680C4       __kstrtab_vmalloc
 0009:C02680CC       __kstrtab___vmalloc
 0009:C02680D6       __kstrtab_vmap
 0009:C02680DB       __kstrtab_vunmap
 0009:C02680E2       __kstrtab_vfree
 0009:C02680E8       __kstrtab___get_vm_area
 0009:C02680F6       __kstrtab_map_vm_area
 0009:C0268102       __kstrtab_vm_map_ram
 0009:C026810D       __kstrtab_vm_unmap_ram
 0009:C026811A       __kstrtab_vm_unmap_aliases
 0009:C026812B       __kstrtab_vmalloc_to_pfn
 0009:C026813A       __kstrtab_vmalloc_to_page
 0009:C026814A       __kstrtab_dmam_pool_destroy
 0009:C026815C       __kstrtab_dmam_pool_create
 0009:C026816D       __kstrtab_dma_pool_free
 0009:C026817B       __kstrtab_dma_pool_alloc
 0009:C026818A       __kstrtab_dma_pool_destroy
 0009:C026819B       __kstrtab_dma_pool_create
 0009:C02681AB       __kstrtab_ksize
 0009:C02681B1       __kstrtab_kmem_cache_name
 0009:C02681C1       __kstrtab_kmem_cache_size
 0009:C02681D1       __kstrtab_kfree
 0009:C02681D7       __kstrtab_kmem_cache_free
 0009:C02681E7       __kstrtab___kmalloc
 0009:C02681F1       __kstrtab_kmem_cache_alloc
 0009:C0268202       __kstrtab_kmem_cache_destroy
 0009:C0268215       __kstrtab_kmem_cache_shrink
 0009:C0268227       __kstrtab_kmem_cache_create
 0009:C0268239       __kstrtab_malloc_sizes
 0009:C0268246       __kstrtab_nonseekable_open
 0009:C0268257       __kstrtab_generic_file_open
 0009:C0268269       __kstrtab_sys_close
 0009:C0268273       __kstrtab_filp_close
 0009:C026827E       __kstrtab_fd_install
 0009:C0268289       __kstrtab_put_unused_fd
 0009:C0268297       __kstrtab_dentry_open
 0009:C02682A3       __kstrtab_lookup_instantiate_filp
 0009:C02682BB       __kstrtab_vfs_statfs
 0009:C02682C6       __kstrtab_vfs_writev
 0009:C02682D1       __kstrtab_vfs_readv
 0009:C02682DB       __kstrtab_iov_shorten
 0009:C02682E7       __kstrtab_vfs_write
 0009:C02682F1       __kstrtab_do_sync_write
 0009:C02682FF       __kstrtab_vfs_read
 0009:C0268308       __kstrtab_do_sync_read
 0009:C0268315       __kstrtab_vfs_llseek
 0009:C0268320       __kstrtab_default_llseek
 0009:C026832F       __kstrtab_no_llseek
 0009:C0268339       __kstrtab_generic_file_llseek
 0009:C026834D       __kstrtab_generic_file_llseek_unlocked
 0009:C026836A       __kstrtab_generic_ro_fops
 0009:C026837A       __kstrtab_fget
 0009:C026837F       __kstrtab_drop_file_write_access
 0009:C0268396       __kstrtab_fput
 0009:C026839B       __kstrtab_init_file
 0009:C02683A5       __kstrtab_alloc_file
 0009:C02683B0       __kstrtab_get_empty_filp
 0009:C02683BF       __kstrtab_get_max_files
 0009:C02683CD       __kstrtab_kern_mount_data
 0009:C02683DD       __kstrtab_do_kern_mount
 0009:C02683EB       __kstrtab_vfs_kern_mount
 0009:C02683FA       __kstrtab_get_sb_single
 0009:C0268408       __kstrtab_get_sb_nodev
 0009:C0268415       __kstrtab_kill_block_super
 0009:C0268426       __kstrtab_get_sb_bdev
 0009:C0268432       __kstrtab_get_sb_ns
 0009:C026843C       __kstrtab_kill_litter_super
 0009:C026844E       __kstrtab_kill_anon_super
 0009:C026845E       __kstrtab_set_anon_super
 0009:C026846D       __kstrtab_get_super
 0009:C0268477       __kstrtab_drop_super
 0009:C0268482       __kstrtab_sget
 0009:C0268487       __kstrtab_generic_shutdown_super
 0009:C026849E       __kstrtab_unlock_super
 0009:C02684AB       __kstrtab_lock_super
 0009:C02684B6       __kstrtab_deactivate_locked_super
 0009:C02684CE       __kstrtab_deactivate_super
 0009:C02684DF       __kstrtab_directly_mappable_cdev_bdi
 0009:C02684FA       __kstrtab_unregister_chrdev
 0009:C026850C       __kstrtab_register_chrdev
 0009:C026851C       __kstrtab_cdev_index
 0009:C0268527       __kstrtab_cdev_add
 0009:C0268530       __kstrtab_cdev_del
 0009:C0268539       __kstrtab_cdev_alloc
 0009:C0268544       __kstrtab_cdev_init
 0009:C026854E       __kstrtab_alloc_chrdev_region
 0009:C0268562       __kstrtab_unregister_chrdev_region
 0009:C026857B       __kstrtab_register_chrdev_region
 0009:C0268592       __kstrtab_inode_set_bytes
 0009:C02685A2       __kstrtab_inode_get_bytes
 0009:C02685B2       __kstrtab_inode_sub_bytes
 0009:C02685C2       __kstrtab_inode_add_bytes
 0009:C02685D2       __kstrtab_vfs_lstat
 0009:C02685DC       __kstrtab_vfs_stat
 0009:C02685E5       __kstrtab_vfs_fstatat
 0009:C02685F1       __kstrtab_vfs_fstat
 0009:C02685FB       __kstrtab_vfs_getattr
 0009:C0268607       __kstrtab_generic_fillattr
 0009:C0268618       __kstrtab_set_binfmt
 0009:C0268623       __kstrtab_search_binary_handler
 0009:C0268639       __kstrtab_remove_arg_zero
 0009:C0268649       __kstrtab_prepare_binprm
 0009:C0268658       __kstrtab_install_exec_creds
 0009:C026866B       __kstrtab_flush_old_exec
 0009:C026867A       __kstrtab_kernel_read
 0009:C0268686       __kstrtab_open_exec
 0009:C0268690       __kstrtab_setup_arg_pages
 0009:C02686A0       __kstrtab_copy_strings_kernel
 0009:C02686B4       __kstrtab_unregister_binfmt
 0009:C02686C6       __kstrtab___register_binfmt
 0009:C02686D8       __kstrtab_pipe_unlock
 0009:C02686E4       __kstrtab_pipe_lock
 0009:C02686EE       __kstrtab_generic_readlink
 0009:C02686FF       __kstrtab_dentry_unhash
 0009:C026870D       __kstrtab_vfs_unlink
 0009:C0268718       __kstrtab_vfs_symlink
 0009:C0268724       __kstrtab_vfs_rmdir
 0009:C026872E       __kstrtab_vfs_rename
 0009:C0268739       __kstrtab_vfs_readlink
 0009:C0268746       __kstrtab_generic_permission
 0009:C0268759       __kstrtab_vfs_mknod
 0009:C0268763       __kstrtab_vfs_mkdir
 0009:C026876D       __kstrtab_vfs_link
 0009:C0268776       __kstrtab_vfs_follow_link
 0009:C0268786       __kstrtab_vfs_create
 0009:C0268791       __kstrtab_unlock_rename
 0009:C026879F       __kstrtab_file_permission
 0009:C02687AF       __kstrtab_inode_permission
 0009:C02687C0       __kstrtab_vfs_path_lookup
 0009:C02687D0       __kstrtab_kern_path
 0009:C02687DA       __kstrtab_path_lookup
 0009:C02687E6       __kstrtab_page_symlink_inode_operations
 0009:C0268804       __kstrtab_page_symlink
 0009:C0268811       __kstrtab___page_symlink
 0009:C0268820       __kstrtab_page_readlink
 0009:C026882E       __kstrtab_page_put_link
 0009:C026883C       __kstrtab_page_follow_link_light
 0009:C0268853       __kstrtab_lookup_one_len
 0009:C0268862       __kstrtab_lock_rename
 0009:C026886E       __kstrtab_getname
 0009:C0268876       __kstrtab_get_write_access
 0009:C0268887       __kstrtab_follow_up
 0009:C0268891       __kstrtab_follow_down
 0009:C026889D       __kstrtab_user_path_at
 0009:C02688AA       __kstrtab_lookup_create
 0009:C02688B8       __kstrtab_filp_open
 0009:C02688C2       __kstrtab_path_put
 0009:C02688CB       __kstrtab_path_get
 0009:C02688D4       __kstrtab_kill_fasync
 0009:C02688E0       __kstrtab___kill_fasync
 0009:C02688EE       __kstrtab_fasync_helper
 0009:C02688FC       __kstrtab_f_setown
 0009:C0268905       __kstrtab___f_setown
 0009:C0268910       __kstrtab_generic_block_fiemap
 0009:C0268925       __kstrtab___generic_block_fiemap
 0009:C026893C       __kstrtab_fiemap_check_flags
 0009:C026894F       __kstrtab_fiemap_fill_next_extent
 0009:C0268967       __kstrtab_vfs_readdir
 0009:C0268973       __kstrtab_poll_schedule_timeout
 0009:C0268989       __kstrtab_poll_freewait
 0009:C0268997       __kstrtab_poll_initwait
 0009:C02689A5       __kstrtab_shrink_dcache_sb
 0009:C02689B6       __kstrtab_shrink_dcache_parent
 0009:C02689CB       __kstrtab_names_cachep
 0009:C02689D8       __kstrtab_have_submounts
 0009:C02689E7       __kstrtab_find_inode_number
 0009:C02689F9       __kstrtab_dput
 0009:C02689FE       __kstrtab_dget_locked
 0009:C0268A0A       __kstrtab_d_validate
 0009:C0268A15       __kstrtab_d_add_ci
 0009:C0268A1E       __kstrtab_d_splice_alias
 0009:C0268A2D       __kstrtab_d_rehash
 0009:C0268A36       __kstrtab_d_prune_aliases
 0009:C0268A46       __kstrtab_d_path
 0009:C0268A4D       __kstrtab_d_materialise_unique
 0009:C0268A62       __kstrtab_d_move
 0009:C0268A69       __kstrtab_d_lookup
 0009:C0268A72       __kstrtab_d_invalidate
 0009:C0268A7F       __kstrtab_d_instantiate
 0009:C0268A8D       __kstrtab_d_find_alias
 0009:C0268A9A       __kstrtab_d_delete
 0009:C0268AA3       __kstrtab_d_alloc_root
 0009:C0268AB0       __kstrtab_d_alloc
 0009:C0268AB8       __kstrtab_d_genocide
 0009:C0268AC3       __kstrtab_d_obtain_alias
 0009:C0268AD2       __kstrtab_d_instantiate_unique
 0009:C0268AE7       __kstrtab_dcache_lock
 0009:C0268AF3       __kstrtab_sysctl_vfs_cache_pressure
 0009:C0268B0D       __kstrtab_init_special_inode
 0009:C0268B20       __kstrtab_inode_wait
 0009:C0268B2B       __kstrtab_inode_needs_sync
 0009:C0268B3C       __kstrtab_file_update_time
 0009:C0268B4D       __kstrtab_touch_atime
 0009:C0268B59       __kstrtab_bmap
 0009:C0268B5E       __kstrtab_iput
 0009:C0268B63       __kstrtab_generic_drop_inode
 0009:C0268B76       __kstrtab_generic_delete_inode
 0009:C0268B8B       __kstrtab_remove_inode_hash
 0009:C0268B9D       __kstrtab___insert_inode_hash
 0009:C0268BB1       __kstrtab_insert_inode_locked4
 0009:C0268BC6       __kstrtab_insert_inode_locked
 0009:C0268BDA       __kstrtab_iget_locked
 0009:C0268BE6       __kstrtab_iget5_locked
 0009:C0268BF3       __kstrtab_ilookup
 0009:C0268BFB       __kstrtab_ilookup5
 0009:C0268C04       __kstrtab_ilookup5_nowait
 0009:C0268C14       __kstrtab_igrab
 0009:C0268C1A       __kstrtab_iunique
 0009:C0268C22       __kstrtab_unlock_new_inode
 0009:C0268C33       __kstrtab_new_inode
 0009:C0268C3D       __kstrtab_inode_add_to_lists
 0009:C0268C50       __kstrtab_invalidate_inodes
 0009:C0268C62       __kstrtab_clear_inode
 0009:C0268C6E       __kstrtab_inode_init_once
 0009:C0268C7E       __kstrtab___destroy_inode
 0009:C0268C8E       __kstrtab_inode_init_always
 0009:C0268CA0       __kstrtab_notify_change
 0009:C0268CAE       __kstrtab_inode_setattr
 0009:C0268CBC       __kstrtab_inode_change_ok
 0009:C0268CCC       __kstrtab_iget_failed
 0009:C0268CD8       __kstrtab_is_bad_inode
 0009:C0268CE5       __kstrtab_make_bad_inode
 0009:C0268CF4       __kstrtab_get_unused_fd
 0009:C0268D02       __kstrtab_get_fs_type
 0009:C0268D0E       __kstrtab_unregister_filesystem
 0009:C0268D24       __kstrtab_register_filesystem
 0009:C0268D38       __kstrtab_put_mnt_ns
 0009:C0268D43       __kstrtab_create_mnt_ns
 0009:C0268D51       __kstrtab_mark_mounts_for_expiry
 0009:C0268D68       __kstrtab_do_add_mount
 0009:C0268D75       __kstrtab_may_umount
 0009:C0268D80       __kstrtab_may_umount_tree
 0009:C0268D90       __kstrtab_replace_mount_options
 0009:C0268DA6       __kstrtab_save_mount_options
 0009:C0268DB9       __kstrtab_generic_show_options
 0009:C0268DCE       __kstrtab_mnt_unpin
 0009:C0268DD8       __kstrtab_mnt_pin
 0009:C0268DE0       __kstrtab_mntput_no_expire
 0009:C0268DF1       __kstrtab_simple_set_mnt
 0009:C0268E00       __kstrtab_mnt_drop_write
 0009:C0268E0F       __kstrtab_mnt_want_write_file
 0009:C0268E23       __kstrtab_mnt_clone_write
 0009:C0268E33       __kstrtab_mnt_want_write
 0009:C0268E42       __kstrtab___mnt_is_readonly
 0009:C0268E54       __kstrtab_fs_kobj
 0009:C0268E5C       __kstrtab_seq_list_next
 0009:C0268E6A       __kstrtab_seq_list_start_head
 0009:C0268E7E       __kstrtab_seq_list_start
 0009:C0268E8D       __kstrtab_seq_write
 0009:C0268E97       __kstrtab_seq_puts
 0009:C0268EA0       __kstrtab_seq_putc
 0009:C0268EA9       __kstrtab_seq_open_private
 0009:C0268EBA       __kstrtab___seq_open_private
 0009:C0268ECD       __kstrtab_seq_release_private
 0009:C0268EE1       __kstrtab_single_release
 0009:C0268EF0       __kstrtab_single_open
 0009:C0268EFC       __kstrtab_seq_bitmap_list
 0009:C0268F0C       __kstrtab_seq_bitmap
 0009:C0268F17       __kstrtab_seq_path
 0009:C0268F20       __kstrtab_mangle_path
 0009:C0268F2C       __kstrtab_seq_printf
 0009:C0268F37       __kstrtab_seq_escape
 0009:C0268F42       __kstrtab_seq_release
 0009:C0268F4E       __kstrtab_seq_lseek
 0009:C0268F58       __kstrtab_seq_read
 0009:C0268F61       __kstrtab_seq_open
 0009:C0268F6A       __kstrtab_generic_removexattr
 0009:C0268F7E       __kstrtab_generic_setxattr
 0009:C0268F8F       __kstrtab_generic_listxattr
 0009:C0268FA1       __kstrtab_generic_getxattr
 0009:C0268FB2       __kstrtab_vfs_removexattr
 0009:C0268FC2       __kstrtab_vfs_listxattr
 0009:C0268FD0       __kstrtab_vfs_getxattr
 0009:C0268FDD       __kstrtab_xattr_getsecurity
 0009:C0268FEF       __kstrtab_vfs_setxattr
 0009:C0268FFC       __kstrtab_simple_attr_write
 0009:C026900E       __kstrtab_simple_attr_read
 0009:C026901F       __kstrtab_simple_attr_release
 0009:C0269033       __kstrtab_simple_attr_open
 0009:C0269044       __kstrtab_simple_transaction_release
 0009:C026905F       __kstrtab_simple_transaction_read
 0009:C0269077       __kstrtab_simple_transaction_get
 0009:C026908E       __kstrtab_simple_transaction_set
 0009:C02690A5       __kstrtab_memory_read_from_buffer
 0009:C02690BD       __kstrtab_simple_read_from_buffer
 0009:C02690D5       __kstrtab_simple_unlink
 0009:C02690E3       __kstrtab_simple_sync_file
 0009:C02690F4       __kstrtab_simple_statfs
 0009:C0269102       __kstrtab_simple_rmdir
 0009:C026910F       __kstrtab_simple_rename
 0009:C026911D       __kstrtab_simple_release_fs
 0009:C026912F       __kstrtab_simple_readpage
 0009:C026913F       __kstrtab_simple_pin_fs
 0009:C026914D       __kstrtab_simple_lookup
 0009:C026915B       __kstrtab_simple_link
 0009:C0269167       __kstrtab_simple_getattr
 0009:C0269176       __kstrtab_simple_fill_super
 0009:C0269188       __kstrtab_d_alloc_name
 0009:C0269195       __kstrtab_simple_empty
 0009:C02691A2       __kstrtab_simple_dir_operations
 0009:C02691B8       __kstrtab_simple_dir_inode_operations
 0009:C02691D4       __kstrtab_simple_write_end
 0009:C02691E5       __kstrtab_simple_write_begin
 0009:C02691F8       __kstrtab_get_sb_pseudo
 0009:C0269206       __kstrtab_generic_read_dir
 0009:C0269217       __kstrtab_dcache_readdir
 0009:C0269226       __kstrtab_dcache_dir_open
 0009:C0269236       __kstrtab_dcache_dir_lseek
 0009:C0269247       __kstrtab_dcache_dir_close
 0009:C0269258       __kstrtab_simple_fsync
 0009:C0269265       __kstrtab_generic_fh_to_parent
 0009:C026927A       __kstrtab_generic_fh_to_dentry
 0009:C026928F       __kstrtab_generic_osync_inode
 0009:C02692A3       __kstrtab_sync_inode
 0009:C02692AE       __kstrtab_write_inode_now
 0009:C02692BE       __kstrtab_generic_sync_sb_inodes
 0009:C02692D5       __kstrtab_sb_has_dirty_inodes
 0009:C02692E9       __kstrtab___mark_inode_dirty
 0009:C02692FC       __kstrtab_splice_direct_to_actor
 0009:C0269313       __kstrtab_generic_splice_sendpage
 0009:C026932B       __kstrtab_generic_file_splice_write
 0009:C0269345       __kstrtab___splice_from_pipe
 0009:C0269358       __kstrtab_splice_from_pipe_end
 0009:C026936D       __kstrtab_splice_from_pipe_begin
 0009:C0269384       __kstrtab_splice_from_pipe_next
 0009:C026939A       __kstrtab_splice_from_pipe_feed
 0009:C02693B0       __kstrtab_pipe_to_file
 0009:C02693BD       __kstrtab_default_file_splice_read
 0009:C02693D6       __kstrtab_generic_file_splice_read
 0009:C02693EF       __kstrtab_do_sync_mapping_range
 0009:C0269405       __kstrtab_vfs_fsync
 0009:C026940F       __kstrtab_sync_filesystem
 0009:C026941F       __kstrtab_fsstack_copy_attr_all
 0009:C0269435       __kstrtab_fsstack_copy_inode_size
 0009:C026944D       __kstrtab_current_umask
 0009:C026945B       __kstrtab_unshare_fs_struct
 0009:C026946D       __kstrtab_unlock_buffer
 0009:C026947B       __kstrtab_sync_dirty_buffer
 0009:C026948D       __kstrtab_submit_bh
 0009:C0269497       __kstrtab_mark_buffer_dirty
 0009:C02694A9       __kstrtab_ll_rw_block
 0009:C02694B5       __kstrtab_invalidate_bdev
 0009:C02694C5       __kstrtab_init_buffer
 0009:C02694D1       __kstrtab_generic_cont_expand_simple
 0009:C02694EC       __kstrtab_generic_block_bmap
 0009:C02694FF       __kstrtab_file_fsync
 0009:C026950A       __kstrtab_end_buffer_async_write
 0009:C0269521       __kstrtab_end_buffer_write_sync
 0009:C0269537       __kstrtab_end_buffer_read_sync
 0009:C026954C       __kstrtab_cont_write_begin
 0009:C026955D       __kstrtab_block_write_full_page_endio
 0009:C0269579       __kstrtab_block_write_full_page
 0009:C026958F       __kstrtab_block_truncate_page
 0009:C02695A3       __kstrtab_block_sync_page
 0009:C02695B3       __kstrtab_block_read_full_page
 0009:C02695C8       __kstrtab_block_page_mkwrite
 0009:C02695DB       __kstrtab_block_prepare_write
 0009:C02695EF       __kstrtab_block_commit_write
 0009:C0269602       __kstrtab___wait_on_buffer
 0009:C0269613       __kstrtab___brelse
 0009:C026961C       __kstrtab___bforget
 0009:C0269626       __kstrtab_bh_submit_read
 0009:C0269635       __kstrtab_bh_uptodate_or_lock
 0009:C0269649       __kstrtab_free_buffer_head
 0009:C026965A       __kstrtab_alloc_buffer_head
 0009:C026966C       __kstrtab_try_to_free_buffers
 0009:C0269680       __kstrtab_nobh_truncate_page
 0009:C0269693       __kstrtab_nobh_writepage
 0009:C02696A2       __kstrtab_nobh_write_end
 0009:C02696B1       __kstrtab_nobh_write_begin
 0009:C02696C2       __kstrtab_block_is_partially_uptodate
 0009:C02696DE       __kstrtab_generic_write_end
 0009:C02696F0       __kstrtab_block_write_end
 0009:C0269700       __kstrtab_block_write_begin
 0009:C0269712       __kstrtab_page_zero_new_buffers
 0009:C0269728       __kstrtab_unmap_underlying_metadata
 0009:C0269742       __kstrtab_create_empty_buffers
 0009:C0269757       __kstrtab_block_invalidatepage
 0009:C026976C       __kstrtab_set_bh_page
 0009:C0269778       __kstrtab_invalidate_bh_lrus
 0009:C026978B       __kstrtab___bread
 0009:C0269793       __kstrtab___breadahead
 0009:C02697A0       __kstrtab___getblk
 0009:C02697A9       __kstrtab___find_get_block
 0009:C02697BA       __kstrtab_alloc_page_buffers
 0009:C02697CD       __kstrtab_invalidate_inode_buffers
 0009:C02697E6       __kstrtab___set_page_dirty_buffers
 0009:C02697FF       __kstrtab_mark_buffer_dirty_inode
 0009:C0269817       __kstrtab_sync_mapping_buffers
 0009:C026982C       __kstrtab_mark_buffer_async_write
 0009:C0269844       __kstrtab___lock_buffer
 0009:C0269852       __kstrtab_bio_alloc_bioset
 0009:C0269863       __kstrtab_bioset_free
 0009:C026986F       __kstrtab_bioset_create
 0009:C026987D       __kstrtab_bio_uncopy_user
 0009:C026988D       __kstrtab_bio_copy_user
 0009:C026989B       __kstrtab_bio_split
 0009:C02698A5       __kstrtab_bio_pair_release
 0009:C02698B6       __kstrtab_bio_copy_kern
 0009:C02698C4       __kstrtab_bio_map_kern
 0009:C02698D1       __kstrtab_bio_unmap_user
 0009:C02698E0       __kstrtab_bio_map_user
 0009:C02698ED       __kstrtab_bio_get_nr_vecs
 0009:C02698FD       __kstrtab_bio_add_pc_page
 0009:C026990D       __kstrtab_bio_add_page
 0009:C026991A       __kstrtab_bio_phys_segments
 0009:C026992C       __kstrtab_bio_clone
 0009:C0269936       __kstrtab___bio_clone
 0009:C0269942       __kstrtab_bio_init
 0009:C026994B       __kstrtab_bio_endio
 0009:C0269955       __kstrtab_bio_free
 0009:C026995E       __kstrtab_bio_put
 0009:C0269966       __kstrtab_bio_kmalloc
 0009:C0269972       __kstrtab_bio_alloc
 0009:C026997C       __kstrtab_bio_sector_offset
 0009:C026998E       __kstrtab_zero_fill_bio
 0009:C026999C       __kstrtab___invalidate_device
 0009:C02699B0       __kstrtab_close_bdev_exclusive
 0009:C02699C5       __kstrtab_open_bdev_exclusive
 0009:C02699D9       __kstrtab_lookup_bdev
 0009:C02699E5       __kstrtab_ioctl_by_bdev
 0009:C02699F3       __kstrtab_blkdev_put
 0009:C02699FE       __kstrtab_blkdev_get
 0009:C0269A09       __kstrtab_bd_set_size
 0009:C0269A15       __kstrtab_check_disk_change
 0009:C0269A27       __kstrtab_revalidate_disk
 0009:C0269A37       __kstrtab_check_disk_size_change
 0009:C0269A4E       __kstrtab_open_by_devnum
 0009:C0269A5D       __kstrtab_bd_release_from_disk
 0009:C0269A72       __kstrtab_bd_claim_by_disk
 0009:C0269A83       __kstrtab_bd_release
 0009:C0269A8E       __kstrtab_bd_claim
 0009:C0269A97       __kstrtab_bdput
 0009:C0269A9D       __kstrtab_bdget
 0009:C0269AA3       __kstrtab_thaw_bdev
 0009:C0269AAD       __kstrtab_freeze_bdev
 0009:C0269AB9       __kstrtab_fsync_bdev
 0009:C0269AC4       __kstrtab_sync_blockdev
 0009:C0269AD2       __kstrtab_sb_min_blocksize
 0009:C0269AE3       __kstrtab_sb_set_blocksize
 0009:C0269AF4       __kstrtab_set_blocksize
 0009:C0269B02       __kstrtab_I_BDEV
 0009:C0269B09       __kstrtab___blockdev_direct_IO
 0009:C0269B1E       __kstrtab_mpage_writepage
 0009:C0269B2E       __kstrtab_mpage_writepages
 0009:C0269B3F       __kstrtab_mpage_readpage
 0009:C0269B4E       __kstrtab_mpage_readpages
 0009:C0269B5E       __kstrtab_set_task_ioprio
 0009:C0269B6E       __kstrtab_fsnotify
 0009:C0269B77       __kstrtab___fsnotify_parent
 0009:C0269B89       __kstrtab___fsnotify_inode_delete
 0009:C0269BA1       __kstrtab_fsnotify_get_cookie
 0009:C0269BB5       __kstrtab_anon_inode_getfd
 0009:C0269BC6       __kstrtab_eventfd_ctx_fileget
 0009:C0269BDA       __kstrtab_eventfd_ctx_fdget
 0009:C0269BEC       __kstrtab_eventfd_fget
 0009:C0269BF9       __kstrtab_eventfd_ctx_put
 0009:C0269C09       __kstrtab_eventfd_ctx_get
 0009:C0269C19       __kstrtab_eventfd_signal
 0009:C0269C28       __kstrtab_wait_on_sync_kiocb
 0009:C0269C3B       __kstrtab_aio_put_req
 0009:C0269C47       __kstrtab_aio_complete
 0009:C0269C54       __kstrtab_kick_iocb
 0009:C0269C5E       __kstrtab_lock_may_write
 0009:C0269C6D       __kstrtab_lock_may_read
 0009:C0269C7B       __kstrtab_vfs_cancel_lock
 0009:C0269C8B       __kstrtab_posix_unblock_lock
 0009:C0269C9E       __kstrtab_locks_remove_posix
 0009:C0269CB1       __kstrtab_vfs_lock_file
 0009:C0269CBF       __kstrtab_vfs_test_lock
 0009:C0269CCD       __kstrtab_flock_lock_file_wait
 0009:C0269CE2       __kstrtab_vfs_setlease
 0009:C0269CEF       __kstrtab_generic_setlease
 0009:C0269D00       __kstrtab_lease_get_mtime
 0009:C0269D10       __kstrtab___break_lease
 0009:C0269D1E       __kstrtab_lease_modify
 0009:C0269D2B       __kstrtab_locks_mandatory_area
 0009:C0269D40       __kstrtab_posix_lock_file_wait
 0009:C0269D55       __kstrtab_posix_lock_file
 0009:C0269D65       __kstrtab_posix_test_lock
 0009:C0269D75       __kstrtab_locks_copy_lock
 0009:C0269D85       __kstrtab___locks_copy_lock
 0009:C0269D97       __kstrtab_locks_init_lock
 0009:C0269DA7       __kstrtab_locks_release_private
 0009:C0269DBD       __kstrtab_remove_proc_entry
 0009:C0269DCF       __kstrtab_proc_create_data
 0009:C0269DE0       __kstrtab_create_proc_entry
 0009:C0269DF2       __kstrtab_proc_mkdir
 0009:C0269DFD       __kstrtab_proc_symlink
 0009:C0269E0A       __kstrtab_proc_net_mkdir
 0009:C0269E19       __kstrtab_proc_net_remove
 0009:C0269E29       __kstrtab_proc_net_fops_create
 0009:C0269E3E       __kstrtab_single_release_net
 0009:C0269E51       __kstrtab_seq_release_net
 0009:C0269E61       __kstrtab_single_open_net
 0009:C0269E71       __kstrtab_seq_open_net
 0009:C0269E7E       __kstrtab_read_dev_sector
 0009:C0269E8E       __kstrtab___bdevname
 0009:C0269E99       __kstrtab_bdevname
 0009:C0269EA2       __kstrtab_sysfs_remove_file
 0009:C0269EB4       __kstrtab_sysfs_create_file
 0009:C0269EC6       __kstrtab_sysfs_schedule_callback
 0009:C0269EDE       __kstrtab_sysfs_remove_file_from_group
 0009:C0269EFB       __kstrtab_sysfs_chmod_file
 0009:C0269F0C       __kstrtab_sysfs_add_file_to_group
 0009:C0269F24       __kstrtab_sysfs_notify
 0009:C0269F31       __kstrtab_sysfs_notify_dirent
 0009:C0269F45       __kstrtab_sysfs_get_dirent
 0009:C0269F56       __kstrtab_sysfs_remove_link
 0009:C0269F68       __kstrtab_sysfs_create_link
 0009:C0269F7A       __kstrtab_sysfs_put
 0009:C0269F84       __kstrtab_sysfs_get
 0009:C0269F8E       __kstrtab_sysfs_remove_bin_file
 0009:C0269FA4       __kstrtab_sysfs_create_bin_file
 0009:C0269FBA       __kstrtab_sysfs_remove_group
 0009:C0269FCD       __kstrtab_sysfs_update_group
 0009:C0269FE0       __kstrtab_sysfs_create_group
 0009:C0269FF3       __kstrtab_exportfs_decode_fh
 0009:C026A006       __kstrtab_exportfs_encode_fh
 0009:C026A019       __kstrtab_nlmclnt_done
 0009:C026A026       __kstrtab_nlmclnt_init
 0009:C026A033       __kstrtab_nlmclnt_proc
 0009:C026A040       __kstrtab_lockd_down
 0009:C026A04B       __kstrtab_lockd_up
 0009:C026A054       __kstrtab_nlmsvc_ops
 0009:C026A05F       __kstrtab_nlmsvc_unlock_all_by_ip
 0009:C026A077       __kstrtab_nlmsvc_unlock_all_by_sb
 0009:C026A08F       __kstrtab_locks_in_grace
 0009:C026A09E       __kstrtab_locks_end_grace
 0009:C026A0AE       __kstrtab_locks_start_grace
 0009:C026A0C0       __kstrtab_cap_netlink_recv
 0009:C026A0D1       __kstrtab_crypto_has_alg
 0009:C026A0E0       __kstrtab_crypto_destroy_tfm
 0009:C026A0F3       __kstrtab_crypto_alloc_tfm
 0009:C026A104       __kstrtab_crypto_create_tfm
 0009:C026A116       __kstrtab_crypto_alloc_base
 0009:C026A128       __kstrtab___crypto_alloc_tfm
 0009:C026A13B       __kstrtab_crypto_shoot_alg
 0009:C026A14C       __kstrtab_crypto_alg_mod_lookup
 0009:C026A162       __kstrtab_crypto_probing_notify
 0009:C026A178       __kstrtab_crypto_larval_lookup
 0009:C026A18D       __kstrtab_crypto_alg_lookup
 0009:C026A19F       __kstrtab_crypto_larval_kill
 0009:C026A1B2       __kstrtab_crypto_larval_alloc
 0009:C026A1C6       __kstrtab_crypto_mod_put
 0009:C026A1D5       __kstrtab_crypto_mod_get
 0009:C026A1E4       __kstrtab_crypto_chain
 0009:C026A1F1       __kstrtab_crypto_alg_sem
 0009:C026A200       __kstrtab_crypto_alg_list
 0009:C026A210       __kstrtab_elv_rb_latter_request
 0009:C026A226       __kstrtab_elv_rb_former_request
 0009:C026A23C       __kstrtab_elv_unregister
 0009:C026A24B       __kstrtab_elv_register
 0009:C026A258       __kstrtab_elv_abort_queue
 0009:C026A268       __kstrtab_elv_queue_empty
 0009:C026A278       __kstrtab_elv_add_request
 0009:C026A288       __kstrtab___elv_add_request
 0009:C026A29A       __kstrtab_elv_dispatch_add_tail
 0009:C026A2B0       __kstrtab_elv_dispatch_sort
 0009:C026A2C2       __kstrtab_elv_rb_find
 0009:C026A2CE       __kstrtab_elv_rb_del
 0009:C026A2D9       __kstrtab_elv_rb_add
 0009:C026A2E4       __kstrtab_elevator_exit
 0009:C026A2F2       __kstrtab_elevator_init
 0009:C026A300       __kstrtab_elv_rq_merge_ok
 0009:C026A310       __kstrtab_kblockd_schedule_work
 0009:C026A326       __kstrtab_blk_rq_prep_clone
 0009:C026A338       __kstrtab_blk_rq_unprep_clone
 0009:C026A34C       __kstrtab_blk_lld_busy
 0009:C026A359       __kstrtab___blk_end_request_cur
 0009:C026A36F       __kstrtab___blk_end_request_all
 0009:C026A385       __kstrtab___blk_end_request
 0009:C026A397       __kstrtab_blk_end_request_cur
 0009:C026A3AB       __kstrtab_blk_end_request_all
 0009:C026A3BF       __kstrtab_blk_end_request
 0009:C026A3CF       __kstrtab_blk_update_request
 0009:C026A3E2       __kstrtab_blk_fetch_request
 0009:C026A3F4       __kstrtab_blk_start_request
 0009:C026A406       __kstrtab_blk_peek_request
 0009:C026A417       __kstrtab_blk_insert_cloned_request
 0009:C026A431       __kstrtab_blk_rq_check_limits
 0009:C026A445       __kstrtab_submit_bio
 0009:C026A450       __kstrtab_generic_make_request
 0009:C026A465       __kstrtab_blk_put_request
 0009:C026A475       __kstrtab___blk_put_request
 0009:C026A487       __kstrtab_part_round_stats
 0009:C026A498       __kstrtab_blk_insert_request
 0009:C026A4AB       __kstrtab_blk_requeue_request
 0009:C026A4BF       __kstrtab_blk_make_request
 0009:C026A4D0       __kstrtab_blk_get_request
 0009:C026A4E0       __kstrtab_blk_init_queue_node
 0009:C026A4F4       __kstrtab_blk_init_queue
 0009:C026A503       __kstrtab_blk_alloc_queue_node
 0009:C026A518       __kstrtab_blk_alloc_queue
 0009:C026A528       __kstrtab_blk_cleanup_queue
 0009:C026A53A       __kstrtab_blk_run_queue
 0009:C026A548       __kstrtab___blk_run_queue
 0009:C026A558       __kstrtab_blk_sync_queue
 0009:C026A567       __kstrtab_blk_stop_queue
 0009:C026A576       __kstrtab_blk_start_queue
 0009:C026A586       __kstrtab_blk_unplug
 0009:C026A591       __kstrtab_generic_unplug_device
 0009:C026A5A7       __kstrtab_blk_remove_plug
 0009:C026A5B7       __kstrtab_blk_plug_device_unlocked
 0009:C026A5D0       __kstrtab_blk_plug_device
 0009:C026A5E0       __kstrtab_blk_dump_rq_flags
 0009:C026A5F2       __kstrtab_blk_rq_init
 0009:C026A5FE       __kstrtab_blk_get_backing_dev_info
 0009:C026A617       __kstrtab_blk_queue_invalidate_tags
 0009:C026A631       __kstrtab_blk_queue_start_tag
 0009:C026A645       __kstrtab_blk_queue_end_tag
 0009:C026A657       __kstrtab_blk_queue_resize_tags
 0009:C026A66D       __kstrtab_blk_queue_init_tags
 0009:C026A681       __kstrtab_blk_init_tags
 0009:C026A68F       __kstrtab_blk_queue_free_tags
 0009:C026A6A3       __kstrtab_blk_free_tags
 0009:C026A6B1       __kstrtab_blk_queue_find_tag
 0009:C026A6C4       __kstrtab_blkdev_issue_discard
 0009:C026A6D9       __kstrtab_blkdev_issue_flush
 0009:C026A6EC       __kstrtab_blk_queue_ordered
 0009:C026A6FE       __kstrtab_blk_queue_update_dma_alignment
 0009:C026A71D       __kstrtab_blk_queue_dma_alignment
 0009:C026A735       __kstrtab_blk_queue_segment_boundary
 0009:C026A750       __kstrtab_blk_queue_dma_drain
 0009:C026A764       __kstrtab_blk_queue_update_dma_pad
 0009:C026A77D       __kstrtab_blk_queue_dma_pad
 0009:C026A78F       __kstrtab_disk_stack_limits
 0009:C026A7A1       __kstrtab_blk_stack_limits
 0009:C026A7B2       __kstrtab_blk_queue_stack_limits
 0009:C026A7C9       __kstrtab_blk_queue_io_opt
 0009:C026A7DA       __kstrtab_blk_queue_io_min
 0009:C026A7EB       __kstrtab_blk_limits_io_min
 0009:C026A7FD       __kstrtab_blk_queue_alignment_offset
 0009:C026A818       __kstrtab_blk_queue_physical_block_size
 0009:C026A836       __kstrtab_blk_queue_logical_block_size
 0009:C026A853       __kstrtab_blk_queue_max_segment_size
 0009:C026A86E       __kstrtab_blk_queue_max_hw_segments
 0009:C026A888       __kstrtab_blk_queue_max_phys_segments
 0009:C026A8A4       __kstrtab_blk_queue_max_hw_sectors
 0009:C026A8BD       __kstrtab_blk_queue_max_sectors
 0009:C026A8D3       __kstrtab_blk_queue_bounce_limit
 0009:C026A8EA       __kstrtab_blk_queue_make_request
 0009:C026A901       __kstrtab_blk_set_default_limits
 0009:C026A918       __kstrtab_blk_queue_lld_busy
 0009:C026A92B       __kstrtab_blk_queue_rq_timed_out
 0009:C026A942       __kstrtab_blk_queue_rq_timeout
 0009:C026A957       __kstrtab_blk_queue_softirq_done
 0009:C026A96E       __kstrtab_blk_queue_merge_bvec
 0009:C026A983       __kstrtab_blk_queue_set_discard
 0009:C026A999       __kstrtab_blk_queue_prep_rq
 0009:C026A9AB       __kstrtab_blk_max_low_pfn
 0009:C026A9BB       __kstrtab_copy_io_context
 0009:C026A9CB       __kstrtab_get_io_context
 0009:C026A9DA       __kstrtab_put_io_context
 0009:C026A9E9       __kstrtab_blk_rq_map_kern
 0009:C026A9F9       __kstrtab_blk_rq_unmap_user
 0009:C026AA0B       __kstrtab_blk_rq_map_user_iov
 0009:C026AA1F       __kstrtab_blk_rq_map_user
 0009:C026AA2F       __kstrtab_blk_execute_rq
 0009:C026AA3E       __kstrtab_blk_execute_rq_nowait
 0009:C026AA54       __kstrtab_blk_rq_map_sg
 0009:C026AA62       __kstrtab_blk_recount_segments
 0009:C026AA77       __kstrtab_blk_complete_request
 0009:C026AA8C       __kstrtab_blk_abort_queue
 0009:C026AA9C       __kstrtab_blk_abort_request
 0009:C026AAAE       __kstrtab_blkdev_ioctl
 0009:C026AABB       __kstrtab___blkdev_driver_ioctl
 0009:C026AAD1       __kstrtab_invalidate_partition
 0009:C026AAE6       __kstrtab_bdev_read_only
 0009:C026AAF5       __kstrtab_set_disk_ro
 0009:C026AB01       __kstrtab_set_device_ro
 0009:C026AB0F       __kstrtab_put_disk
 0009:C026AB18       __kstrtab_get_disk
 0009:C026AB21       __kstrtab_alloc_disk_node
 0009:C026AB31       __kstrtab_alloc_disk
 0009:C026AB3C       __kstrtab_blk_lookup_devt
 0009:C026AB4C       __kstrtab_bdget_disk
 0009:C026AB57       __kstrtab_del_gendisk
 0009:C026AB63       __kstrtab_add_disk
 0009:C026AB6C       __kstrtab_blk_unregister_region
 0009:C026AB82       __kstrtab_blk_register_region
 0009:C026AB96       __kstrtab_unregister_blkdev
 0009:C026ABA8       __kstrtab_register_blkdev
 0009:C026ABB8       __kstrtab_disk_map_sector_rcu
 0009:C026ABCC       __kstrtab_disk_part_iter_exit
 0009:C026ABE0       __kstrtab_disk_part_iter_next
 0009:C026ABF4       __kstrtab_disk_part_iter_init
 0009:C026AC08       __kstrtab_disk_get_part
 0009:C026AC16       __kstrtab_scsi_cmd_ioctl
 0009:C026AC25       __kstrtab_sg_scsi_ioctl
 0009:C026AC33       __kstrtab_blk_verify_command
 0009:C026AC46       __kstrtab_scsi_command_size_tbl
 0009:C026AC5C       __kstrtab_bsg_register_queue
 0009:C026AC6F       __kstrtab_bsg_unregister_queue
 0009:C026AC84       __kstrtab_argv_split
 0009:C026AC8F       __kstrtab_argv_free
 0009:C026AC99       __kstrtab_get_options
 0009:C026ACA5       __kstrtab_get_option
 0009:C026ACB0       __kstrtab_memparse
 0009:C026ACB9       __kstrtab__ctype
 0009:C026ACC0       __kstrtab__atomic_dec_and_lock
 0009:C026ACD5       __kstrtab_ida_init
 0009:C026ACDE       __kstrtab_ida_destroy
 0009:C026ACEA       __kstrtab_ida_remove
 0009:C026ACF5       __kstrtab_ida_get_new
 0009:C026AD01       __kstrtab_ida_get_new_above
 0009:C026AD13       __kstrtab_ida_pre_get
 0009:C026AD1F       __kstrtab_idr_init
 0009:C026AD28       __kstrtab_idr_replace
 0009:C026AD34       __kstrtab_idr_for_each
 0009:C026AD41       __kstrtab_idr_find
 0009:C026AD4A       __kstrtab_idr_destroy
 0009:C026AD56       __kstrtab_idr_remove_all
 0009:C026AD65       __kstrtab_idr_remove
 0009:C026AD70       __kstrtab_idr_get_new
 0009:C026AD7C       __kstrtab_idr_get_new_above
 0009:C026AD8E       __kstrtab_idr_pre_get
 0009:C026AD9A       __kstrtab_int_sqrt
 0009:C026ADA3       __kstrtab_per_cpu____irq_regs
 0009:C026ADB7       __kstrtab_kset_unregister
 0009:C026ADC7       __kstrtab_kset_register
 0009:C026ADD5       __kstrtab_kobject_del
 0009:C026ADE1       __kstrtab_kobject_put
 0009:C026ADED       __kstrtab_kobject_get
 0009:C026ADF9       __kstrtab_kset_create_and_add
 0009:C026AE0D       __kstrtab_kobject_create_and_add
 0009:C026AE24       __kstrtab_kobject_rename
 0009:C026AE33       __kstrtab_kobject_init_and_add
 0009:C026AE48       __kstrtab_kobject_add
 0009:C026AE54       __kstrtab_kobject_init
 0009:C026AE61       __kstrtab_kobject_set_name
 0009:C026AE72       __kstrtab_kobject_get_path
 0009:C026AE83       __kstrtab_add_uevent_var
 0009:C026AE92       __kstrtab_kobject_uevent
 0009:C026AEA1       __kstrtab_kobject_uevent_env
 0009:C026AEB4       __kstrtab_kref_put
 0009:C026AEBD       __kstrtab_kref_get
 0009:C026AEC6       __kstrtab_kref_init
 0009:C026AED0       __kstrtab_kref_set
 0009:C026AED9       __kstrtab_radix_tree_tagged
 0009:C026AEEB       __kstrtab_radix_tree_delete
 0009:C026AEFD       __kstrtab_radix_tree_gang_lookup_tag_slot
 0009:C026AF1D       __kstrtab_radix_tree_gang_lookup_tag
 0009:C026AF38       __kstrtab_radix_tree_gang_lookup_slot
 0009:C026AF54       __kstrtab_radix_tree_gang_lookup
 0009:C026AF6B       __kstrtab_radix_tree_prev_hole
 0009:C026AF80       __kstrtab_radix_tree_next_hole
 0009:C026AF95       __kstrtab_radix_tree_tag_clear
 0009:C026AFAA       __kstrtab_radix_tree_tag_set
 0009:C026AFBD       __kstrtab_radix_tree_lookup
 0009:C026AFCF       __kstrtab_radix_tree_lookup_slot
 0009:C026AFE6       __kstrtab_radix_tree_insert
 0009:C026AFF8       __kstrtab_radix_tree_preload
 0009:C026B00B       __kstrtab___ratelimit
 0009:C026B017       __kstrtab_rb_replace_node
 0009:C026B027       __kstrtab_rb_prev
 0009:C026B02F       __kstrtab_rb_next
 0009:C026B037       __kstrtab_rb_last
 0009:C026B03F       __kstrtab_rb_first
 0009:C026B048       __kstrtab_rb_erase
 0009:C026B051       __kstrtab_rb_insert_color
 0009:C026B061       __kstrtab___downgrade_write
 0009:C026B073       __kstrtab___up_write
 0009:C026B07E       __kstrtab___up_read
 0009:C026B088       __kstrtab___down_write_trylock
 0009:C026B09D       __kstrtab___down_write
 0009:C026B0AA       __kstrtab___down_write_nested
 0009:C026B0BE       __kstrtab___down_read_trylock
 0009:C026B0D2       __kstrtab___down_read
 0009:C026B0DE       __kstrtab___init_rwsem
 0009:C026B0EB       __kstrtab_strstr
 0009:C026B0F2       __kstrtab_memscan
 0009:C026B0FA       __kstrtab_memcmp
 0009:C026B101       __kstrtab_sysfs_streq
 0009:C026B10D       __kstrtab_strsep
 0009:C026B114       __kstrtab_strpbrk
 0009:C026B11C       __kstrtab_strcspn
 0009:C026B124       __kstrtab_strspn
 0009:C026B12B       __kstrtab_strnlen
 0009:C026B133       __kstrtab_strlen
 0009:C026B13A       __kstrtab_strstrip
 0009:C026B143       __kstrtab_strnchr
 0009:C026B14B       __kstrtab_strncmp
 0009:C026B153       __kstrtab_strcmp
 0009:C026B15A       __kstrtab_strlcat
 0009:C026B162       __kstrtab_strncat
 0009:C026B16A       __kstrtab_strcat
 0009:C026B171       __kstrtab_strlcpy
 0009:C026B179       __kstrtab_strncpy
 0009:C026B181       __kstrtab_strcpy
 0009:C026B188       __kstrtab_strncasecmp
 0009:C026B194       __kstrtab_strcasecmp
 0009:C026B19F       __kstrtab_strnicmp
 0009:C026B1A8       __kstrtab_sscanf
 0009:C026B1AF       __kstrtab_vsscanf
 0009:C026B1B7       __kstrtab_sprintf
 0009:C026B1BF       __kstrtab_vsprintf
 0009:C026B1C8       __kstrtab_scnprintf
 0009:C026B1D2       __kstrtab_snprintf
 0009:C026B1DB       __kstrtab_vscnprintf
 0009:C026B1E6       __kstrtab_vsnprintf
 0009:C026B1F0       __kstrtab_strict_strtoll
 0009:C026B1FF       __kstrtab_strict_strtoull
 0009:C026B20F       __kstrtab_strict_strtol
 0009:C026B21D       __kstrtab_strict_strtoul
 0009:C026B22C       __kstrtab_simple_strtoull
 0009:C026B23C       __kstrtab_simple_strtol
 0009:C026B24A       __kstrtab_simple_strtoul
 0009:C026B259       __kstrtab_bin2bcd
 0009:C026B261       __kstrtab_bcd2bin
 0009:C026B269       __kstrtab_iter_div_u64_rem
 0009:C026B27A       __kstrtab_div64_u64
 0009:C026B284       __kstrtab_div_s64_rem
 0009:C026B290       __kstrtab___div64_32
 0009:C026B29B       __kstrtab_sort
 0009:C026B2A0       __kstrtab_match_strdup
 0009:C026B2AD       __kstrtab_match_strlcpy
 0009:C026B2BB       __kstrtab_match_hex
 0009:C026B2C5       __kstrtab_match_octal
 0009:C026B2D1       __kstrtab_match_int
 0009:C026B2DB       __kstrtab_match_token
 0009:C026B2E7       __kstrtab_half_md4_transform
 0009:C026B2FA       __kstrtab_srandom32
 0009:C026B304       __kstrtab_random32
 0009:C026B30D       __kstrtab_print_hex_dump_bytes
 0009:C026B322       __kstrtab_print_hex_dump
 0009:C026B331       __kstrtab_hex_dump_to_buffer
 0009:C026B344       __kstrtab_hex_asc
 0009:C026B34C       __kstrtab_kasprintf
 0009:C026B356       __kstrtab_kvasprintf
 0009:C026B361       __kstrtab_bitmap_copy_le
 0009:C026B370       __kstrtab_bitmap_allocate_region
 0009:C026B387       __kstrtab_bitmap_release_region
 0009:C026B39D       __kstrtab_bitmap_find_free_region
 0009:C026B3B5       __kstrtab_bitmap_fold
 0009:C026B3C1       __kstrtab_bitmap_onto
 0009:C026B3CD       __kstrtab_bitmap_bitremap
 0009:C026B3DD       __kstrtab_bitmap_remap
 0009:C026B3EA       __kstrtab_bitmap_parselist
 0009:C026B3FB       __kstrtab_bitmap_scnlistprintf
 0009:C026B410       __kstrtab_bitmap_parse_user
 0009:C026B422       __kstrtab___bitmap_parse
 0009:C026B431       __kstrtab_bitmap_scnprintf
 0009:C026B442       __kstrtab___bitmap_weight
 0009:C026B452       __kstrtab___bitmap_subset
 0009:C026B462       __kstrtab___bitmap_intersects
 0009:C026B476       __kstrtab___bitmap_andnot
 0009:C026B486       __kstrtab___bitmap_xor
 0009:C026B493       __kstrtab___bitmap_or
 0009:C026B49F       __kstrtab___bitmap_and
 0009:C026B4AC       __kstrtab___bitmap_shift_left
 0009:C026B4C0       __kstrtab___bitmap_shift_right
 0009:C026B4D5       __kstrtab___bitmap_complement
 0009:C026B4E9       __kstrtab___bitmap_equal
 0009:C026B4F8       __kstrtab___bitmap_full
 0009:C026B506       __kstrtab___bitmap_empty
 0009:C026B515       __kstrtab_sg_copy_to_buffer
 0009:C026B527       __kstrtab_sg_copy_from_buffer
 0009:C026B53B       __kstrtab_sg_miter_stop
 0009:C026B549       __kstrtab_sg_miter_next
 0009:C026B557       __kstrtab_sg_miter_start
 0009:C026B566       __kstrtab_sg_alloc_table
 0009:C026B575       __kstrtab___sg_alloc_table
 0009:C026B586       __kstrtab_sg_free_table
 0009:C026B594       __kstrtab___sg_free_table
 0009:C026B5A4       __kstrtab_sg_init_one
 0009:C026B5B0       __kstrtab_sg_init_table
 0009:C026B5BE       __kstrtab_sg_last
 0009:C026B5C6       __kstrtab_sg_next
 0009:C026B5CE       __kstrtab_string_get_size
 0009:C026B5DE       __kstrtab_gcd
 0009:C026B5E2       __kstrtab___iowrite64_copy
 0009:C026B5F3       __kstrtab___iowrite32_copy
 0009:C026B604       __kstrtab_devm_ioport_unmap
 0009:C026B616       __kstrtab_devm_ioport_map
 0009:C026B626       __kstrtab_devm_iounmap
 0009:C026B633       __kstrtab_devm_ioremap_nocache
 0009:C026B648       __kstrtab_devm_ioremap
 0009:C026B655       __kstrtab_find_last_bit
 0009:C026B663       __kstrtab_hweight64
 0009:C026B66D       __kstrtab_hweight8
 0009:C026B676       __kstrtab_hweight16
 0009:C026B680       __kstrtab_hweight32
 0009:C026B68A       __kstrtab_bitrev32
 0009:C026B693       __kstrtab_bitrev16
 0009:C026B69C       __kstrtab_byte_rev_table
 0009:C026B6AB       __kstrtab_crc32_be
 0009:C026B6B4       __kstrtab_crc32_le
 0009:C026B6BD       __kstrtab_zlib_inflate_blob
 0009:C026B6CF       __kstrtab_zlib_inflateIncomp
 0009:C026B6E2       __kstrtab_zlib_inflateReset
 0009:C026B6F4       __kstrtab_zlib_inflateEnd
 0009:C026B704       __kstrtab_zlib_inflateInit2
 0009:C026B716       __kstrtab_zlib_inflate
 0009:C026B723       __kstrtab_zlib_inflate_workspacesize
 0009:C026B73E       __kstrtab_zlib_deflateReset
 0009:C026B750       __kstrtab_zlib_deflateEnd
 0009:C026B760       __kstrtab_zlib_deflateInit2
 0009:C026B772       __kstrtab_zlib_deflate
 0009:C026B77F       __kstrtab_zlib_deflate_workspacesize
 0009:C026B79A       __kstrtab_nla_strcmp
 0009:C026B7A5       __kstrtab_nla_memcmp
 0009:C026B7B0       __kstrtab_nla_memcpy
 0009:C026B7BB       __kstrtab_nla_strlcpy
 0009:C026B7C7       __kstrtab_nla_find
 0009:C026B7D0       __kstrtab_nla_parse
 0009:C026B7DA       __kstrtab_nla_policy_len
 0009:C026B7E9       __kstrtab_nla_validate
 0009:C026B7F6       __kstrtab_nla_append
 0009:C026B801       __kstrtab_nla_put_nohdr
 0009:C026B80F       __kstrtab_nla_put
 0009:C026B817       __kstrtab___nla_put_nohdr
 0009:C026B827       __kstrtab___nla_put
 0009:C026B831       __kstrtab_nla_reserve_nohdr
 0009:C026B843       __kstrtab_nla_reserve
 0009:C026B84F       __kstrtab___nla_reserve_nohdr
 0009:C026B863       __kstrtab___nla_reserve
 0009:C026B871       __kstrtab_fb_notifier_call_chain
 0009:C026B888       __kstrtab_fb_unregister_client
 0009:C026B89D       __kstrtab_fb_register_client
 0009:C026B8B0       __kstrtab_fb_get_options
 0009:C026B8BF       __kstrtab_fb_set_suspend
 0009:C026B8CE       __kstrtab_fb_get_buffer_offset
 0009:C026B8E3       __kstrtab_fb_pan_display
 0009:C026B8F2       __kstrtab_fb_blank
 0009:C026B8FB       __kstrtab_fb_set_var
 0009:C026B906       __kstrtab_fb_show_logo
 0009:C026B913       __kstrtab_registered_fb
 0009:C026B921       __kstrtab_num_registered_fb
 0009:C026B933       __kstrtab_unregister_framebuffer
 0009:C026B94A       __kstrtab_register_framebuffer
 0009:C026B95F       __kstrtab_fb_class
 0009:C026B968       __kstrtab_fb_pad_unaligned_buffer
 0009:C026B980       __kstrtab_fb_pad_aligned_buffer
 0009:C026B996       __kstrtab_fb_get_color_depth
 0009:C026B9A9       __kstrtab_lock_fb_info
 0009:C026B9B6       __kstrtab_fb_destroy_modedb
 0009:C026B9C8       __kstrtab_fb_validate_mode
 0009:C026B9D9       __kstrtab_fb_get_mode
 0009:C026B9E5       __kstrtab_fb_edid_to_monspecs
 0009:C026B9F9       __kstrtab_fb_parse_edid
 0009:C026BA07       __kstrtab_fb_firmware_edid
 0009:C026BA18       __kstrtab_fb_invert_cmaps
 0009:C026BA28       __kstrtab_fb_default_cmap
 0009:C026BA38       __kstrtab_fb_set_cmap
 0009:C026BA44       __kstrtab_fb_copy_cmap
 0009:C026BA51       __kstrtab_fb_dealloc_cmap
 0009:C026BA61       __kstrtab_fb_alloc_cmap
 0009:C026BA6F       __kstrtab_framebuffer_release
 0009:C026BA83       __kstrtab_framebuffer_alloc
 0009:C026BA95       __kstrtab_fb_find_mode
 0009:C026BAA2       __kstrtab_fb_videomode_to_modelist
 0009:C026BABB       __kstrtab_fb_find_nearest_mode
 0009:C026BAD0       __kstrtab_fb_find_best_mode
 0009:C026BAE2       __kstrtab_fb_match_mode
 0009:C026BAF0       __kstrtab_fb_add_videomode
 0009:C026BB01       __kstrtab_fb_mode_is_equal
 0009:C026BB12       __kstrtab_fb_var_to_videomode
 0009:C026BB26       __kstrtab_fb_videomode_to_var
 0009:C026BB3A       __kstrtab_fb_find_best_display
 0009:C026BB4F       __kstrtab_fb_destroy_modelist
 0009:C026BB63       __kstrtab_fb_mode_option
 0009:C026BB72       __kstrtab_secure_ipv4_port_ephemeral
 0009:C026BB8D       __kstrtab_generate_random_uuid
 0009:C026BBA2       __kstrtab_get_random_bytes
 0009:C026BBB3       __kstrtab_add_input_randomness
 0009:C026BBC8       __kstrtab_get_current_tty
 0009:C026BBD8       __kstrtab_tty_devnum
 0009:C026BBE3       __kstrtab_tty_unregister_driver
 0009:C026BBF9       __kstrtab_tty_register_driver
 0009:C026BC0D       __kstrtab_put_tty_driver
 0009:C026BC1C       __kstrtab_tty_set_operations
 0009:C026BC2F       __kstrtab_tty_driver_kref_put
 0009:C026BC43       __kstrtab_alloc_tty_driver
 0009:C026BC54       __kstrtab_tty_unregister_device
 0009:C026BC6A       __kstrtab_tty_register_device
 0009:C026BC7E       __kstrtab_tty_put_char
 0009:C026BC8B       __kstrtab_do_SAK
 0009:C026BC92       __kstrtab_tty_pair_get_pty
 0009:C026BCA3       __kstrtab_tty_pair_get_tty
 0009:C026BCB4       __kstrtab_tty_get_pgrp
 0009:C026BCC1       __kstrtab_tty_kref_put
 0009:C026BCCE       __kstrtab_tty_shutdown
 0009:C026BCDB       __kstrtab_tty_free_termios
 0009:C026BCEC       __kstrtab_tty_init_termios
 0009:C026BCFD       __kstrtab_start_tty
 0009:C026BD07       __kstrtab_stop_tty
 0009:C026BD10       __kstrtab_tty_hung_up_p
 0009:C026BD1E       __kstrtab_tty_vhangup
 0009:C026BD2A       __kstrtab_tty_hangup
 0009:C026BD35       __kstrtab_tty_wakeup
 0009:C026BD40       __kstrtab_tty_check_change
 0009:C026BD51       __kstrtab_tty_name
 0009:C026BD5A       __kstrtab_tty_mutex
 0009:C026BD64       __kstrtab_tty_std_termios
 0009:C026BD74       __kstrtab_n_tty_ioctl_helper
 0009:C026BD87       __kstrtab_tty_perform_flush
 0009:C026BD99       __kstrtab_tty_mode_ioctl
 0009:C026BDA8       __kstrtab_tty_termios_hw_change
 0009:C026BDBE       __kstrtab_tty_termios_copy_hw
 0009:C026BDD2       __kstrtab_tty_get_baud_rate
 0009:C026BDE4       __kstrtab_tty_encode_baud_rate
 0009:C026BDF9       __kstrtab_tty_termios_encode_baud_rate
 0009:C026BE16       __kstrtab_tty_termios_input_baud_rate
 0009:C026BE32       __kstrtab_tty_termios_baud_rate
 0009:C026BE48       __kstrtab_tty_wait_until_sent
 0009:C026BE5C       __kstrtab_tty_unthrottle
 0009:C026BE6B       __kstrtab_tty_throttle
 0009:C026BE78       __kstrtab_tty_driver_flush_buffer
 0009:C026BE90       __kstrtab_tty_write_room
 0009:C026BE9F       __kstrtab_tty_chars_in_buffer
 0009:C026BEB3       __kstrtab_tty_ldisc_flush
 0009:C026BEC3       __kstrtab_tty_ldisc_deref
 0009:C026BED3       __kstrtab_tty_ldisc_ref
 0009:C026BEE1       __kstrtab_tty_ldisc_ref_wait
 0009:C026BEF4       __kstrtab_tty_unregister_ldisc
 0009:C026BF09       __kstrtab_tty_register_ldisc
 0009:C026BF1C       __kstrtab_tty_flip_buffer_push
 0009:C026BF31       __kstrtab_tty_prepare_flip_string_flags
 0009:C026BF4F       __kstrtab_tty_prepare_flip_string
 0009:C026BF67       __kstrtab_tty_schedule_flip
 0009:C026BF79       __kstrtab_tty_insert_flip_string_flags
 0009:C026BF96       __kstrtab_tty_insert_flip_string
 0009:C026BFAD       __kstrtab_tty_buffer_request_room
 0009:C026BFC5       __kstrtab_tty_port_close
 0009:C026BFD4       __kstrtab_tty_port_close_end
 0009:C026BFE7       __kstrtab_tty_port_close_start
 0009:C026BFFC       __kstrtab_tty_port_block_til_ready
 0009:C026C015       __kstrtab_tty_port_lower_dtr_rts
 0009:C026C02C       __kstrtab_tty_port_raise_dtr_rts
 0009:C026C043       __kstrtab_tty_port_carrier_raised
 0009:C026C05B       __kstrtab_tty_port_hangup
 0009:C026C06B       __kstrtab_tty_port_tty_set
 0009:C026C07C       __kstrtab_tty_port_tty_get
 0009:C026C08D       __kstrtab_tty_port_free_xmit_buf
 0009:C026C0A4       __kstrtab_tty_port_alloc_xmit_buf
 0009:C026C0BC       __kstrtab_tty_port_init
 0009:C026C0CA       __kstrtab_misc_deregister
 0009:C026C0DA       __kstrtab_misc_register
 0009:C026C0E8       __kstrtab_kd_mksound
 0009:C026C0F3       __kstrtab_unregister_keyboard_notifier
 0009:C026C110       __kstrtab_register_keyboard_notifier
 0009:C026C12B       __kstrtab_kbd_table
 0009:C026C135       __kstrtab_k_handler
 0009:C026C13F       __kstrtab_con_copy_unimap
 0009:C026C14F       __kstrtab_con_set_default_unimap
 0009:C026C166       __kstrtab_inverse_translate
 0009:C026C178       __kstrtab_give_up_console
 0009:C026C188       __kstrtab_take_over_console
 0009:C026C19A       __kstrtab_vc_cons
 0009:C026C1A2       __kstrtab_console_blanked
 0009:C026C1B2       __kstrtab_console_blank_hook
 0009:C026C1C5       __kstrtab_fg_console
 0009:C026C1D0       __kstrtab_vc_resize
 0009:C026C1DA       __kstrtab_redraw_screen
 0009:C026C1E8       __kstrtab_update_region
 0009:C026C1F6       __kstrtab_default_blu
 0009:C026C202       __kstrtab_default_grn
 0009:C026C20E       __kstrtab_default_red
 0009:C026C21A       __kstrtab_color_table
 0009:C026C226       __kstrtab_screen_glyph
 0009:C026C233       __kstrtab_do_unblank_screen
 0009:C026C245       __kstrtab_do_blank_screen
 0009:C026C255       __kstrtab_unregister_con_driver
 0009:C026C26B       __kstrtab_register_con_driver
 0009:C026C27F       __kstrtab_con_is_bound
 0009:C026C28C       __kstrtab_unregister_vt_notifier
 0009:C026C2A3       __kstrtab_register_vt_notifier
 0009:C026C2B8       __kstrtab_unregister_sysrq_key
 0009:C026C2CD       __kstrtab_register_sysrq_key
 0009:C026C2E0       __kstrtab_handle_sysrq
 0009:C026C2ED       __kstrtab_device_move
 0009:C026C2F9       __kstrtab_device_rename
 0009:C026C307       __kstrtab_device_destroy
 0009:C026C316       __kstrtab_device_create
 0009:C026C324       __kstrtab_device_create_vargs
 0009:C026C338       __kstrtab_root_device_unregister
 0009:C026C34F       __kstrtab___root_device_register
 0009:C026C366       __kstrtab_device_remove_file
 0009:C026C379       __kstrtab_device_create_file
 0009:C026C38C       __kstrtab_put_device
 0009:C026C397       __kstrtab_get_device
 0009:C026C3A2       __kstrtab_device_unregister
 0009:C026C3B4       __kstrtab_device_del
 0009:C026C3BF       __kstrtab_device_register
 0009:C026C3CF       __kstrtab_device_add
 0009:C026C3DA       __kstrtab_device_initialize
 0009:C026C3EC       __kstrtab_device_find_child
 0009:C026C3FE       __kstrtab_device_for_each_child
 0009:C026C414       __kstrtab_dev_set_name
 0009:C026C421       __kstrtab_device_schedule_callback_owner
 0009:C026C440       __kstrtab_device_remove_bin_file
 0009:C026C457       __kstrtab_device_create_bin_file
 0009:C026C46E       __kstrtab_dev_driver_string
 0009:C026C480       __kstrtab_sysdev_show_int
 0009:C026C490       __kstrtab_sysdev_store_int
 0009:C026C4A1       __kstrtab_sysdev_show_ulong
 0009:C026C4B3       __kstrtab_sysdev_store_ulong
 0009:C026C4C6       __kstrtab_sysdev_unregister
 0009:C026C4D8       __kstrtab_sysdev_register
 0009:C026C4E8       __kstrtab_sysdev_resume
 0009:C026C4F6       __kstrtab_sysdev_suspend
 0009:C026C505       __kstrtab_sysdev_driver_unregister
 0009:C026C51E       __kstrtab_sysdev_driver_register
 0009:C026C535       __kstrtab_sysdev_class_unregister
 0009:C026C54D       __kstrtab_sysdev_class_register
 0009:C026C563       __kstrtab_sysdev_class_remove_file
 0009:C026C57C       __kstrtab_sysdev_class_create_file
 0009:C026C595       __kstrtab_sysdev_remove_file
 0009:C026C5A8       __kstrtab_sysdev_create_file
 0009:C026C5BB       __kstrtab_bus_sort_breadthfirst
 0009:C026C5D1       __kstrtab_bus_get_device_klist
 0009:C026C5E6       __kstrtab_bus_get_kset
 0009:C026C5F3       __kstrtab_bus_unregister_notifier
 0009:C026C60B       __kstrtab_bus_register_notifier
 0009:C026C621       __kstrtab_bus_unregister
 0009:C026C630       __kstrtab_bus_register
 0009:C026C63D       __kstrtab_device_reprobe
 0009:C026C64C       __kstrtab_bus_rescan_devices
 0009:C026C65F       __kstrtab_bus_for_each_drv
 0009:C026C670       __kstrtab_bus_find_device_by_name
 0009:C026C688       __kstrtab_bus_find_device
 0009:C026C698       __kstrtab_bus_for_each_dev
 0009:C026C6A9       __kstrtab_bus_remove_file
 0009:C026C6B9       __kstrtab_bus_create_file
 0009:C026C6C9       __kstrtab_device_release_driver
 0009:C026C6DF       __kstrtab_driver_attach
 0009:C026C6ED       __kstrtab_device_attach
 0009:C026C6FB       __kstrtab_wait_for_device_probe
 0009:C026C711       __kstrtab_device_bind_driver
 0009:C026C724       __kstrtab_driver_find
 0009:C026C730       __kstrtab_driver_unregister
 0009:C026C742       __kstrtab_driver_register
 0009:C026C752       __kstrtab_put_driver
 0009:C026C75D       __kstrtab_get_driver
 0009:C026C768       __kstrtab_driver_add_kobj
 0009:C026C778       __kstrtab_driver_remove_file
 0009:C026C78B       __kstrtab_driver_create_file
 0009:C026C79E       __kstrtab_driver_find_device
 0009:C026C7B1       __kstrtab_driver_for_each_device
 0009:C026C7C8       __kstrtab_class_interface_unregister
 0009:C026C7E3       __kstrtab_class_interface_register
 0009:C026C7FC       __kstrtab_class_destroy
 0009:C026C80A       __kstrtab_class_unregister
 0009:C026C81B       __kstrtab_class_remove_file
 0009:C026C82D       __kstrtab_class_create_file
 0009:C026C83F       __kstrtab_class_find_device
 0009:C026C851       __kstrtab_class_for_each_device
 0009:C026C867       __kstrtab_class_dev_iter_exit
 0009:C026C87B       __kstrtab_class_dev_iter_next
 0009:C026C88F       __kstrtab_class_dev_iter_init
 0009:C026C8A3       __kstrtab___class_create
 0009:C026C8B2       __kstrtab___class_register
 0009:C026C8C3       __kstrtab_dma_get_required_mask
 0009:C026C8D9       __kstrtab_platform_bus_type
 0009:C026C8EB       __kstrtab_platform_driver_probe
 0009:C026C901       __kstrtab_platform_driver_unregister
 0009:C026C91C       __kstrtab_platform_driver_register
 0009:C026C935       __kstrtab_platform_device_register_simple
 0009:C026C955       __kstrtab_platform_device_unregister
 0009:C026C970       __kstrtab_platform_device_register
 0009:C026C989       __kstrtab_platform_device_del
 0009:C026C99D       __kstrtab_platform_device_add
 0009:C026C9B1       __kstrtab_platform_device_add_data
 0009:C026C9CA       __kstrtab_platform_device_add_resources
 0009:C026C9E8       __kstrtab_platform_device_alloc
 0009:C026C9FE       __kstrtab_platform_device_put
 0009:C026CA12       __kstrtab_platform_add_devices
 0009:C026CA27       __kstrtab_platform_get_irq_byname
 0009:C026CA3F       __kstrtab_platform_get_resource_byname
 0009:C026CA5C       __kstrtab_platform_get_irq
 0009:C026CA6D       __kstrtab_platform_get_resource
 0009:C026CA83       __kstrtab_platform_bus
 0009:C026CA90       __kstrtab_get_cpu_sysdev
 0009:C026CA9F       __kstrtab_cpu_sysdev_class
 0009:C026CAB0       __kstrtab_firmware_kobj
 0009:C026CABE       __kstrtab_devm_kfree
 0009:C026CAC9       __kstrtab_devm_kzalloc
 0009:C026CAD6       __kstrtab_devres_release_group
 0009:C026CAEB       __kstrtab_devres_remove_group
 0009:C026CAFF       __kstrtab_devres_close_group
 0009:C026CB12       __kstrtab_devres_open_group
 0009:C026CB24       __kstrtab_devres_destroy
 0009:C026CB33       __kstrtab_devres_remove
 0009:C026CB41       __kstrtab_devres_get
 0009:C026CB4C       __kstrtab_devres_find
 0009:C026CB58       __kstrtab_devres_add
 0009:C026CB63       __kstrtab_devres_free
 0009:C026CB6F       __kstrtab_devres_alloc
 0009:C026CB7C       __kstrtab_attribute_container_find_class_device
 0009:C026CBA2       __kstrtab_attribute_container_unregister
 0009:C026CBC1       __kstrtab_attribute_container_register
 0009:C026CBDE       __kstrtab_attribute_container_classdev_to_container
 0009:C026CC08       __kstrtab_transport_destroy_device
 0009:C026CC21       __kstrtab_transport_remove_device
 0009:C026CC39       __kstrtab_transport_configure_device
 0009:C026CC54       __kstrtab_transport_add_device
 0009:C026CC69       __kstrtab_transport_setup_device
 0009:C026CC80       __kstrtab_anon_transport_class_unregister
 0009:C026CCA0       __kstrtab_anon_transport_class_register
 0009:C026CCBE       __kstrtab_transport_class_unregister
 0009:C026CCD9       __kstrtab_transport_class_register
 0009:C026CCF2       __kstrtab___suspend_report_result
 0009:C026CD0A       __kstrtab_dpm_suspend_start
 0009:C026CD1C       __kstrtab_dpm_suspend_noirq
 0009:C026CD2E       __kstrtab_dpm_resume_end
 0009:C026CD3D       __kstrtab_dpm_resume_noirq
 0009:C026CD4E       __kstrtab_dmam_release_declared_memory
 0009:C026CD6B       __kstrtab_dmam_declare_coherent_memory
 0009:C026CD88       __kstrtab_dmam_free_noncoherent
 0009:C026CD9E       __kstrtab_dmam_alloc_noncoherent
 0009:C026CDB5       __kstrtab_dmam_free_coherent
 0009:C026CDC8       __kstrtab_dmam_alloc_coherent
 0009:C026CDDC       __kstrtab_request_firmware_nowait
 0009:C026CDF4       __kstrtab_request_firmware
 0009:C026CE05       __kstrtab_release_firmware
 0009:C026CE16       __kstrtab_generic_mii_ioctl
 0009:C026CE28       __kstrtab_mii_check_gmii_support
 0009:C026CE3F       __kstrtab_mii_check_media
 0009:C026CE4F       __kstrtab_mii_check_link
 0009:C026CE5E       __kstrtab_mii_ethtool_sset
 0009:C026CE6F       __kstrtab_mii_ethtool_gset
 0009:C026CE80       __kstrtab_mii_nway_restart
 0009:C026CE91       __kstrtab_mii_link_ok
 0009:C026CE9D       __kstrtab_default_mtd_writev
 0009:C026CEB0       __kstrtab_unregister_mtd_user
 0009:C026CEC4       __kstrtab_register_mtd_user
 0009:C026CED6       __kstrtab_put_mtd_device
 0009:C026CEE5       __kstrtab_get_mtd_device_nm
 0009:C026CEF7       __kstrtab_get_mtd_device
 0009:C026CF06       __kstrtab_del_mtd_device
 0009:C026CF15       __kstrtab_add_mtd_device
 0009:C026CF24       __kstrtab_mtd_table
 0009:C026CF2E       __kstrtab_mtd_table_mutex
 0009:C026CF3E       __kstrtab_kill_mtd_super
 0009:C026CF4D       __kstrtab_get_sb_mtd
 0009:C026CF58       __kstrtab_parse_mtd_partitions
 0009:C026CF6D       __kstrtab_deregister_mtd_parser
 0009:C026CF83       __kstrtab_register_mtd_parser
 0009:C026CF97       __kstrtab_add_mtd_partitions
 0009:C026CFAA       __kstrtab_del_mtd_partitions
 0009:C026CFBD       __kstrtab_mtd_erase_callback
 0009:C026CFD0       __kstrtab_del_mtd_blktrans_dev
 0009:C026CFE5       __kstrtab_add_mtd_blktrans_dev
 0009:C026CFFA       __kstrtab_deregister_mtd_blktrans
 0009:C026D012       __kstrtab_register_mtd_blktrans
 0009:C026D028       __kstrtab_map_destroy
 0009:C026D034       __kstrtab_do_map_probe
 0009:C026D041       __kstrtab_unregister_mtd_chip_driver
 0009:C026D05C       __kstrtab_register_mtd_chip_driver
 0009:C026D075       __kstrtab_cfi_varsize_frob
 0009:C026D086       __kstrtab_cfi_fixup
 0009:C026D090       __kstrtab_cfi_read_pri
 0009:C026D09D       __kstrtab_cfi_qry_mode_off
 0009:C026D0AE       __kstrtab_cfi_qry_mode_on
 0009:C026D0BE       __kstrtab_cfi_qry_present
 0009:C026D0CE       __kstrtab_cfi_cmdset_0200
 0009:C026D0DE       __kstrtab_cfi_cmdset_0003
 0009:C026D0EE       __kstrtab_cfi_cmdset_0001
 0009:C026D0FE       __kstrtab_mtd_do_chip_probe
 0009:C026D110       __kstrtab_serio_interrupt
 0009:C026D120       __kstrtab_serio_close
 0009:C026D12C       __kstrtab_serio_open
 0009:C026D137       __kstrtab_serio_unregister_driver
 0009:C026D14F       __kstrtab___serio_register_driver
 0009:C026D167       __kstrtab_serio_unregister_child_port
 0009:C026D183       __kstrtab_serio_unregister_port
 0009:C026D199       __kstrtab___serio_register_port
 0009:C026D1AF       __kstrtab_serio_reconnect
 0009:C026D1BF       __kstrtab_serio_rescan
 0009:C026D1CC       __kstrtab_ps2_cmd_aborted
 0009:C026D1DC       __kstrtab_ps2_handle_response
 0009:C026D1F0       __kstrtab_ps2_handle_ack
 0009:C026D1FF       __kstrtab_ps2_init
 0009:C026D208       __kstrtab_ps2_command
 0009:C026D214       __kstrtab_ps2_is_keyboard_id
 0009:C026D227       __kstrtab_ps2_drain
 0009:C026D231       __kstrtab_ps2_sendbyte
 0009:C026D23E       __kstrtab_input_unregister_handle
 0009:C026D256       __kstrtab_input_register_handle
 0009:C026D26C       __kstrtab_input_unregister_handler
 0009:C026D285       __kstrtab_input_register_handler
 0009:C026D29C       __kstrtab_input_unregister_device
 0009:C026D2B4       __kstrtab_input_register_device
 0009:C026D2CA       __kstrtab_input_set_capability
 0009:C026D2DF       __kstrtab_input_free_device
 0009:C026D2F1       __kstrtab_input_allocate_device
 0009:C026D307       __kstrtab_input_class
 0009:C026D313       __kstrtab_input_set_keycode
 0009:C026D325       __kstrtab_input_get_keycode
 0009:C026D337       __kstrtab_input_close_device
 0009:C026D34A       __kstrtab_input_flush_device
 0009:C026D35D       __kstrtab_input_open_device
 0009:C026D36F       __kstrtab_input_release_device
 0009:C026D384       __kstrtab_input_grab_device
 0009:C026D396       __kstrtab_input_inject_event
 0009:C026D3A9       __kstrtab_input_event
 0009:C026D3B5       __kstrtab_input_ff_effect_from_user
 0009:C026D3CF       __kstrtab_input_event_to_user
 0009:C026D3E3       __kstrtab_input_event_from_user
 0009:C026D3F9       __kstrtab_input_ff_destroy
 0009:C026D40A       __kstrtab_input_ff_create
 0009:C026D41A       __kstrtab_input_ff_event
 0009:C026D429       __kstrtab_input_ff_erase
 0009:C026D438       __kstrtab_input_ff_upload
 0009:C026D448       __kstrtab_rtc_tm_to_time
 0009:C026D457       __kstrtab_rtc_valid_tm
 0009:C026D464       __kstrtab_rtc_time_to_tm
 0009:C026D473       __kstrtab_rtc_year_days
 0009:C026D481       __kstrtab_rtc_month_days
 0009:C026D490       __kstrtab___i2c_first_dynamic_bus_num
 0009:C026D4AC       __kstrtab___i2c_board_list
 0009:C026D4BD       __kstrtab___i2c_board_lock
 0009:C026D4CE       __kstrtab_i2c_smbus_xfer
 0009:C026D4DD       __kstrtab_i2c_smbus_write_i2c_block_data
 0009:C026D4FC       __kstrtab_i2c_smbus_read_i2c_block_data
 0009:C026D51A       __kstrtab_i2c_smbus_write_block_data
 0009:C026D535       __kstrtab_i2c_smbus_read_block_data
 0009:C026D54F       __kstrtab_i2c_smbus_process_call
 0009:C026D566       __kstrtab_i2c_smbus_write_word_data
 0009:C026D580       __kstrtab_i2c_smbus_read_word_data
 0009:C026D599       __kstrtab_i2c_smbus_write_byte_data
 0009:C026D5B3       __kstrtab_i2c_smbus_read_byte_data
 0009:C026D5CC       __kstrtab_i2c_smbus_write_byte
 0009:C026D5E1       __kstrtab_i2c_smbus_read_byte
 0009:C026D5F5       __kstrtab_i2c_put_adapter
 0009:C026D605       __kstrtab_i2c_get_adapter
 0009:C026D615       __kstrtab_i2c_new_probed_device
 0009:C026D62B       __kstrtab_i2c_master_recv
 0009:C026D63B       __kstrtab_i2c_master_send
 0009:C026D64B       __kstrtab_i2c_transfer
 0009:C026D658       __kstrtab_i2c_clients_command
 0009:C026D66C       __kstrtab_i2c_release_client
 0009:C026D67F       __kstrtab_i2c_use_client
 0009:C026D68E       __kstrtab_i2c_del_driver
 0009:C026D69D       __kstrtab_i2c_register_driver
 0009:C026D6B1       __kstrtab_i2c_del_adapter
 0009:C026D6C1       __kstrtab_i2c_add_numbered_adapter
 0009:C026D6DA       __kstrtab_i2c_add_adapter
 0009:C026D6EA       __kstrtab_i2c_new_dummy
 0009:C026D6F8       __kstrtab_i2c_unregister_device
 0009:C026D70E       __kstrtab_i2c_new_device
 0009:C026D71D       __kstrtab_i2c_verify_client
 0009:C026D72F       __kstrtab_i2c_bus_type
 0009:C026D73C       __kstrtab_mmc_resume_host
 0009:C026D74C       __kstrtab_mmc_suspend_host
 0009:C026D75D       __kstrtab_mmc_detect_change
 0009:C026D76F       __kstrtab_mmc_vddrange_to_ocrmask
 0009:C026D787       __kstrtab_mmc_release_host
 0009:C026D798       __kstrtab___mmc_claim_host
 0009:C026D7A9       __kstrtab_mmc_align_data_size
 0009:C026D7BD       __kstrtab_mmc_set_data_timeout
 0009:C026D7D2       __kstrtab_mmc_wait_for_cmd
 0009:C026D7E3       __kstrtab_mmc_wait_for_req
 0009:C026D7F4       __kstrtab_mmc_request_done
 0009:C026D805       __kstrtab_mmc_unregister_driver
 0009:C026D81B       __kstrtab_mmc_register_driver
 0009:C026D82F       __kstrtab_mmc_free_host
 0009:C026D83D       __kstrtab_mmc_remove_host
 0009:C026D84D       __kstrtab_mmc_add_host
 0009:C026D85A       __kstrtab_mmc_alloc_host
 0009:C026D869       __kstrtab_mmc_wait_for_app_cmd
 0009:C026D87E       __kstrtab_sdio_unregister_driver
 0009:C026D895       __kstrtab_sdio_register_driver
 0009:C026D8AA       __kstrtab_sdio_f0_writeb
 0009:C026D8B9       __kstrtab_sdio_f0_readb
 0009:C026D8C7       __kstrtab_sdio_writel
 0009:C026D8D3       __kstrtab_sdio_readl
 0009:C026D8DE       __kstrtab_sdio_writew
 0009:C026D8EA       __kstrtab_sdio_readw
 0009:C026D8F5       __kstrtab_sdio_writesb
 0009:C026D902       __kstrtab_sdio_readsb
 0009:C026D90E       __kstrtab_sdio_memcpy_toio
 0009:C026D91F       __kstrtab_sdio_memcpy_fromio
 0009:C026D932       __kstrtab_sdio_writeb
 0009:C026D93E       __kstrtab_sdio_readb
 0009:C026D949       __kstrtab_sdio_align_size
 0009:C026D959       __kstrtab_sdio_set_block_size
 0009:C026D96D       __kstrtab_sdio_disable_func
 0009:C026D97F       __kstrtab_sdio_enable_func
 0009:C026D990       __kstrtab_sdio_release_host
 0009:C026D9A2       __kstrtab_sdio_claim_host
 0009:C026D9B2       __kstrtab_sdio_release_irq
 0009:C026D9C3       __kstrtab_sdio_claim_irq
 0009:C026D9D2       __kstrtab_mmc_cleanup_queue
 0009:C026D9E4       __kstrtab_hid_check_keys_pressed
 0009:C026D9FB       __kstrtab_hid_unregister_driver
 0009:C026DA11       __kstrtab___hid_register_driver
 0009:C026DA27       __kstrtab_hid_destroy_device
 0009:C026DA3A       __kstrtab_hid_allocate_device
 0009:C026DA4E       __kstrtab_hid_add_device
 0009:C026DA5D       __kstrtab_hid_connect
 0009:C026DA69       __kstrtab_hid_input_report
 0009:C026DA7A       __kstrtab_hid_report_raw_event
 0009:C026DA8F       __kstrtab_hid_set_field
 0009:C026DA9D       __kstrtab_hid_output_report
 0009:C026DAAF       __kstrtab_hid_parse_report
 0009:C026DAC0       __kstrtab_hid_debug
 0009:C026DACA       __kstrtab_hidinput_disconnect
 0009:C026DADE       __kstrtab_hidinput_connect
 0009:C026DAEF       __kstrtab_hidinput_find_field
 0009:C026DB03       __kstrtab_hidinput_report_event
 0009:C026DB19       __kstrtab_hid_resolv_event
 0009:C026DB2A       __kstrtab_hid_dump_input
 0009:C026DB39       __kstrtab_hid_dump_device
 0009:C026DB49       __kstrtab_hid_dump_field
 0009:C026DB58       __kstrtab_hid_resolv_usage
 0009:C026DB69       __kstrtab_unregister_sound_dsp
 0009:C026DB7E       __kstrtab_unregister_sound_midi
 0009:C026DB94       __kstrtab_unregister_sound_mixer
 0009:C026DBAB       __kstrtab_unregister_sound_special
 0009:C026DBC4       __kstrtab_register_sound_dsp
 0009:C026DBD7       __kstrtab_register_sound_midi
 0009:C026DBEB       __kstrtab_register_sound_mixer
 0009:C026DC00       __kstrtab_register_sound_special
 0009:C026DC17       __kstrtab_register_sound_special_device
 0009:C026DC35       __kstrtab_sound_class
 0009:C026DC41       __kstrtab_kernel_sock_shutdown
 0009:C026DC56       __kstrtab_kernel_sock_ioctl
 0009:C026DC68       __kstrtab_kernel_sendpage
 0009:C026DC78       __kstrtab_kernel_setsockopt
 0009:C026DC8A       __kstrtab_kernel_getsockopt
 0009:C026DC9C       __kstrtab_kernel_getpeername
 0009:C026DCAF       __kstrtab_kernel_getsockname
 0009:C026DCC2       __kstrtab_kernel_connect
 0009:C026DCD1       __kstrtab_kernel_accept
 0009:C026DCDF       __kstrtab_kernel_listen
 0009:C026DCED       __kstrtab_kernel_bind
 0009:C026DCF9       __kstrtab_kernel_recvmsg
 0009:C026DD08       __kstrtab_kernel_sendmsg
 0009:C026DD17       __kstrtab_sockfd_lookup
 0009:C026DD25       __kstrtab_sock_wake_async
 0009:C026DD35       __kstrtab_sock_unregister
 0009:C026DD45       __kstrtab_sock_sendmsg
 0009:C026DD52       __kstrtab_sock_release
 0009:C026DD5F       __kstrtab_sock_register
 0009:C026DD6D       __kstrtab_sock_recvmsg
 0009:C026DD7A       __kstrtab_sock_map_fd
 0009:C026DD86       __kstrtab_sock_create_lite
 0009:C026DD97       __kstrtab_sock_create_kern
 0009:C026DDA8       __kstrtab_sock_create
 0009:C026DDB4       __kstrtab_dlci_ioctl_set
 0009:C026DDC3       __kstrtab_vlan_ioctl_set
 0009:C026DDD2       __kstrtab_brioctl_set
 0009:C026DDDE       __kstrtab___sock_recv_timestamp
 0009:C026DDF4       __kstrtab_sock_tx_timestamp
 0009:C026DE06       __kstrtab_proto_unregister
 0009:C026DE17       __kstrtab_proto_register
 0009:C026DE26       __kstrtab_sock_prot_inuse_get
 0009:C026DE3A       __kstrtab_sock_prot_inuse_add
 0009:C026DE4E       __kstrtab_sk_common_release
 0009:C026DE60       __kstrtab_sock_common_setsockopt
 0009:C026DE77       __kstrtab_sock_common_recvmsg
 0009:C026DE8B       __kstrtab_sock_common_getsockopt
 0009:C026DEA2       __kstrtab_sock_get_timestampns
 0009:C026DEB7       __kstrtab_sock_get_timestamp
 0009:C026DECA       __kstrtab_release_sock
 0009:C026DED7       __kstrtab_lock_sock_nested
 0009:C026DEE8       __kstrtab_sock_init_data
 0009:C026DEF7       __kstrtab_sk_stop_timer
 0009:C026DF05       __kstrtab_sk_reset_timer
 0009:C026DF14       __kstrtab_sk_send_sigurg
 0009:C026DF23       __kstrtab_sock_no_sendpage
 0009:C026DF34       __kstrtab_sock_no_mmap
 0009:C026DF41       __kstrtab_sock_no_recvmsg
 0009:C026DF51       __kstrtab_sock_no_sendmsg
 0009:C026DF61       __kstrtab_sock_no_getsockopt
 0009:C026DF74       __kstrtab_sock_no_setsockopt
 0009:C026DF87       __kstrtab_sock_no_shutdown
 0009:C026DF98       __kstrtab_sock_no_listen
 0009:C026DFA7       __kstrtab_sock_no_ioctl
 0009:C026DFB5       __kstrtab_sock_no_poll
 0009:C026DFC2       __kstrtab_sock_no_getname
 0009:C026DFD2       __kstrtab_sock_no_accept
 0009:C026DFE1       __kstrtab_sock_no_socketpair
 0009:C026DFF4       __kstrtab_sock_no_connect
 0009:C026E004       __kstrtab_sock_no_bind
 0009:C026E011       __kstrtab___sk_mem_reclaim
 0009:C026E022       __kstrtab___sk_mem_schedule
 0009:C026E034       __kstrtab_sk_wait_data
 0009:C026E041       __kstrtab_sock_alloc_send_skb
 0009:C026E055       __kstrtab_sock_alloc_send_pskb
 0009:C026E06A       __kstrtab_sock_kfree_s
 0009:C026E077       __kstrtab_sock_kmalloc
 0009:C026E084       __kstrtab_sock_wmalloc
 0009:C026E091       __kstrtab_sock_i_ino
 0009:C026E09C       __kstrtab_sock_i_uid
 0009:C026E0A7       __kstrtab_sock_rfree
 0009:C026E0B2       __kstrtab_sock_wfree
 0009:C026E0BD       __kstrtab_sk_setup_caps
 0009:C026E0CB       __kstrtab_sk_clone
 0009:C026E0D4       __kstrtab_sk_release_kernel
 0009:C026E0E6       __kstrtab_sk_free
 0009:C026E0EE       __kstrtab_sk_alloc
 0009:C026E0F7       __kstrtab_sock_setsockopt
 0009:C026E107       __kstrtab_sk_dst_check
 0009:C026E114       __kstrtab___sk_dst_check
 0009:C026E123       __kstrtab_sk_receive_skb
 0009:C026E132       __kstrtab_sock_queue_rcv_skb
 0009:C026E145       __kstrtab_sysctl_optmem_max
 0009:C026E157       __kstrtab___skb_warn_lro_forwarding
 0009:C026E171       __kstrtab_skb_partial_csum_set
 0009:C026E186       __kstrtab_skb_tstamp_tx
 0009:C026E194       __kstrtab_skb_cow_data
 0009:C026E1A1       __kstrtab_skb_to_sgvec
 0009:C026E1AE       __kstrtab_skb_gro_receive
 0009:C026E1BE       __kstrtab_skb_segment
 0009:C026E1CA       __kstrtab_skb_pull_rcsum
 0009:C026E1D9       __kstrtab_skb_append_datato_frags
 0009:C026E1F1       __kstrtab_skb_find_text
 0009:C026E1FF       __kstrtab_skb_abort_seq_read
 0009:C026E212       __kstrtab_skb_seq_read
 0009:C026E21F       __kstrtab_skb_prepare_seq_read
 0009:C026E234       __kstrtab_skb_split
 0009:C026E23E       __kstrtab_skb_insert
 0009:C026E249       __kstrtab_skb_append
 0009:C026E254       __kstrtab_skb_unlink
 0009:C026E25F       __kstrtab_skb_queue_tail
 0009:C026E26E       __kstrtab_skb_queue_head
 0009:C026E27D       __kstrtab_skb_queue_purge
 0009:C026E28D       __kstrtab_skb_dequeue_tail
 0009:C026E29E       __kstrtab_skb_dequeue
 0009:C026E2AA       __kstrtab_skb_copy_and_csum_dev
 0009:C026E2C0       __kstrtab_skb_copy_and_csum_bits
 0009:C026E2D7       __kstrtab_skb_checksum
 0009:C026E2E4       __kstrtab_skb_store_bits
 0009:C026E2F3       __kstrtab_skb_copy_bits
 0009:C026E301       __kstrtab___pskb_pull_tail
 0009:C026E312       __kstrtab____pskb_trim
 0009:C026E31F       __kstrtab_skb_trim
 0009:C026E328       __kstrtab_skb_pull
 0009:C026E331       __kstrtab_skb_push
 0009:C026E33A       __kstrtab_skb_put
 0009:C026E342       __kstrtab_skb_pad
 0009:C026E34A       __kstrtab_skb_copy_expand
 0009:C026E35A       __kstrtab_skb_realloc_headroom
 0009:C026E36F       __kstrtab_pskb_expand_head
 0009:C026E380       __kstrtab_pskb_copy
 0009:C026E38A       __kstrtab_skb_copy
 0009:C026E393       __kstrtab_skb_clone
 0009:C026E39D       __kstrtab_skb_morph
 0009:C026E3A7       __kstrtab_skb_recycle_check
 0009:C026E3B9       __kstrtab_consume_skb
 0009:C026E3C5       __kstrtab_kfree_skb
 0009:C026E3CF       __kstrtab___kfree_skb
 0009:C026E3DB       __kstrtab_dev_alloc_skb
 0009:C026E3E9       __kstrtab_skb_add_rx_frag
 0009:C026E3F9       __kstrtab___netdev_alloc_page
 0009:C026E40D       __kstrtab___netdev_alloc_skb
 0009:C026E420       __kstrtab___alloc_skb
 0009:C026E42C       __kstrtab_skb_under_panic
 0009:C026E43C       __kstrtab_skb_over_panic
 0009:C026E44B       __kstrtab_memcpy_toiovecend
 0009:C026E45D       __kstrtab_memcpy_toiovec
 0009:C026E46C       __kstrtab_memcpy_fromiovecend
 0009:C026E480       __kstrtab_memcpy_fromiovec
 0009:C026E491       __kstrtab_csum_partial_copy_fromiovecend
 0009:C026E4B0       __kstrtab_skb_recv_datagram
 0009:C026E4C2       __kstrtab_skb_copy_datagram_iovec
 0009:C026E4DA       __kstrtab_skb_copy_and_csum_datagram_iovec
 0009:C026E4FB       __kstrtab_datagram_poll
 0009:C026E509       __kstrtab___skb_checksum_complete
 0009:C026E521       __kstrtab___skb_checksum_complete_head
 0009:C026E53E       __kstrtab_skb_copy_datagram_from_iovec
 0009:C026E55B       __kstrtab_skb_copy_datagram_const_iovec
 0009:C026E579       __kstrtab_skb_kill_datagram
 0009:C026E58B       __kstrtab_skb_free_datagram_locked
 0009:C026E5A4       __kstrtab_skb_free_datagram
 0009:C026E5B6       __kstrtab___skb_recv_datagram
 0009:C026E5CA       __kstrtab_sk_stream_kill_queues
 0009:C026E5E0       __kstrtab_sk_stream_error
 0009:C026E5F0       __kstrtab_sk_stream_wait_memory
 0009:C026E606       __kstrtab_sk_stream_wait_close
 0009:C026E61B       __kstrtab_sk_stream_wait_connect
 0009:C026E632       __kstrtab_sk_stream_write_space
 0009:C026E648       __kstrtab_scm_fp_dup
 0009:C026E653       __kstrtab_scm_detach_fds
 0009:C026E662       __kstrtab_put_cmsg
 0009:C026E66B       __kstrtab___scm_send
 0009:C026E676       __kstrtab___scm_destroy
 0009:C026E684       __kstrtab_gnet_stats_finish_copy
 0009:C026E69B       __kstrtab_gnet_stats_copy_app
 0009:C026E6AF       __kstrtab_gnet_stats_copy_queue
 0009:C026E6C5       __kstrtab_gnet_stats_copy_rate_est
 0009:C026E6DE       __kstrtab_gnet_stats_copy_basic
 0009:C026E6F4       __kstrtab_gnet_stats_start_copy_compat
 0009:C026E711       __kstrtab_gnet_stats_start_copy
 0009:C026E727       __kstrtab_gen_estimator_active
 0009:C026E73C       __kstrtab_gen_replace_estimator
 0009:C026E752       __kstrtab_gen_kill_estimator
 0009:C026E765       __kstrtab_gen_new_estimator
 0009:C026E777       __kstrtab_net_assign_generic
 0009:C026E78A       __kstrtab_unregister_pernet_gen_device
 0009:C026E7A7       __kstrtab_unregister_pernet_device
 0009:C026E7C0       __kstrtab_register_pernet_gen_device
 0009:C026E7DB       __kstrtab_register_pernet_device
 0009:C026E7F2       __kstrtab_unregister_pernet_gen_subsys
 0009:C026E80F       __kstrtab_register_pernet_gen_subsys
 0009:C026E82A       __kstrtab_unregister_pernet_subsys
 0009:C026E843       __kstrtab_register_pernet_subsys
 0009:C026E85A       __kstrtab_init_net
 0009:C026E863       __kstrtab_net_namespace_list
 0009:C026E876       __kstrtab_skb_dma_unmap
 0009:C026E884       __kstrtab_skb_dma_map
 0009:C026E890       __kstrtab_per_cpu__softnet_data
 0009:C026E8A6       __kstrtab_dev_load
 0009:C026E8AF       __kstrtab_dev_get_flags
 0009:C026E8BD       __kstrtab_net_disable_timestamp
 0009:C026E8D3       __kstrtab_net_enable_timestamp
 0009:C026E8E8       __kstrtab_unregister_netdevice_notifier
 0009:C026E906       __kstrtab_unregister_netdevice
 0009:C026E91B       __kstrtab_synchronize_net
 0009:C026E92B       __kstrtab_skb_checksum_help
 0009:C026E93D       __kstrtab_register_netdevice_notifier
 0009:C026E959       __kstrtab_register_netdevice
 0009:C026E96C       __kstrtab_register_gifconf
 0009:C026E97D       __kstrtab_netif_rx
 0009:C026E986       __kstrtab_netif_receive_skb
 0009:C026E998       __kstrtab_netdev_state_change
 0009:C026E9AC       __kstrtab_netdev_set_master
 0009:C026E9BE       __kstrtab_netdev_boot_setup_check
 0009:C026E9D6       __kstrtab_free_netdev
 0009:C026E9E2       __kstrtab_dev_set_mac_address
 0009:C026E9F6       __kstrtab_dev_set_mtu
 0009:C026EA02       __kstrtab_dev_change_flags
 0009:C026EA13       __kstrtab_dev_set_promiscuity
 0009:C026EA27       __kstrtab_dev_set_allmulti
 0009:C026EA38       __kstrtab_dev_remove_pack
 0009:C026EA48       __kstrtab_dev_queue_xmit
 0009:C026EA57       __kstrtab_dev_open
 0009:C026EA60       __kstrtab_dev_get_by_name
 0009:C026EA70       __kstrtab_dev_get_by_index
 0009:C026EA81       __kstrtab_dev_get_by_flags
 0009:C026EA92       __kstrtab_dev_close
 0009:C026EA9C       __kstrtab_dev_alloc_name
 0009:C026EAAB       __kstrtab_dev_add_pack
 0009:C026EAB8       __kstrtab_dev_valid_name
 0009:C026EAC7       __kstrtab___dev_remove_pack
 0009:C026EAD9       __kstrtab___dev_get_by_name
 0009:C026EAEB       __kstrtab___dev_get_by_index
 0009:C026EAFE       __kstrtab_netdev_increment_features
 0009:C026EB18       __kstrtab_unregister_netdev
 0009:C026EB2A       __kstrtab_alloc_netdev_mq
 0009:C026EB3A       __kstrtab_dev_get_stats
 0009:C026EB48       __kstrtab_register_netdev
 0009:C026EB58       __kstrtab_init_dummy_netdev
 0009:C026EB6A       __kstrtab_netdev_fix_features
 0009:C026EB7E       __kstrtab_dev_unicast_unsync
 0009:C026EB91       __kstrtab_dev_unicast_sync
 0009:C026EBA2       __kstrtab_dev_unicast_add
 0009:C026EBB2       __kstrtab_dev_unicast_delete
 0009:C026EBC5       __kstrtab_dev_addr_del_multiple
 0009:C026EBDB       __kstrtab_dev_addr_add_multiple
 0009:C026EBF1       __kstrtab_dev_addr_del
 0009:C026EBFE       __kstrtab_dev_addr_add
 0009:C026EC0B       __kstrtab_netif_napi_del
 0009:C026EC1A       __kstrtab_netif_napi_add
 0009:C026EC29       __kstrtab_napi_complete
 0009:C026EC37       __kstrtab___napi_complete
 0009:C026EC47       __kstrtab___napi_schedule
 0009:C026EC57       __kstrtab_napi_gro_frags
 0009:C026EC66       __kstrtab_napi_frags_skb
 0009:C026EC75       __kstrtab_napi_frags_finish
 0009:C026EC87       __kstrtab_napi_get_frags
 0009:C026EC96       __kstrtab_napi_reuse_skb
 0009:C026ECA5       __kstrtab_napi_gro_receive
 0009:C026ECB6       __kstrtab_skb_gro_reset_offset
 0009:C026ECCB       __kstrtab_napi_skb_finish
 0009:C026ECDB       __kstrtab_dev_gro_receive
 0009:C026ECEB       __kstrtab_napi_gro_flush
 0009:C026ECFA       __kstrtab_netif_rx_ni
 0009:C026ED06       __kstrtab_skb_tx_hash
 0009:C026ED12       __kstrtab_netdev_rx_csum_fault
 0009:C026ED27       __kstrtab_skb_gso_segment
 0009:C026ED37       __kstrtab_netif_device_attach
 0009:C026ED4B       __kstrtab_netif_device_detach
 0009:C026ED5F       __kstrtab_dev_kfree_skb_any
 0009:C026ED71       __kstrtab_dev_kfree_skb_irq
 0009:C026ED83       __kstrtab___netif_schedule
 0009:C026ED94       __kstrtab_dev_disable_lro
 0009:C026EDA4       __kstrtab_netdev_bonding_change
 0009:C026EDBA       __kstrtab_netdev_features_change
 0009:C026EDD1       __kstrtab_dev_getfirstbyhwtype
 0009:C026EDE6       __kstrtab___dev_getfirstbyhwtype
 0009:C026EDFD       __kstrtab_dev_getbyhwaddr
 0009:C026EE0D       __kstrtab_dev_base_lock
 0009:C026EE1B       __kstrtab_ethtool_op_get_flags
 0009:C026EE30       __kstrtab_ethtool_op_set_flags
 0009:C026EE45       __kstrtab_ethtool_op_get_ufo
 0009:C026EE58       __kstrtab_ethtool_op_set_ufo
 0009:C026EE6B       __kstrtab_ethtool_op_set_tx_ipv6_csum
 0009:C026EE87       __kstrtab_ethtool_op_set_tx_hw_csum
 0009:C026EEA1       __kstrtab_ethtool_op_set_tx_csum
 0009:C026EEB8       __kstrtab_ethtool_op_set_tso
 0009:C026EECB       __kstrtab_ethtool_op_set_sg
 0009:C026EEDD       __kstrtab_ethtool_op_get_tx_csum
 0009:C026EEF4       __kstrtab_ethtool_op_get_tso
 0009:C026EF07       __kstrtab_ethtool_op_get_sg
 0009:C026EF19       __kstrtab_ethtool_op_get_link
 0009:C026EF2D       __kstrtab_dev_mc_delete
 0009:C026EF3B       __kstrtab_dev_mc_add
 0009:C026EF46       __kstrtab_dev_mc_unsync
 0009:C026EF54       __kstrtab_dev_mc_sync
 0009:C026EF60       __kstrtab_dst_destroy
 0009:C026EF6C       __kstrtab_dst_alloc
 0009:C026EF76       __kstrtab___dst_free
 0009:C026EF81       __kstrtab_dst_release
 0009:C026EF8D       __kstrtab_dst_discard
 0009:C026EF99       __kstrtab_call_netevent_notifiers
 0009:C026EFB1       __kstrtab_unregister_netevent_notifier
 0009:C026EFCE       __kstrtab_register_netevent_notifier
 0009:C026EFE9       __kstrtab_neigh_sysctl_unregister
 0009:C026F001       __kstrtab_neigh_sysctl_register
 0009:C026F017       __kstrtab_neigh_seq_stop
 0009:C026F026       __kstrtab_neigh_seq_next
 0009:C026F035       __kstrtab_neigh_seq_start
 0009:C026F045       __kstrtab___neigh_for_each_release
 0009:C026F05E       __kstrtab_neigh_for_each
 0009:C026F06D       __kstrtab_neigh_table_clear
 0009:C026F07F       __kstrtab_neigh_table_init
 0009:C026F090       __kstrtab_neigh_table_init_no_netlink
 0009:C026F0AC       __kstrtab_neigh_parms_release
 0009:C026F0C0       __kstrtab_neigh_parms_alloc
 0009:C026F0D2       __kstrtab_pneigh_enqueue
 0009:C026F0E1       __kstrtab_neigh_connected_output
 0009:C026F0F8       __kstrtab_neigh_resolve_output
 0009:C026F10D       __kstrtab_neigh_compat_output
 0009:C026F121       __kstrtab_neigh_event_ns
 0009:C026F130       __kstrtab_neigh_update
 0009:C026F13D       __kstrtab___neigh_event_send
 0009:C026F150       __kstrtab_neigh_destroy
 0009:C026F15E       __kstrtab_pneigh_lookup
 0009:C026F16C       __kstrtab___pneigh_lookup
 0009:C026F17C       __kstrtab_neigh_create
 0009:C026F189       __kstrtab_neigh_lookup_nodev
 0009:C026F19C       __kstrtab_neigh_lookup
 0009:C026F1A9       __kstrtab_neigh_ifdown
 0009:C026F1B6       __kstrtab_neigh_changeaddr
 0009:C026F1C7       __kstrtab_neigh_rand_reach_time
 0009:C026F1DD       __kstrtab_ifla_policy
 0009:C026F1E9       __kstrtab_rtnl_create_link
 0009:C026F1FA       __kstrtab_rtnl_set_sk_err
 0009:C026F20A       __kstrtab_rtnl_notify
 0009:C026F216       __kstrtab_rtnl_unicast
 0009:C026F223       __kstrtab_rtnl_is_locked
 0009:C026F232       __kstrtab_rtnl_unlock
 0009:C026F23E       __kstrtab_rtnl_trylock
 0009:C026F24B       __kstrtab_rtnl_lock
 0009:C026F255       __kstrtab_rtnetlink_put_metrics
 0009:C026F26B       __kstrtab___rta_fill
 0009:C026F276       __kstrtab_rtnl_put_cacheinfo
 0009:C026F289       __kstrtab_rtnl_link_unregister
 0009:C026F29E       __kstrtab___rtnl_link_unregister
 0009:C026F2B5       __kstrtab_rtnl_kill_links
 0009:C026F2C5       __kstrtab_rtnl_link_register
 0009:C026F2D8       __kstrtab___rtnl_link_register
 0009:C026F2ED       __kstrtab_rtnl_unregister_all
 0009:C026F301       __kstrtab_rtnl_unregister
 0009:C026F311       __kstrtab_rtnl_register
 0009:C026F31F       __kstrtab___rtnl_register
 0009:C026F32F       __kstrtab_inet_proto_csum_replace4
 0009:C026F348       __kstrtab_in6_pton
 0009:C026F351       __kstrtab_in4_pton
 0009:C026F35A       __kstrtab_in_aton
 0009:C026F362       __kstrtab_net_ratelimit
 0009:C026F370       __kstrtab_net_msg_warn
 0009:C026F37D       __kstrtab_linkwatch_fire_event
 0009:C026F392       __kstrtab_sk_chk_filter
 0009:C026F3A0       __kstrtab_sk_run_filter
 0009:C026F3AE       __kstrtab_sk_filter
 0009:C026F3B8       __kstrtab_flow_cache_lookup
 0009:C026F3CA       __kstrtab_flow_cache_genid
 0009:C026F3DB       __kstrtab_netdev_class_remove_file
 0009:C026F3F4       __kstrtab_netdev_class_create_file
 0009:C026F40D       __kstrtab_print_mac
 0009:C026F417       __kstrtab_sysfs_format_mac
 0009:C026F428       __kstrtab_alloc_etherdev_mq
 0009:C026F43A       __kstrtab_ether_setup
 0009:C026F446       __kstrtab_eth_validate_addr
 0009:C026F458       __kstrtab_eth_change_mtu
 0009:C026F467       __kstrtab_eth_mac_addr
 0009:C026F474       __kstrtab_eth_header_cache_update
 0009:C026F48C       __kstrtab_eth_header_cache
 0009:C026F49D       __kstrtab_eth_header_parse
 0009:C026F4AE       __kstrtab_eth_type_trans
 0009:C026F4BD       __kstrtab_eth_rebuild_header
 0009:C026F4D0       __kstrtab_eth_header
 0009:C026F4DB       __kstrtab_qdisc_destroy
 0009:C026F4E9       __kstrtab_qdisc_reset
 0009:C026F4F5       __kstrtab_qdisc_create_dflt
 0009:C026F507       __kstrtab_noop_qdisc
 0009:C026F512       __kstrtab_netif_carrier_off
 0009:C026F524       __kstrtab_netif_carrier_on
 0009:C026F535       __kstrtab_dev_trans_start
 0009:C026F545       __kstrtab_netlink_unregister_notifier
 0009:C026F561       __kstrtab_netlink_register_notifier
 0009:C026F57B       __kstrtab_nlmsg_notify
 0009:C026F588       __kstrtab_netlink_rcv_skb
 0009:C026F598       __kstrtab_netlink_ack
 0009:C026F5A4       __kstrtab_netlink_dump_start
 0009:C026F5B7       __kstrtab_netlink_set_nonroot
 0009:C026F5CB       __kstrtab_netlink_clear_multicast_users
 0009:C026F5E9       __kstrtab_netlink_change_ngroups
 0009:C026F600       __kstrtab_netlink_kernel_release
 0009:C026F617       __kstrtab_netlink_kernel_create
 0009:C026F62D       __kstrtab_netlink_set_err
 0009:C026F63D       __kstrtab_netlink_broadcast
 0009:C026F64F       __kstrtab_netlink_has_listeners
 0009:C026F665       __kstrtab_netlink_unicast
 0009:C026F675       __kstrtab_genl_unregister_family
 0009:C026F68C       __kstrtab_genl_register_family
 0009:C026F6A1       __kstrtab_genl_unregister_ops
 0009:C026F6B5       __kstrtab_genl_register_ops
 0009:C026F6C7       __kstrtab_genl_sock
 0009:C026F6D1       __kstrtab_genl_register_family_with_ops
 0009:C026F6EF       __kstrtab_genl_unregister_mc_group
 0009:C026F708       __kstrtab_genl_register_mc_group
 0009:C026F71F       __kstrtab_ip_route_output_key
 0009:C026F733       __kstrtab_ip_route_input
 0009:C026F742       __kstrtab___ip_select_ident
 0009:C026F754       __kstrtab_ip_route_output_flow
 0009:C026F769       __kstrtab___ip_route_output_key
 0009:C026F77F       __kstrtab_inet_del_protocol
 0009:C026F791       __kstrtab_inet_add_protocol
 0009:C026F7A3       __kstrtab_ip_defrag
 0009:C026F7AD       __kstrtab_ip_send_check
 0009:C026F7BB       __kstrtab_ip_queue_xmit
 0009:C026F7C9       __kstrtab_ip_generic_getfrag
 0009:C026F7DC       __kstrtab_ip_fragment
 0009:C026F7E8       __kstrtab_ip_build_and_send_pkt
 0009:C026F7FE       __kstrtab_ip_local_out
 0009:C026F80B       __kstrtab_ip_getsockopt
 0009:C026F819       __kstrtab_ip_setsockopt
 0009:C026F827       __kstrtab_ip_cmsg_recv
 0009:C026F834       __kstrtab_inet_hashinfo_init
 0009:C026F847       __kstrtab_inet_hash_connect
 0009:C026F859       __kstrtab_inet_unhash
 0009:C026F865       __kstrtab_inet_hash
 0009:C026F86F       __kstrtab___inet_hash_nolisten
 0009:C026F884       __kstrtab___inet_lookup_established
 0009:C026F89E       __kstrtab___inet_lookup_listener
 0009:C026F8B5       __kstrtab___inet_inherit_port
 0009:C026F8C9       __kstrtab_inet_put_port
 0009:C026F8D7       __kstrtab_inet_twsk_purge
 0009:C026F8E7       __kstrtab_inet_twdr_twcal_tick
 0009:C026F8FC       __kstrtab_inet_twsk_schedule
 0009:C026F90F       __kstrtab_inet_twsk_deschedule
 0009:C026F924       __kstrtab_inet_twdr_twkill_work
 0009:C026F93A       __kstrtab_inet_twdr_hangman
 0009:C026F94C       __kstrtab_inet_twsk_alloc
 0009:C026F95C       __kstrtab___inet_twsk_hashdance
 0009:C026F972       __kstrtab_inet_twsk_put
 0009:C026F980       __kstrtab_inet_csk_addr2sockaddr
 0009:C026F997       __kstrtab_inet_csk_listen_stop
 0009:C026F9AC       __kstrtab_inet_csk_listen_start
 0009:C026F9C2       __kstrtab_inet_csk_destroy_sock
 0009:C026F9D8       __kstrtab_inet_csk_clone
 0009:C026F9E7       __kstrtab_inet_csk_reqsk_queue_prune
 0009:C026FA02       __kstrtab_inet_csk_reqsk_queue_hash_add
 0009:C026FA20       __kstrtab_inet_csk_search_req
 0009:C026FA34       __kstrtab_inet_csk_route_req
 0009:C026FA47       __kstrtab_inet_csk_reset_keepalive_timer
 0009:C026FA66       __kstrtab_inet_csk_delete_keepalive_timer
 0009:C026FA86       __kstrtab_inet_csk_clear_xmit_timers
 0009:C026FAA1       __kstrtab_inet_csk_init_xmit_timers
 0009:C026FABB       __kstrtab_inet_csk_accept
 0009:C026FACB       __kstrtab_inet_csk_get_port
 0009:C026FADD       __kstrtab_inet_csk_bind_conflict
 0009:C026FAF4       __kstrtab_inet_get_local_port_range
 0009:C026FB0E       __kstrtab_inet_csk_timer_bug_msg
 0009:C026FB25       __kstrtab_tcp_shutdown
 0009:C026FB32       __kstrtab_tcp_setsockopt
 0009:C026FB41       __kstrtab_tcp_sendpage
 0009:C026FB4E       __kstrtab_tcp_splice_read
 0009:C026FB5E       __kstrtab_tcp_sendmsg
 0009:C026FB6A       __kstrtab_tcp_recvmsg
 0009:C026FB76       __kstrtab_tcp_read_sock
 0009:C026FB84       __kstrtab_tcp_poll
 0009:C026FB8D       __kstrtab_tcp_ioctl
 0009:C026FB97       __kstrtab_tcp_getsockopt
 0009:C026FBA6       __kstrtab_tcp_disconnect
 0009:C026FBB5       __kstrtab_tcp_close
 0009:C026FBBF       __kstrtab_tcp_done
 0009:C026FBC8       __kstrtab_tcp_gro_complete
 0009:C026FBD9       __kstrtab_tcp_gro_receive
 0009:C026FBE9       __kstrtab_tcp_tso_segment
 0009:C026FBF9       __kstrtab_tcp_get_info
 0009:C026FC06       __kstrtab_tcp_set_state
 0009:C026FC14       __kstrtab_tcp_enter_memory_pressure
 0009:C026FC2E       __kstrtab_tcp_memory_pressure
 0009:C026FC42       __kstrtab_tcp_sockets_allocated
 0009:C026FC58       __kstrtab_tcp_memory_allocated
 0009:C026FC6D       __kstrtab_sysctl_tcp_wmem
 0009:C026FC7D       __kstrtab_sysctl_tcp_rmem
 0009:C026FC8D       __kstrtab_sysctl_tcp_mem
 0009:C026FC9C       __kstrtab_tcp_orphan_count
 0009:C026FCAD       __kstrtab_tcp_initialize_rcv_mss
 0009:C026FCC4       __kstrtab_tcp_rcv_state_process
 0009:C026FCDA       __kstrtab_tcp_rcv_established
 0009:C026FCEE       __kstrtab_tcp_parse_options
 0009:C026FD00       __kstrtab_sysctl_tcp_adv_win_scale
 0009:C026FD19       __kstrtab_sysctl_tcp_reordering
 0009:C026FD2F       __kstrtab_sysctl_tcp_ecn
 0009:C026FD3E       __kstrtab_tcp_mtup_init
 0009:C026FD4C       __kstrtab_tcp_sync_mss
 0009:C026FD59       __kstrtab_tcp_simple_retransmit
 0009:C026FD6F       __kstrtab_tcp_make_synack
 0009:C026FD7F       __kstrtab_tcp_connect
 0009:C026FD8B       __kstrtab_tcp_select_initial_window
 0009:C026FDA5       __kstrtab_tcp_init_xmit_timers
 0009:C026FDBA       __kstrtab_sysctl_tcp_low_latency
 0009:C026FDD1       __kstrtab_tcp_proc_unregister
 0009:C026FDE5       __kstrtab_tcp_proc_register
 0009:C026FDF7       __kstrtab_tcp_v4_syn_recv_sock
 0009:C026FE0C       __kstrtab_tcp_v4_send_check
 0009:C026FE1E       __kstrtab_tcp_v4_remember_stamp
 0009:C026FE34       __kstrtab_tcp_v4_do_rcv
 0009:C026FE42       __kstrtab_tcp_v4_connect
 0009:C026FE51       __kstrtab_tcp_v4_conn_request
 0009:C026FE65       __kstrtab_tcp_prot
 0009:C026FE6E       __kstrtab_tcp_hashinfo
 0009:C026FE7B       __kstrtab_ipv4_specific
 0009:C026FE89       __kstrtab_tcp4_gro_complete
 0009:C026FE9B       __kstrtab_tcp4_gro_receive
 0009:C026FEAC       __kstrtab_tcp_v4_destroy_sock
 0009:C026FEC0       __kstrtab_tcp_twsk_unique
 0009:C026FED0       __kstrtab_tcp_timewait_state_process
 0009:C026FEEB       __kstrtab_tcp_create_openreq_child
 0009:C026FF04       __kstrtab_tcp_child_process
 0009:C026FF16       __kstrtab_tcp_check_req
 0009:C026FF24       __kstrtab_tcp_twsk_destructor
 0009:C026FF38       __kstrtab_tcp_death_row
 0009:C026FF46       __kstrtab_sysctl_tcp_syncookies
 0009:C026FF5C       __kstrtab_tcp_init_congestion_ops
 0009:C026FF74       __kstrtab_tcp_reno_min_cwnd
 0009:C026FF86       __kstrtab_tcp_reno_ssthresh
 0009:C026FF98       __kstrtab_tcp_reno_cong_avoid
 0009:C026FFAC       __kstrtab_tcp_cong_avoid_ai
 0009:C026FFBE       __kstrtab_tcp_slow_start
 0009:C026FFCD       __kstrtab_tcp_is_cwnd_limited
 0009:C026FFE1       __kstrtab_tcp_unregister_congestion_control
 0009:C0270003       __kstrtab_tcp_register_congestion_control
 0009:C0270023       __kstrtab_ip4_datagram_connect
 0009:C0270038       __kstrtab_raw_seq_open
 0009:C0270045       __kstrtab_raw_seq_stop
 0009:C0270052       __kstrtab_raw_seq_next
 0009:C027005F       __kstrtab_raw_seq_start
 0009:C027006D       __kstrtab_raw_unhash_sk
 0009:C027007B       __kstrtab_raw_hash_sk
 0009:C0270087       __kstrtab_udp_proc_unregister
 0009:C027009B       __kstrtab_udp_proc_register
 0009:C02700AD       __kstrtab_udp_lib_get_port
 0009:C02700BE       __kstrtab_udp_poll
 0009:C02700C7       __kstrtab_udp_lib_setsockopt
 0009:C02700DA       __kstrtab_udp_lib_getsockopt
 0009:C02700ED       __kstrtab_udp_sendmsg
 0009:C02700F9       __kstrtab_udp_prot
 0009:C0270102       __kstrtab_udp_ioctl
 0009:C027010C       __kstrtab_udp_disconnect
 0009:C027011B       __kstrtab_udp_lib_unhash
 0009:C027012A       __kstrtab_udp_flush_pending_frames
 0009:C0270143       __kstrtab_udp4_lib_lookup
 0009:C0270153       __kstrtab_udp_memory_allocated
 0009:C0270168       __kstrtab_sysctl_udp_wmem_min
 0009:C027017C       __kstrtab_sysctl_udp_rmem_min
 0009:C0270190       __kstrtab_sysctl_udp_mem
 0009:C027019F       __kstrtab_udp_table
 0009:C02701A9       __kstrtab_udplite_prot
 0009:C02701B6       __kstrtab_udplite_table
 0009:C02701C4       __kstrtab_arp_tbl
 0009:C02701CC       __kstrtab_arp_send
 0009:C02701D5       __kstrtab_arp_xmit
 0009:C02701DE       __kstrtab_arp_create
 0009:C02701E9       __kstrtab_arp_find
 0009:C02701F2       __kstrtab_arp_broken_ops
 0009:C0270201       __kstrtab_xrlim_allow
 0009:C027020D       __kstrtab_icmp_send
 0009:C0270217       __kstrtab_icmp_err_convert
 0009:C0270228       __kstrtab_unregister_inetaddr_notifier
 0009:C0270245       __kstrtab_register_inetaddr_notifier
 0009:C0270260       __kstrtab_inetdev_by_index
 0009:C0270271       __kstrtab_inet_select_addr
 0009:C0270282       __kstrtab_in_dev_finish_destroy
 0009:C0270298       __kstrtab_sysctl_ip_nonlocal_bind
 0009:C02702B0       __kstrtab_inet_unregister_protosw
 0009:C02702C8       __kstrtab_inet_stream_ops
 0009:C02702D8       __kstrtab_inet_stream_connect
 0009:C02702EC       __kstrtab_inet_sock_destruct
 0009:C02702FF       __kstrtab_inet_shutdown
 0009:C027030D       __kstrtab_inet_sendmsg
 0009:C027031A       __kstrtab_inet_release
 0009:C0270327       __kstrtab_inet_register_protosw
 0009:C027033D       __kstrtab_inet_listen
 0009:C0270349       __kstrtab_inet_ioctl
 0009:C0270354       __kstrtab_inet_getname
 0009:C0270361       __kstrtab_inet_dgram_ops
 0009:C0270370       __kstrtab_inet_dgram_connect
 0009:C0270383       __kstrtab_inet_bind
 0009:C027038D       __kstrtab_inet_accept
 0009:C0270399       __kstrtab_snmp_mib_free
 0009:C02703A7       __kstrtab_snmp_mib_init
 0009:C02703B5       __kstrtab_snmp_fold_field
 0009:C02703C5       __kstrtab_inet_ctl_sock_create
 0009:C02703DA       __kstrtab_inet_sk_rebuild_header
 0009:C02703F1       __kstrtab_build_ehash_secret
 0009:C0270404       __kstrtab_inet_ehash_secret
 0009:C0270416       __kstrtab_ipv4_config
 0009:C0270422       __kstrtab_ip_mc_rejoin_group
 0009:C0270435       __kstrtab_ip_mc_join_group
 0009:C0270446       __kstrtab_ip_mc_inc_group
 0009:C0270456       __kstrtab_ip_mc_dec_group
 0009:C0270466       __kstrtab_ip_dev_find
 0009:C0270472       __kstrtab_inet_dev_addr_type
 0009:C0270485       __kstrtab_inet_addr_type
 0009:C0270494       __kstrtab_inet_frag_find
 0009:C02704A3       __kstrtab_inet_frag_evictor
 0009:C02704B5       __kstrtab_inet_frag_destroy
 0009:C02704C7       __kstrtab_inet_frag_kill
 0009:C02704D6       __kstrtab_inet_frags_exit_net
 0009:C02704EA       __kstrtab_inet_frags_fini
 0009:C02704FA       __kstrtab_inet_frags_init_net
 0009:C027050E       __kstrtab_inet_frags_init
 0009:C027051E       __kstrtab_net_ipv4_ctl_path
 0009:C0270530       __kstrtab_lro_flush_pkt
 0009:C027053E       __kstrtab_lro_flush_all
 0009:C027054C       __kstrtab_lro_vlan_hwaccel_receive_frags
 0009:C027056B       __kstrtab_lro_receive_frags
 0009:C027057D       __kstrtab_lro_vlan_hwaccel_receive_skb
 0009:C027059A       __kstrtab_lro_receive_skb
 0009:C02705AA       __kstrtab_xfrm4_rcv
 0009:C02705B4       __kstrtab_xfrm4_rcv_encap
 0009:C02705C4       __kstrtab_xfrm4_prepare_output
 0009:C02705D9       __kstrtab_xfrm_policy_unregister_afinfo
 0009:C02705F7       __kstrtab_xfrm_policy_register_afinfo
 0009:C0270613       __kstrtab_xfrm_bundle_ok
 0009:C0270622       __kstrtab_xfrm_dst_ifdown
 0009:C0270632       __kstrtab___xfrm_route_forward
 0009:C0270647       __kstrtab___xfrm_policy_check
 0009:C027065B       __kstrtab___xfrm_decode_session
 0009:C0270671       __kstrtab_xfrm_lookup
 0009:C027067D       __kstrtab___xfrm_lookup
 0009:C027068B       __kstrtab_xfrm_policy_delete
 0009:C027069E       __kstrtab_xfrm_policy_walk_done
 0009:C02706B4       __kstrtab_xfrm_policy_walk_init
 0009:C02706CA       __kstrtab_xfrm_policy_walk
 0009:C02706DB       __kstrtab_xfrm_policy_flush
 0009:C02706ED       __kstrtab_xfrm_policy_byid
 0009:C02706FE       __kstrtab_xfrm_policy_bysel_ctx
 0009:C0270714       __kstrtab_xfrm_policy_insert
 0009:C0270727       __kstrtab_xfrm_spd_getinfo
 0009:C0270738       __kstrtab_xfrm_policy_destroy
 0009:C027074C       __kstrtab_xfrm_policy_alloc
 0009:C027075E       __kstrtab_xfrm_cfg_mutex
 0009:C027076D       __kstrtab_xfrm_init_state
 0009:C027077D       __kstrtab_xfrm_state_delete_tunnel
 0009:C0270796       __kstrtab_xfrm_state_unregister_afinfo
 0009:C02707B3       __kstrtab_xfrm_state_register_afinfo
 0009:C02707CE       __kstrtab_xfrm_unregister_km
 0009:C02707E1       __kstrtab_xfrm_register_km
 0009:C02707F2       __kstrtab_xfrm_user_policy
 0009:C0270803       __kstrtab_km_report
 0009:C027080D       __kstrtab_km_policy_expired
 0009:C027081F       __kstrtab_km_new_mapping
 0009:C027082E       __kstrtab_km_query
 0009:C0270837       __kstrtab_km_state_expired
 0009:C0270848       __kstrtab_km_state_notify
 0009:C0270858       __kstrtab_km_policy_notify
 0009:C0270869       __kstrtab_xfrm_state_walk_done
 0009:C027087E       __kstrtab_xfrm_state_walk_init
 0009:C0270893       __kstrtab_xfrm_state_walk
 0009:C02708A3       __kstrtab_xfrm_alloc_spi
 0009:C02708B2       __kstrtab_xfrm_get_acqseq
 0009:C02708C2       __kstrtab_xfrm_find_acq_byseq
 0009:C02708D6       __kstrtab_xfrm_find_acq
 0009:C02708E4       __kstrtab_xfrm_state_lookup_byaddr
 0009:C02708FD       __kstrtab_xfrm_state_lookup
 0009:C027090F       __kstrtab_xfrm_state_check_expire
 0009:C0270927       __kstrtab_xfrm_state_update
 0009:C0270939       __kstrtab_xfrm_state_add
 0009:C0270948       __kstrtab_xfrm_state_insert
 0009:C027095A       __kstrtab_xfrm_stateonly_find
 0009:C027096E       __kstrtab_xfrm_sad_getinfo
 0009:C027097F       __kstrtab_xfrm_state_flush
 0009:C0270990       __kstrtab_xfrm_state_delete
 0009:C02709A2       __kstrtab___xfrm_state_delete
 0009:C02709B6       __kstrtab___xfrm_state_destroy
 0009:C02709CB       __kstrtab_xfrm_state_alloc
 0009:C02709DC       __kstrtab_xfrm_unregister_mode
 0009:C02709F1       __kstrtab_xfrm_register_mode
 0009:C0270A04       __kstrtab_xfrm_unregister_type
 0009:C0270A19       __kstrtab_xfrm_register_type
 0009:C0270A2C       __kstrtab_xfrm_input_resume
 0009:C0270A3E       __kstrtab_xfrm_input
 0009:C0270A49       __kstrtab_xfrm_prepare_input
 0009:C0270A5C       __kstrtab_secpath_dup
 0009:C0270A68       __kstrtab___secpath_destroy
 0009:C0270A7A       __kstrtab_xfrm_inner_extract_output
 0009:C0270A94       __kstrtab_xfrm_output
 0009:C0270AA0       __kstrtab_xfrm_output_resume
 0009:C0270AB3       __kstrtab_skb_icv_walk
 0009:C0270AC0       __kstrtab_xfrm_count_enc_supported
 0009:C0270AD9       __kstrtab_xfrm_count_auth_supported
 0009:C0270AF3       __kstrtab_xfrm_probe_algs
 0009:C0270B03       __kstrtab_xfrm_ealg_get_byidx
 0009:C0270B17       __kstrtab_xfrm_aalg_get_byidx
 0009:C0270B2B       __kstrtab_xfrm_aead_get_byname
 0009:C0270B40       __kstrtab_xfrm_calg_get_byname
 0009:C0270B55       __kstrtab_xfrm_ealg_get_byname
 0009:C0270B6A       __kstrtab_xfrm_aalg_get_byname
 0009:C0270B7F       __kstrtab_xfrm_calg_get_byid
 0009:C0270B92       __kstrtab_xfrm_ealg_get_byid
 0009:C0270BA5       __kstrtab_xfrm_aalg_get_byid
 0009:C0270BB8       __kstrtab_rpc_call_null
 0009:C0270BC6       __kstrtab_rpc_restart_call
 0009:C0270BD7       __kstrtab_rpc_restart_call_prepare
 0009:C0270BF0       __kstrtab_rpc_force_rebind
 0009:C0270C01       __kstrtab_rpc_max_payload
 0009:C0270C11       __kstrtab_rpc_setbufsize
 0009:C0270C20       __kstrtab_rpc_peeraddr2str
 0009:C0270C31       __kstrtab_rpc_peeraddr
 0009:C0270C3E       __kstrtab_rpc_call_start
 0009:C0270C4D       __kstrtab_rpc_call_async
 0009:C0270C5C       __kstrtab_rpc_call_sync
 0009:C0270C6A       __kstrtab_rpc_run_task
 0009:C0270C77       __kstrtab_rpc_bind_new_program
 0009:C0270C8C       __kstrtab_rpc_shutdown_client
 0009:C0270CA0       __kstrtab_rpc_clone_client
 0009:C0270CB1       __kstrtab_rpc_create
 0009:C0270CBC       __kstrtab_xprt_complete_rqst
 0009:C0270CCF       __kstrtab_xprt_update_rtt
 0009:C0270CDF       __kstrtab_xprt_lookup_rqst
 0009:C0270CF0       __kstrtab_xprt_disconnect_done
 0009:C0270D05       __kstrtab_xprt_set_retrans_timeout_rtt
 0009:C0270D22       __kstrtab_xprt_set_retrans_timeout_def
 0009:C0270D3F       __kstrtab_xprt_write_space
 0009:C0270D50       __kstrtab_xprt_wait_for_buffer_space
 0009:C0270D6B       __kstrtab_xprt_wake_pending_tasks
 0009:C0270D83       __kstrtab_xprt_adjust_cwnd
 0009:C0270D94       __kstrtab_xprt_release_rqst_cong
 0009:C0270DAB       __kstrtab_xprt_release_xprt_cong
 0009:C0270DC2       __kstrtab_xprt_release_xprt
 0009:C0270DD4       __kstrtab_xprt_reserve_xprt_cong
 0009:C0270DEB       __kstrtab_xprt_reserve_xprt
 0009:C0270DFD       __kstrtab_xprt_load_transport
 0009:C0270E11       __kstrtab_xprt_unregister_transport
 0009:C0270E2B       __kstrtab_xprt_register_transport
 0009:C0270E43       __kstrtab_csum_partial_copy_to_xdr
 0009:C0270E5C       __kstrtab_xdr_partial_copy_from_skb
 0009:C0270E76       __kstrtab_xdr_skb_read_bits
 0009:C0270E88       __kstrtab_rpc_killall_tasks
 0009:C0270E9A       __kstrtab_rpc_put_task
 0009:C0270EA7       __kstrtab_rpc_free
 0009:C0270EB0       __kstrtab_rpc_malloc
 0009:C0270EBB       __kstrtab_rpc_exit_task
 0009:C0270EC9       __kstrtab_rpc_delay
 0009:C0270ED3       __kstrtab_rpc_wake_up_status
 0009:C0270EE6       __kstrtab_rpc_wake_up
 0009:C0270EF2       __kstrtab_rpc_wake_up_next
 0009:C0270F03       __kstrtab_rpc_wake_up_queued_task
 0009:C0270F1B       __kstrtab_rpc_sleep_on
 0009:C0270F28       __kstrtab___rpc_wait_for_completion_task
 0009:C0270F47       __kstrtab_rpc_destroy_wait_queue
 0009:C0270F5E       __kstrtab_rpc_init_wait_queue
 0009:C0270F72       __kstrtab_put_rpccred
 0009:C0270F7E       __kstrtab_rpcauth_generic_bind_cred
 0009:C0270F98       __kstrtab_rpcauth_init_cred
 0009:C0270FAA       __kstrtab_rpcauth_lookup_credcache
 0009:C0270FC3       __kstrtab_rpcauth_destroy_credcache
 0009:C0270FDD       __kstrtab_rpcauth_init_credcache
 0009:C0270FF4       __kstrtab_rpcauth_create
 0009:C0271003       __kstrtab_rpcauth_unregister
 0009:C0271016       __kstrtab_rpcauth_register
 0009:C0271027       __kstrtab_rpc_lookup_machine_cred
 0009:C027103F       __kstrtab_rpc_lookup_cred
 0009:C027104F       __kstrtab_svc_max_payload
 0009:C027105F       __kstrtab_svc_process
 0009:C027106B       __kstrtab_svc_exit_thread
 0009:C027107B       __kstrtab_svc_set_num_threads
 0009:C027108F       __kstrtab_svc_prepare_thread
 0009:C02710A2       __kstrtab_svc_destroy
 0009:C02710AE       __kstrtab_svc_create_pooled
 0009:C02710C0       __kstrtab_svc_create
 0009:C02710CB       __kstrtab_svc_sock_destroy
 0009:C02710DC       __kstrtab_svc_sock_create
 0009:C02710EC       __kstrtab_svc_addsock
 0009:C02710F8       __kstrtab_svc_sock_update_bufs
 0009:C027110D       __kstrtab_svc_sock_names
 0009:C027111C       __kstrtab_auth_domain_find
 0009:C027112D       __kstrtab_auth_domain_lookup
 0009:C0271140       __kstrtab_auth_domain_put
 0009:C0271150       __kstrtab_svc_auth_unregister
 0009:C0271164       __kstrtab_svc_auth_register
 0009:C0271176       __kstrtab_svc_set_client
 0009:C0271185       __kstrtab_svc_authenticate
 0009:C0271196       __kstrtab_svcauth_unix_set_client
 0009:C02711AE       __kstrtab_svcauth_unix_purge
 0009:C02711C1       __kstrtab_auth_unix_lookup
 0009:C02711D2       __kstrtab_auth_unix_forget_old
 0009:C02711E7       __kstrtab_auth_unix_add_addr
 0009:C02711FA       __kstrtab_unix_domain_find
 0009:C027120B       __kstrtab_rpcb_getport_async
 0009:C027121E       __kstrtab_rpcb_getport_sync
 0009:C0271230       __kstrtab_rpc_calc_rto
 0009:C027123D       __kstrtab_rpc_update_rtt
 0009:C027124C       __kstrtab_rpc_init_rtt
 0009:C0271259       __kstrtab_xdr_process_buf
 0009:C0271269       __kstrtab_xdr_encode_array2
 0009:C027127B       __kstrtab_xdr_decode_array2
 0009:C027128D       __kstrtab_xdr_buf_read_netobj
 0009:C02712A1       __kstrtab_xdr_encode_word
 0009:C02712B1       __kstrtab_xdr_decode_word
 0009:C02712C1       __kstrtab_read_bytes_from_xdr_buf
 0009:C02712D9       __kstrtab_xdr_buf_subsegment
 0009:C02712EC       __kstrtab_xdr_buf_from_iov
 0009:C02712FD       __kstrtab_xdr_enter_page
 0009:C027130C       __kstrtab_xdr_read_pages
 0009:C027131B       __kstrtab_xdr_inline_decode
 0009:C027132D       __kstrtab_xdr_init_decode
 0009:C027133D       __kstrtab_xdr_write_pages
 0009:C027134D       __kstrtab_xdr_reserve_space
 0009:C027135F       __kstrtab_xdr_init_encode
 0009:C027136F       __kstrtab_xdr_shift_buf
 0009:C027137D       __kstrtab_xdr_inline_pages
 0009:C027138E       __kstrtab_xdr_encode_pages
 0009:C027139F       __kstrtab_xdr_decode_string_inplace
 0009:C02713B9       __kstrtab_xdr_encode_string
 0009:C02713CB       __kstrtab_xdr_encode_opaque
 0009:C02713DD       __kstrtab_xdr_encode_opaque_fixed
 0009:C02713F5       __kstrtab_xdr_decode_netobj
 0009:C0271407       __kstrtab_xdr_encode_netobj
 0009:C0271419       __kstrtab_qword_get
 0009:C0271423       __kstrtab_qword_addhex
 0009:C0271430       __kstrtab_qword_add
 0009:C027143A       __kstrtab_cache_purge
 0009:C0271446       __kstrtab_cache_flush
 0009:C0271452       __kstrtab_cache_unregister
 0009:C0271463       __kstrtab_cache_register
 0009:C0271472       __kstrtab_cache_check
 0009:C027147E       __kstrtab_sunrpc_cache_update
 0009:C0271492       __kstrtab_sunrpc_cache_lookup
 0009:C02714A6       __kstrtab_rpc_unlink
 0009:C02714B1       __kstrtab_rpc_mkpipe
 0009:C02714BC       __kstrtab_rpc_queue_upcall
 0009:C02714CD       __kstrtab_svc_pool_stats_open
 0009:C02714E1       __kstrtab_svc_xprt_names
 0009:C02714F0       __kstrtab_svc_find_xprt
 0009:C02714FE       __kstrtab_svc_close_xprt
 0009:C027150D       __kstrtab_svc_drop
 0009:C0271516       __kstrtab_svc_recv
 0009:C027151F       __kstrtab_svc_wake_up
 0009:C027152B       __kstrtab_svc_reserve
 0009:C0271537       __kstrtab_svc_xprt_received
 0009:C0271549       __kstrtab_svc_xprt_enqueue
 0009:C027155A       __kstrtab_svc_print_addr
 0009:C0271569       __kstrtab_svc_xprt_copy_addrs
 0009:C027157D       __kstrtab_svc_create_xprt
 0009:C027158D       __kstrtab_svc_xprt_init
 0009:C027159B       __kstrtab_svc_xprt_put
 0009:C02715A8       __kstrtab_svc_unreg_xprt_class
 0009:C02715BD       __kstrtab_svc_reg_xprt_class
 0009:C02715D0       __kstrtab_svc_proc_unregister
 0009:C02715E4       __kstrtab_svc_proc_register
 0009:C02715F6       __kstrtab_rpc_proc_unregister
 0009:C027160A       __kstrtab_rpc_proc_register
 0009:C027161C       __kstrtab_rpc_print_iostats
 0009:C027162E       __kstrtab_rpc_free_iostats
 0009:C027163F       __kstrtab_rpc_alloc_iostats
 0009:C0271651       __kstrtab_svc_seq_show
 0009:C027165E       __kstrtab_nlm_debug
 0009:C0271668       __kstrtab_nfsd_debug
 0009:C0271673       __kstrtab_nfs_debug
 0009:C027167D       __kstrtab_rpc_debug
 0009:C0271687       __kstrtab_unregister_net_sysctl_table
 0009:C02716A3       __kstrtab_register_net_sysctl_rotable
 0009:C02716BF       __kstrtab_register_net_sysctl_table
 0009:C02716D9       __kstrtab_klist_next
 0009:C02716E4       __kstrtab_klist_iter_exit
 0009:C02716F4       __kstrtab_klist_iter_init
 0009:C0271704       __kstrtab_klist_iter_init_node
 0009:C0271719       __kstrtab_klist_node_attached
 0009:C027172D       __kstrtab_klist_remove
 0009:C027173A       __kstrtab_klist_del
 0009:C0271744       __kstrtab_klist_add_before
 0009:C0271755       __kstrtab_klist_add_after
 0009:C0271765       __kstrtab_klist_add_tail
 0009:C0271774       __kstrtab_klist_add_head
 0009:C0271783       __kstrtab_klist_init
 000A:C0271790       __start___param
 000A:C02717A4       __param_pause_on_oops
 000A:C02717B8       __param_panic
 000A:C02717CC       __param_time
 000A:C02717E0       __param_irqfixup
 000A:C02717F4       __param_noirqdebug
 000A:C0271808       __param_qlowmark
 000A:C027181C       __param_qhimark
 000A:C0271830       __param_blimit
 000A:C0271844       __param_enable_ino64
 000A:C0271858       __param_nlm_max_connections
 000A:C027186C       __param_nsm_use_hostnames
 000A:C0271880       __param_nlm_tcpport
 000A:C0271894       __param_nlm_udpport
 000A:C02718A8       __param_nlm_timeout
 000A:C02718BC       __param_nlm_grace_period
 000A:C02718D0       __param_legacy_count
 000A:C02718E4       __param_brl_nbchords
 000A:C02718F8       __param_brl_timeout
 000A:C027190C       __param_underline
 000A:C0271920       __param_italic
 000A:C0271934       __param_default_blu
 000A:C0271948       __param_default_grn
 000A:C027195C       __param_default_red
 000A:C0271970       __param_consoleblank
 000A:C0271984       __param_default_utf8
 000A:C0271998       __param_max_part
 000A:C02719AC       __param_rd_size
 000A:C02719C0       __param_rd_nr
 000A:C02719D4       __param_watchdog
 000A:C02719E8       __param_nowait
 000A:C02719FC       __param_tap_time
 000A:C0271A10       __param_yres
 000A:C0271A24       __param_xres
 000A:C0271A38       __param_extra
 000A:C0271A4C       __param_scroll
 000A:C0271A60       __param_softraw
 000A:C0271A74       __param_softrepeat
 000A:C0271A88       __param_reset
 000A:C0271A9C       __param_set
 000A:C0271AB0       __param_resync_time
 000A:C0271AC4       __param_resetafter
 000A:C0271AD8       __param_smartscroll
 000A:C0271AEC       __param_rate
 000A:C0271B00       __param_resolution
 000A:C0271B14       __param_proto
 000A:C0271B28       __param_use_spi_crc
 000A:C0271B3C       __param_debug
 000A:C0271B50       __param_hystart_low_window
 000A:C0271B64       __param_hystart_detect
 000A:C0271B78       __param_hystart
 000A:C0271B8C       __param_tcp_friendliness
 000A:C0271BA0       __param_bic_scale
 000A:C0271BB4       __param_initial_ssthresh
 000A:C0271BC8       __param_beta
 000A:C0271BDC       __param_fast_convergence
 000A:C0271BF0       __param_pool_mode
 000A:C0271C04       __stop___param
 000B:C0272000       __start_unwind_idx
 000C:C0281AC0       __start_unwind_tab
 0002:C02838CC       __stop_unwind_tab
 000D:C0284000       _sdata
 000D:C0286000       __nosave_begin
 000D:C0286E88       __stop___ex_table
 000D:C0287180       init_sighand
 000D:C0287690       init_signals
 000D:C0287848       argv_init
 000D:C02878D0       envp_init
 000D:C0287958       loops_per_jiffy
 000D:C028795C       init_uts_ns
 000D:C02879A1       aNone
 000D:C02879E2       a263112virtarm
 000D:C0287A23       a9ThuMar1218060
 000D:C0287A64       aArm
 000D:C0287AE8       root_mountflags
 000D:C0287AEC       argv.22134
 000D:C0287AF4       fp_enter
 000D:C0287AF8       cr_alignment
 000D:C0287AFC       cr_no_alignment
 000D:C0287B00       reboot_mode
 000D:C0287B04       pm_idle
 000D:C0287B08       arm_pm_restart
 000D:C0287B0C       arm_break_hook
 000D:C0287B28       thumb_break_hook
 000D:C0287B44       screen_info
 000D:C0287B84       mem_res
 000D:C0287BD8       io_res
 000D:C0287C2C       per_cpu__cpu_data
 000D:C0287C60       timer_sysclass
 000D:C0287CA8       undef_hook
 000D:C0287CB0       unwind_tables
 000D:C0287CB8       consistent_head
 000D:C0287CD0       fsr_info
 000D:C0287ED0       shared_pte_mask
 000D:C0287ED4       mem_types
 000D:C0287F94       per_cpu__mmu_gathers
 000D:C0287FA4       cpu_last_asid
 000D:C0287FA8       vic_class
 000D:C0287FF0       vic_chip
 000D:C0288030       virtarm_sys_timer
 000D:C028806C       nwfpe_notifier_block
 000D:C0288078       sysctl_sched_wakeup_granularity
 000D:C028807C       sysctl_sched_features
 000D:C0288080       sysctl_sched_rt_runtime
 000D:C0288084       sysctl_sched_latency
 000D:C0288088       sched_nr_latency
 000D:C028808C       sysctl_sched_min_granularity
 000D:C0288090       sysctl_sched_migration_cost
 000D:C0288094       sysctl_sched_child_runs_first
 000D:C0288098       sysctl_sched_rt_period
 000D:C028809C       mutex.31372
 000D:C02880A8       sysctl_timer_migration
 000D:C02880AC       sysctl_sched_shares_thresh
 000D:C02880B0       sysctl_sched_shares_ratelimit
 000D:C02880B4       sysctl_sched_nr_migrate
 000D:C02880B8       per_cpu__runqueues
 000D:C02884B0       per_cpu__kstat
 000D:C0288520       default_dump_filter
 000D:C0288524       count.30687
 000D:C0288528       per_cpu__process_counts
 000D:C028852C       exec_domains
 000D:C0288530       default_exec_domain
 000D:C028855C       ident_map
 000D:C02885DC       log_buf
 000D:C02885E0       log_buf_len
 000D:C02885E4       console_suspend_enabled
 000D:C02885E8       console_sem
 000D:C02885F4       printk_ratelimit_state
 000D:C0288608       console_printk
 000D:C0288618       selected_console
 000D:C028861C       log_wait
 000D:C0288624       msg_level.21454
 000D:C0288628       printk_cpu
 000D:C028862C       new_text_line
 000D:C0288630       preferred_console
 000D:C0288634       per_cpu__printk_pending
 000D:C0288638       firsttime.20419
 000D:C028863C       softirq_to_name
 000D:C0288660       per_cpu__tasklet_hi_vec
 000D:C0288668       per_cpu__tasklet_vec
 000D:C0288670       per_cpu__ksoftirqd
 000D:C0288674       per_cpu__softirq_work_list
 000D:C02886BC       iomem_resource
 000D:C02886D8       ioport_resource
 000D:C02886F4       root_table
 000D:C02887FC       root_table_header
 000D:C028882C       sysctl_table_root
 000D:C028884C       fs_table
 000D:C0288B38       vm_table
 000D:C0288F84       kern_table
 000D:C0289740       max_wakeup_granularity_ns
 000D:C0289744       max_sched_granularity_ns
 000D:C0289748       min_sched_granularity_ns
 000D:C028974C       ngroups_max
 000D:C0289750       min_percpu_pagelist_fract
 000D:C0289754       maxolduid
 000D:C0289758       dirty_bytes_min
 000D:C028975C       one_hundred
 000D:C0289760       one_ul
 000D:C0289764       two
 000D:C0289768       one
 000D:C028976C       neg_one
 000D:C0289770       sixty
 000D:C0289778       per_cpu__tvec_bases
 000D:C0289780       jiffies_64
 000D:C0289788       init_user_ns
 000D:C0289BA0       root_user
 000D:C0289BD0       poweroff_cmd
 000D:C0289CD0       envp.23755
 000D:C0289CDC       C_A_D
 000D:C0289CE0       cad_work.23395
 000D:C0289CF0       uts_sem
 000D:C0289CFC       fs_overflowgid
 000D:C0289D00       fs_overflowuid
 000D:C0289D04       overflowgid
 000D:C0289D08       overflowuid
 000D:C0289D0C       running_helpers_waitq
 000D:C0289D14       modprobe_path
 000D:C0289E14       envp.21077
 000D:C0289E24       workqueues
 000D:C0289E2C       pid_max
 000D:C0289E30       init_pid_ns
 000D:C0289E54       pid_max_max
 000D:C0289E58       pid_max_min
 000D:C0289E5C       init_struct_pid
 000D:C0289E88       rcu_barrier_mutex
 000D:C0289E94       rcu_migrate_wq
 000D:C0289E9C       per_cpu__rcu_barrier_head
 000D:C0289EA4       text_mutex
 000D:C0289EB0       module_ktype
 000D:C0289EBC       module_uevent_ops
 000D:C0289EC8       module_sysfs_ops
 000D:C0289ED0       kthread_create_list
 000D:C0289ED8       per_cpu__hrtimer_bases
 000D:C0289F28       init_nsproxy
 000D:C0289F40       reboot_notifier_list
 000D:C0289F50       kernel_attr_group
 000D:C0289F5C       notes_attr
 000D:C0289F7C       kernel_attrs
 000D:C0289F88       uevent_helper_attr
 000D:C0289F9C       uevent_seqnum_attr
 000D:C0289FB0       cpu_dma_pm_qos
 000D:C0289FF4       network_lat_pm_qos
 000D:C028A038       network_throughput_pm_qos
 000D:C028A07C       network_throughput_notifier
 000D:C028A08C       network_lat_notifier
 000D:C028A09C       cpu_dma_lat_notifier
 000D:C028A0AC       init_cred
 000D:C028A108       async_pending
 000D:C028A110       next_cookie
 000D:C028A118       async_new
 000D:C028A120       async_running
 000D:C028A128       async_done
 000D:C028A130       init_groups
 000D:C028A1C0       timekeeping_sysclass
 000D:C028A208       device_timer
 000D:C028A234       tick_usec
 000D:C028A238       time_status
 000D:C028A23C       time_maxerror
 000D:C028A240       time_esterror
 000D:C028A244       time_constant
 000D:C028A248       clocksource_list
 000D:C028A250       curr_clocksource
 000D:C028A254       clocksource_sysclass
 000D:C028A29C       device_clocksource
 000D:C028A2C8       attr_current_clocksource
 000D:C028A2DC       attr_available_clocksource
 000D:C028A2F0       clocksource_jiffies
 000D:C028A368       timer_list_fops
 000D:C028A3D0       clockevents_released
 000D:C028A3D8       clockevent_devices
 000D:C028A3E0       tick_do_timer_cpu
 000D:C028A3E4       tick_notifier
 000D:C028A3F0       per_cpu__tick_cpu_device
 000D:C028A3F8       max_lock_depth
 000D:C028A3FC       module_addr_min
 000D:C028A400       modules
 000D:C028A408       module_notify_list
 000D:C028A418       module_mutex
 000D:C028A424       module_wq
 000D:C028A42C       initstate
 000D:C028A44C       refcnt
 000D:C028A46C       modinfo_srcversion
 000D:C028A48C       modinfo_version
 000D:C028A4AC       pm_chain_head
 000D:C028A4BC       attr_group
 000D:C028A4C8       g
 000D:C028A4D0       state_attr
 000D:C028A4E4       pm_mutex
 000D:C028A4F0       sysrq_poweroff_op
 000D:C028A500       poweroff_work
 000D:C028A510       panic_block
 000D:C028A51C       softlockup_thresh
 000D:C028A520       per_cpu__touch_timestamp
 000D:C028A524       per_cpu__watchdog_task
 000D:C028A528       per_cpu__print_timestamp
 000D:C028A52C       panic_block_0
 000D:C028A538       sysctl_hung_task_timeout_secs
 000D:C028A53C       sysctl_hung_task_check_count
 000D:C028A540       sysctl_hung_task_warnings
 000D:C028A544       irq_desc
 000D:C028BBC4       dummy_irq_chip
 000D:C028BC04       no_irq_chip
 000D:C028BC44       nr_irqs
 000D:C028BC48       poll_spurious_irq_timer
 000D:C028BC60       count.13594
 000D:C028BC64       resend_tasklet
 000D:C028BC78       probing_active
 000D:C028BC84       rcu_state
 000D:C028BCD8       rcu_bh_state
 000D:C028BD2C       blimit
 000D:C028BD30       qhimark
 000D:C028BD34       qlowmark
 000D:C028BD38       per_cpu__rcu_data
 000D:C028BD98       per_cpu__rcu_bh_data
 000D:C028BDF8       uts_root_table
 000D:C028BE50       uts_kern_table
 000D:C028BF58       generic_file_vm_ops
 000D:C028BF6C       oom_notify_list
 000D:C028BF7C       sysctl_lowmem_reserve_ratio
 000D:C028BF80       zonelist_order_name
 000D:C028BF88       aNode
 000D:C028BF90       aZone
 000D:C028BF98       gfp_allowed_mask
 000D:C028BF9C       min_free_kbytes
 000D:C028BFA0       node_states
 000D:C028BFB0       dirty_expire_interval
 000D:C028BFB4       dirty_writeback_interval
 000D:C028BFB8       wb_timer
 000D:C028BFD0       dirty_background_ratio
 000D:C028BFD4       vm_dirty_ratio
 000D:C028BFD8       ratelimit_pages
 000D:C028BFDC       laptop_mode_wb_timer
 000D:C028BFF4       per_cpu__ratelimits.23417
 000D:C028BFF8       pdflush_list
 000D:C028C000       per_cpu__lru_add_pvecs
 000D:C028C140       per_cpu__lru_rotate_pvecs
 000D:C028C180       shrinker_rwsem
 000D:C028C18C       shrinker_list
 000D:C028C194       vm_swappiness
 000D:C028C198       attr_scan_unevictable_pages
 000D:C028C1B0       shmem_vm_ops
 000D:C028C1C4       shmem_swaplist_mutex
 000D:C028C1D0       shmem_backing_dev_info
 000D:C028C228       tmpfs_fs_type
 000D:C028C248       shmem_swaplist
 000D:C028C250       per_cpu__vm_event_states
 000D:C028C2D8       bdi_dev_attrs
 000D:C028C328       congestion_wqh
 000D:C028C338       default_backing_dev_info
 000D:C028C390       randomize_va_space
 000D:C028C394       protection_map
 000D:C028C3D4       sysctl_overcommit_ratio
 000D:C028C3D8       sysctl_max_map_count
 000D:C028C3DC       special_mapping_vmops
 000D:C028C3F0       mm_all_locks_mutex
 000D:C028C3FC       vmap_area_list
 000D:C028C404       vmap_block_tree
 000D:C028C410       per_cpu__vmap_block_queue
 000D:C028C424       init_mm
 000D:C028C598       swapper_space
 000D:C028C5E0       swap_backing_dev_info
 000D:C028C638       swapon_mutex
 000D:C028C644       swap_list
 000D:C028C64C       swap_unplug_sem
 000D:C028C658       pools_lock
 000D:C028C664       dev_attr_pools
 000D:C028C678       use_alien_caches
 000D:C028C67C       cache_chain_mutex
 000D:C028C688       cache_cache
 000D:C028C6D8       malloc_sizes
 000D:C028C780       initarray_generic
 000D:C028C794       slab_early_init
 000D:C028C798       per_cpu__reap_work
 000D:C028C7C0       files_stat
 000D:C028C7CC       super_blocks
 000D:C028C7D8       chrdevs_lock
 000D:C028C7E4       ktype_cdev_dynamic
 000D:C028C7F0       ktype_cdev_default
 000D:C028C800       directly_mappable_cdev_bdi
 000D:C028C858       formats
 000D:C028C860       core_pattern
 000D:C028C8E0       pipe_fs_type
 000D:C028C900       dentry_stat
 000D:C028C918       sysctl_vfs_cache_pressure
 000D:C028C91C       dcache_shrinker
 000D:C028C930       inode_in_use
 000D:C028C938       iprune_mutex
 000D:C028C944       inode_unused
 000D:C028C94C       icache_shrinker
 000D:C028C960       sysctl_nr_open
 000D:C028C964       sysctl_nr_open_max
 000D:C028C968       init_files
 000D:C028CA18       sysctl_nr_open_min
 000D:C028CA1C       per_cpu__fdtable_defer_list
 000D:C028CA30       mnt_group_start
 000D:C028CA34       cursor_name.18568
 000D:C028CA40       mutex.19839
 000D:C028CA4C       init_fs
 000D:C028CA68       per_cpu__bh_accounting
 000D:C028CA70       per_cpu__bh_lrus
 000D:C028CA90       bio_slab_lock
 000D:C028CA9C       bvec_slabs
 000D:C028CAE4       bio_dirty_work
 000D:C028CAF4       all_bdevs
 000D:C028CAFC       bd_type
 000D:C028CB1C       fsnotify_grp_mutex
 000D:C028CB28       fsnotify_groups
 000D:C028CB30       dnotify_fsnotify_ops
 000D:C028CB44       dnotify_mark_mutex
 000D:C028CB50       dir_notify_enable
 000D:C028CB54       inotify_fs_type
 000D:C028CB74       inotify_table
 000D:C028CC24       epmutex
 000D:C028CC30       epoll_table
 000D:C028CC88       anon_inode_fs_type
 000D:C028CCA8       fput_head
 000D:C028CCB0       fput_work
 000D:C028CCC0       aio_max_nr
 000D:C028CCC4       file_lock_list
 000D:C028CCCC       blocked_list
 000D:C028CCD4       leases_enable
 000D:C028CCD8       lease_manager_ops
 000D:C028CCF8       lease_break_time
 000D:C028CCFC       script_format
 000D:C028CD1C       elf_format
 000D:C028CD40       proc_root
 000D:C028CD98       proc_fs_type
 000D:C028CDB8       task_state_array
 000D:C028CDD4       part_type
 000D:C028CDEC       dev_attr_whole_disk
 000D:C028CE00       warn_no_part
 000D:C028CE04       part_attr_groups
 000D:C028CE0C       part_attr_group
 000D:C028CE18       part_attrs
 000D:C028CE30       dev_attr_stat
 000D:C028CE44       dev_attr_alignment_offset
 000D:C028CE58       dev_attr_size
 000D:C028CE6C       dev_attr_start
 000D:C028CE80       dev_attr_partition
 000D:C028CE98       sysfs_backing_dev_info
 000D:C028CEF0       sysfs_workq_mutex
 000D:C028CEFC       sysfs_workq
 000D:C028CF04       sysfs_mutex
 000D:C028CF10       sysfs_rename_mutex
 000D:C028CF1C       sysfs_root
 000D:C028CF48       sysfs_fs_type
 000D:C028CF68       sysfs_bin_lock
 000D:C028CF74       bin_vm_ops
 000D:C028CF88       devpts_fs_type
 000D:C028CFA8       allocated_ptys_lock
 000D:C028CFB4       ext2_filetype_table
 000D:C028CFBC       ext2_fs_type
 000D:C028CFDC       cramfs_fs_type
 000D:C028CFFC       read_mutex
 000D:C028D008       ramfs_fs_type
 000D:C028D028       ramfs_backing_dev_info
 000D:C028D080       rootfs_fs_type
 000D:C028D0A0       minix_fs_type
 000D:C028D0C0       nfs_volume_list_ops
 000D:C028D0D0       nfs_server_list_ops
 000D:C028D0E0       nfs_volume_list
 000D:C028D0E8       nfs_client_list
 000D:C028D0F0       nfs_client_active_wq
 000D:C028D0F8       nfs_program
 000D:C028D110       nfs_rpcstat
 000D:C028D138       nfs_version
 000D:C028D14C       nfs_access_lru_list
 000D:C028D154       nfs_file_vm_ops
 000D:C028D168       enable_ino64
 000D:C028D16C       nfs_fs_type
 000D:C028D18C       acl_shrinker
 000D:C028D1A0       nfs_lookupcache_tokens
 000D:C028D1C8       nfs_xdev_fs_type
 000D:C028D1E8       nfs_version2
 000D:C028D1F4       nfs_procedures
 000D:C028D47C       nfs_automount_list
 000D:C028D484       nfs_automount_task
 000D:C028D498       aAtst
 000D:C028D4AC       nfs_mountpoint_expiry_timeout
 000D:C028D4B0       mnt_program
 000D:C028D4C8       mnt_version
 000D:C028D4D8       mnt_version3
 000D:C028D4E4       mnt_version1
 000D:C028D4F0       mnt3_procedures
 000D:C028D538       mnt_procedures
 000D:C028D580       nfs_version3
 000D:C028D58C       nfs3_procedures
 000D:C028D8A4       nfs_cb_sysctl_root
 000D:C028D8FC       nfs_cb_sysctl_dir
 000D:C028D954       nfs_cb_sysctls
 000D:C028D9D8       nfsd_mutex
 000D:C028D9E4       nfsd_program
 000D:C028DA0C       nfsd_fs_type
 000D:C028DA2C       nfsd_files.33734
 000D:C028DB1C       pool_stats_operations
 000D:C028DB84       nfsd_version2
 000D:C028DB9C       nfsd_procedures2
 000D:C028DE24       nfs3_regaccess
 000D:C028DE4C       nfs3_diraccess
 000D:C028DE7C       nfs3_anyaccess
 000D:C028DEA4       expflags
 000D:C028DF34       svc_export_cache
 000D:C028DFA4       svc_expkey_cache
 000D:C028E014       hash_sem
 000D:C028E020       nfs_exports_op
 000D:C028E030       nfsd_nlm_ops
 000D:C028E038       cache_disabled
 000D:C028E03C       nfsd_svcstats
 000D:C028E060       nfsd_version3
 000D:C028E078       nfsd_procedures3
 000D:C028E390       nlm_blocked
 000D:C028E398       nlm_cookie
 000D:C028E39C       nlmclnt_lock_ops
 000D:C028E3A4       nlm_host_mutex
 000D:C028E3B0       nlm_timeout
 000D:C028E3B4       grace_period_end
 000D:C028E3DC       nlm_max_connections
 000D:C028E3E0       nlm_sysctl_root
 000D:C028E438       nlmsvc_mutex
 000D:C028E444       nlmsvc_program
 000D:C028E46C       nlmsvc_version
 000D:C028E480       nlmsvc_version4
 000D:C028E498       nlmsvc_version3
 000D:C028E4B0       nlmsvc_version1
 000D:C028E4C8       nlm_sysctl_dir
 000D:C028E520       nlm_sysctls
 000D:C028E654       nlm_blocked_0
 000D:C028E65C       nlmsvc_lock_operations
 000D:C028E67C       nlmsvc_procedures
 000D:C028E9DC       nlm_file_mutex
 000D:C028E9E8       nsm_program
 000D:C028EA00       nsm_handles
 000D:C028EA08       nsm_version
 000D:C028EA10       nsm_version1
 000D:C028EA1C       nsm_procedures
 000D:C028EAAC       nlm_program
 000D:C028EAC4       nlm_versions
 000D:C028EAD8       nlm_version3
 000D:C028EAE4       nlm_version1
 000D:C028EAF0       nlm_procedures
 000D:C028ED30       grace_list
 000D:C028ED38       nlm_version4
 000D:C028ED44       nlm4_procedures
 000D:C028EF84       nlmsvc_procedures4
 000D:C028F2E4       jffs2_compressor_list
 000D:C028F2EC       jffs2_fs_type
 000D:C028F30C       jffs2_export_ops
 000D:C028F320       jffs2_rtime_comp
 000D:C028F35C       inflate_mutex
 000D:C028F368       deflate_mutex
 000D:C028F374       jffs2_zlib_comp
 000D:C028F3B0       romfs_fs_type
 000D:C028F3D0       romfs_dir_inode_operations
 000D:C028F42C       sysvipc_proc_seqops
 000D:C028F43C       nr_ipc_ns
 000D:C028F440       init_ipc_ns
 000D:C028F50C       shm_vm_ops
 000D:C028F520       ipcns_chain
 000D:C028F530       ipc_root_table
 000D:C028F588       ipc_kern_table
 000D:C028F714       one_0
 000D:C028F718       dac_mmap_min_addr
 000D:C028F71C       crypto_alg_sem
 000D:C028F728       crypto_alg_list
 000D:C028F730       crypto_chain
 000D:C028F740       elv_list
 000D:C028F748       elv_ktype
 000D:C028F754       elv_sysfs_ops
 000D:C028F75C       blk_queue_ktype
 000D:C028F768       queue_sysfs_ops
 000D:C028F770       default_attrs
 000D:C028F7AC       queue_iostats_entry
 000D:C028F7C0       queue_rq_affinity_entry
 000D:C028F7D4       queue_nomerges_entry
 000D:C028F7E8       queue_nonrot_entry
 000D:C028F7FC       queue_io_opt_entry
 000D:C028F810       queue_io_min_entry
 000D:C028F824       queue_physical_block_size_entry
 000D:C028F838       queue_logical_block_size_entry
 000D:C028F84C       queue_hw_sector_size_entry
 000D:C028F860       queue_iosched_entry
 000D:C028F874       queue_max_hw_sectors_entry
 000D:C028F888       queue_max_sectors_entry
 000D:C028F89C       queue_ra_entry
 000D:C028F8B0       queue_requests_entry
 000D:C028F8C4       per_cpu__blk_cpu_done
 000D:C028F8CC       block_class_lock
 000D:C028F8D8       block_class
 000D:C028F90C       disk_type
 000D:C028F924       ext_devt_mutex
 000D:C028F930       disk_attr_groups
 000D:C028F938       disk_attr_group
 000D:C028F944       disk_attrs
 000D:C028F968       dev_attr_stat_0
 000D:C028F97C       dev_attr_capability
 000D:C028F990       dev_attr_alignment_offset_0
 000D:C028F9A4       dev_attr_size_0
 000D:C028F9B8       dev_attr_ro
 000D:C028F9CC       dev_attr_removable
 000D:C028F9E0       dev_attr_ext_range
 000D:C028F9F4       dev_attr_range
 000D:C028FA08       bsg_mutex
 000D:C028FA14       elevator_noop
 000D:C028FA7C       iosched_as
 000D:C028FAE4       as_attrs
 000D:C028FB70       per_cpu__ioc_count
 000D:C028FB74       iosched_deadline
 000D:C028FBDC       deadline_attrs
 000D:C028FC54       iosched_cfq
 000D:C028FCBC       cfq_slice_async
 000D:C028FCC0       cfq_attrs
 000D:C028FD88       per_cpu__ioc_count_0
 000D:C028FD8C       _ctype
 000D:C028FE8C       per_cpu____irq_regs
 000D:C028FE90       dynamic_kobj_ktype
 000D:C028FE9C       kset_ktype
 000D:C028FEA8       kobj_sysfs_ops
 000D:C028FEB0       uevent_helper
 000D:C028FFB0       per_cpu__radix_tree_preloads
 000D:C028FFCC       warn.9724
 000D:C028FFD0       debug_locks
 000D:C028FFD4       per_cpu__net_rand_state
 000D:C028FFE0       static_l_desc
 000D:C028FFF4       static_d_desc
 000D:C0290008       static_bl_desc
 000D:C0290020       fb_notifier_list
 000D:C0290030       red2
 000D:C0290034       green2
 000D:C0290038       blue2
 000D:C029003C       red4
 000D:C0290044       green4
 000D:C029004C       blue4
 000D:C0290054       red8
 000D:C0290064       green8
 000D:C0290074       blue8
 000D:C0290084       red16
 000D:C02900A4       green16
 000D:C02900C4       blue16
 000D:C02900E4       device_attrs
 000D:C02901D8       zero_bdi
 000D:C0290230       random_read_wait
 000D:C0290238       random_write_wait
 000D:C0290240       input_pool
 000D:C0290260       random_read_wakeup_thresh
 000D:C0290264       random_write_wakeup_thresh
 000D:C0290268       blocking_pool
 000D:C0290288       nonblocking_pool
 000D:C02902A8       rekey_work
 000D:C02902D0       random_table
 000D:C0290404       sysctl_poolsize
 000D:C0290408       max_write_thresh
 000D:C029040C       max_read_thresh
 000D:C0290410       min_read_thresh
 000D:C0290414       poolinfo_table
 000D:C0290444       per_cpu__trickle_count
 000D:C0290448       per_cpu__get_random_int_hash
 000D:C0290458       tty_mutex
 000D:C0290464       tty_drivers
 000D:C029046C       tty_std_termios
 000D:C0290498       tty_ldisc_N_TTY
 000D:C02904E4       tty_ldisc_wait
 000D:C02904EC       legacy_count
 000D:C02904F0       pty_root_table
 000D:C0290548       pty_kern_table
 000D:C02905A0       pty_table
 000D:C0290624       pty_limit_max
 000D:C0290628       pty_limit
 000D:C029062C       misc_mtx
 000D:C0290638       misc_list
 000D:C0290640       misc_seq_ops
 000D:C0290650       vt_activate_queue
 000D:C0290658       sel_start
 000D:C029065C       inwordLut
 000D:C029067C       ledstate
 000D:C0290680       keyboard_tasklet
 000D:C0290694       kbd_handler
 000D:C02906CC       kd_mksound_timer
 000D:C02906E4       buf.20194
 000D:C02906E8       kbd
 000D:C02906EC       npadch
 000D:C02906F0       brl_nbchords
 000D:C02906F4       brl_timeout
 000D:C02906F8       kbd_sysrq_xlate
 000D:C02909F8       k_handler
 000D:C0290A38       translations
 000D:C0291238       dfont_unitable
 000D:C0291496       dfont_unicount
 000D:C0291598       device_attrs_0
 000D:C02915C0       console_timer
 000D:C02915D8       color_table
 000D:C02915E8       blankinterval
 000D:C02915EC       console_work
 000D:C02915FC       default_utf8
 000D:C0291600       default_red
 000D:C0291640       default_grn
 000D:C0291680       default_blu
 000D:C02916C0       default_underline_color
 000D:C02916C4       default_italic_color
 000D:C02916C8       vt_console_driver
 000D:C0291700       old_offset.19966
 000D:C0291704       want_console
 000D:C0291708       con_buf_mtx
 000D:C0291714       accent_table_size
 000D:C0291718       accent_table
 000D:C0292318       func_table
 000D:C0292718       funcbufsize
 000D:C029271C       funcbufptr
 000D:C0292720       func_buf
 000D:C0292725       aB
 000D:C029272A       aC_1
 000D:C029272F       aD_3
 000D:C0292734       aE
 000D:C0292739       a17_0
 000D:C029273F       a18
 000D:C0292745       a19
 000D:C029274B       a20
 000D:C0292751       a21
 000D:C0292757       a23
 000D:C029275D       a24
 000D:C0292763       a25
 000D:C0292769       a26
 000D:C029276F       a28
 000D:C0292775       a29
 000D:C029277B       a31
 000D:C0292781       a32
 000D:C0292787       a33
 000D:C029278D       a34
 000D:C0292793       a1
 000D:C0292798       a2
 000D:C029279D       a3
 000D:C02927A2       a4
 000D:C02927A7       a5
 000D:C02927AC       a6
 000D:C02927B1       aM
 000D:C02927B5       aP_2
 000D:C02927BC       keymap_count
 000D:C02927C0       key_maps
 000D:C0292BC0       ctrl_alt_map
 000D:C0292DC0       alt_map
 000D:C0292FC0       shift_ctrl_map
 000D:C02931C0       ctrl_map
 000D:C02933C0       altgr_map
 000D:C02935C0       shift_map
 000D:C02937C0       plain_map
 000D:C02939C0       moom_work
 000D:C02939D0       __sysrq_enabled
 000D:C02939D4       sysrq_key_table
 000D:C0293A64       sysrq_unrt_op
 000D:C0293A74       sysrq_kill_op
 000D:C0293A84       sysrq_thaw_op
 000D:C0293A94       sysrq_moom_op
 000D:C0293AA4       sysrq_term_op
 000D:C0293AB4       sysrq_showmem_op
 000D:C0293AC4       sysrq_showstate_blocked_op
 000D:C0293AD4       sysrq_showstate_op
 000D:C0293AE4       sysrq_showregs_op
 000D:C0293AF4       sysrq_mountro_op
 000D:C0293B04       sysrq_show_timers_op
 000D:C0293B14       sysrq_sync_op
 000D:C0293B24       sysrq_reboot_op
 000D:C0293B34       sysrq_crash_op
 000D:C0293B44       sysrq_unraw_op
 000D:C0293B54       sysrq_SAK_op
 000D:C0293B64       sysrq_loglevel_op
 000D:C0293B78       device_ktype
 000D:C0293B84       devt_attr
 000D:C0293B98       uevent_attr
 000D:C0293BAC       device_uevent_ops
 000D:C0293BB8       dev_sysfs_ops
 000D:C0293BC0       ktype_sysdev_class
 000D:C0293BCC       sysdev_drivers_lock
 000D:C0293BD8       ktype_sysdev
 000D:C0293BE4       sysfs_class_ops
 000D:C0293BEC       sysfs_ops_0
 000D:C0293BF4       bus_ktype
 000D:C0293C00       bus_attr_uevent
 000D:C0293C14       bus_attr_drivers_probe
 000D:C0293C28       bus_attr_drivers_autoprobe
 000D:C0293C3C       driver_ktype
 000D:C0293C48       driver_attr_uevent
 000D:C0293C5C       driver_attr_unbind
 000D:C0293C70       driver_attr_bind
 000D:C0293C84       bus_uevent_ops
 000D:C0293C90       bus_sysfs_ops
 000D:C0293C98       driver_sysfs_ops
 000D:C0293CA0       probe_waitqueue
 000D:C0293CA8       class_ktype
 000D:C0293CB4       class_sysfs_ops
 000D:C0293CC0       platform_bus
 000D:C0293D68       platform_bus_type
 000D:C0293D9C       platform_dev_pm_ops
 000D:C0293DD4       platform_dev_attrs
 000D:C0293DFC       cpu_sysdev_class
 000D:C0293E44       attr_offline
 000D:C0293E58       attr_kernel_max
 000D:C0293E6C       attr_present_map
 000D:C0293E80       attr_possible_map
 000D:C0293E94       attr_online_map
 000D:C0293EA8       per_cpu__cpu_sys_devices
 000D:C0293EAC       attribute_container_mutex
 000D:C0293EB8       attribute_container_list
 000D:C0293EC0       pm_attr_group
 000D:C0293ECC       power_attrs
 000D:C0293ED4       dev_attr_wakeup
 000D:C0293EE8       dpm_list_mtx
 000D:C0293EF4       dpm_list
 000D:C0293EFC       loading_timeout
 000D:C0293F00       fw_lock
 000D:C0293F0C       firmware_class
 000D:C0293F40       dev_attr_loading
 000D:C0293F54       class_attr_timeout
 000D:C0293F68       rd_size
 000D:C0293F6C       brd_fops
 000D:C0293F98       brd_devices_mutex
 000D:C0293FA4       brd_devices
 000D:C0293FAC       smc_driver
 000D:C0293FFC       nowait
 000D:C0294000       watchdog_1
 000D:C0294008       mtd_table_mutex
 000D:C0294014       mtd_notifiers
 000D:C029401C       mtd_class
 000D:C0294050       mtd_devtype
 000D:C0294068       mtd_groups
 000D:C0294070       mtd_group
 000D:C029407C       mtd_attrs
 000D:C02940A4       dev_attr_name
 000D:C02940B8       dev_attr_numeraseregions
 000D:C02940CC       dev_attr_oobsize
 000D:C02940E0       dev_attr_subpagesize
 000D:C02940F4       dev_attr_writesize
 000D:C0294108       dev_attr_erasesize
 000D:C029411C       dev_attr_size_1
 000D:C0294130       dev_attr_flags
 000D:C0294144       dev_attr_type
 000D:C0294158       mtd_bdi_rw_mappable
 000D:C02941B0       mtd_bdi_ro_mappable
 000D:C0294208       mtd_bdi_unmappable
 000D:C0294260       part_parsers
 000D:C0294268       mtd_partitions
 000D:C0294270       cmdline_parser
 000D:C0294284       blktrans_majors
 000D:C029428C       mtd_blktrans_ops
 000D:C02942B8       blktrans_notifier
 000D:C02942C8       mtdblock_tr
 000D:C0294318       chip_drvs_list
 000D:C0294320       cfi_chip_probe
 000D:C0294328       cfi_chipdrv
 000D:C0294340       cfi_fixup_table
 000D:C0294388       jedec_fixup_table
 000D:C02943D0       fixup_table
 000D:C02943E8       cfi_intelext_chipdrv
 000D:C0294400       armflash_driver
 000D:C0294450       probes
 000D:C0294460       serio_event_list
 000D:C0294468       serio_wait
 000D:C0294470       serio_bus
 000D:C02944A4       serio_id_attr_group
 000D:C02944B0       serio_mutex
 000D:C02944BC       serio_list
 000D:C02944C4       serio_driver_attrs
 000D:C0294500       serio_device_attrs
 000D:C0294564       serio_device_id_attrs
 000D:C0294578       dev_attr_extra
 000D:C029458C       dev_attr_id
 000D:C02945A0       dev_attr_proto
 000D:C02945B4       dev_attr_type_0
 000D:C02945C8       input_devices_poll_wait
 000D:C02945D0       input_mutex
 000D:C02945DC       input_dev_type
 000D:C02945F4       input_class
 000D:C0294628       input_handler_list
 000D:C0294630       input_dev_list
 000D:C0294638       input_dev_attr_groups
 000D:C0294648       input_dev_caps_attr_group
 000D:C0294654       input_dev_caps_attrs
 000D:C029467C       dev_attr_sw
 000D:C0294690       dev_attr_ff
 000D:C02946A4       dev_attr_snd
 000D:C02946B8       dev_attr_led
 000D:C02946CC       dev_attr_msc
 000D:C02946E0       dev_attr_abs
 000D:C02946F4       dev_attr_rel
 000D:C0294708       dev_attr_key
 000D:C029471C       dev_attr_ev
 000D:C0294730       input_dev_id_attr_group
 000D:C029473C       input_dev_id_attrs
 000D:C0294750       dev_attr_version
 000D:C0294764       dev_attr_product
 000D:C0294778       dev_attr_vendor
 000D:C029478C       dev_attr_bustype
 000D:C02947A0       input_dev_attr_group
 000D:C02947AC       input_dev_attrs
 000D:C02947C0       dev_attr_modalias
 000D:C02947D4       dev_attr_uniq
 000D:C02947E8       dev_attr_phys
 000D:C02947FC       dev_attr_name_0
 000D:C0294810       mousedev_mix_list
 000D:C0294818       mousedev_table_mutex
 000D:C0294824       xres
 000D:C0294828       yres
 000D:C029482C       tap_time
 000D:C0294830       psaux_mouse
 000D:C0294850       mousedev_handler
 000D:C0294888       atkbd_drv
 000D:C02948E0       atkbd_attribute_group
 000D:C02948EC       atkbd_reset
 000D:C02948F0       atkbd_softraw
 000D:C02948F4       atkbd_set
 000D:C02948F8       atkbd_serio_ids
 000D:C0294908       atkbd_attributes
 000D:C0294924       atkbd_attr_err_count
 000D:C0294938       atkbd_attr_softraw
 000D:C029494C       atkbd_attr_softrepeat
 000D:C0294960       atkbd_attr_set
 000D:C0294974       atkbd_attr_scroll
 000D:C0294988       atkbd_attr_extra
 000D:C029499C       psmouse_drv
 000D:C02949F4       psmouse_max_proto
 000D:C02949F8       psmouse_mutex
 000D:C0294A04       psmouse_attribute_group
 000D:C0294A10       psmouse_rate
 000D:C0294A14       psmouse_resolution
 000D:C0294A18       psmouse_resetafter
 000D:C0294A1C       psmouse_smartscroll
 000D:C0294A20       psmouse_serio_ids
 000D:C0294A2C       psmouse_attributes
 000D:C0294A44       psmouse_attr_resync_time
 000D:C0294A68       psmouse_attr_resetafter
 000D:C0294A8C       psmouse_attr_resolution
 000D:C0294AB0       psmouse_attr_rate
 000D:C0294AD4       psmouse_attr_protocol
 000D:C0294AF8       psmouse_attr_smartscroll
 000D:C0294B1C       trackpoint_attr_group
 000D:C0294B28       trackpoint_attrs
 000D:C0294B60       psmouse_attr_ext_dev
 000D:C0294B84       trackpoint_attr_ext_dev
 000D:C0294B8C       psmouse_attr_skipback
 000D:C0294BB0       trackpoint_attr_skipback
 000D:C0294BB8       psmouse_attr_press_to_select
 000D:C0294BDC       trackpoint_attr_press_to_select
 000D:C0294BE4       psmouse_attr_jenks
 000D:C0294C08       trackpoint_attr_jenks
 000D:C0294C10       psmouse_attr_ztime
 000D:C0294C34       trackpoint_attr_ztime
 000D:C0294C3C       psmouse_attr_upthresh
 000D:C0294C60       trackpoint_attr_upthresh
 000D:C0294C68       psmouse_attr_thresh
 000D:C0294C8C       trackpoint_attr_thresh
 000D:C0294C94       psmouse_attr_mindrag
 000D:C0294CB8       trackpoint_attr_mindrag
 000D:C0294CC0       psmouse_attr_draghys
 000D:C0294CE4       trackpoint_attr_draghys
 000D:C0294CEC       psmouse_attr_reach
 000D:C0294D10       trackpoint_attr_reach
 000D:C0294D18       psmouse_attr_inertia
 000D:C0294D3C       trackpoint_attr_inertia
 000D:C0294D44       psmouse_attr_speed
 000D:C0294D68       trackpoint_attr_speed
 000D:C0294D70       psmouse_attr_sensitivity
 000D:C0294D94       trackpoint_attr_sensitivity
 000D:C0294D9C       __i2c_board_lock
 000D:C0294DA8       __i2c_board_list
 000D:C0294DB0       i2c_bus_type
 000D:C0294DE4       core_lock
 000D:C0294DF0       userspace_devices
 000D:C0294DF8       i2c_adapter_class
 000D:C0294E2C       dummy_driver
 000D:C0294E98       i2c_adapter_attrs
 000D:C0294EE8       i2c_dev_attrs
 000D:C0294F24       use_spi_crc
 000D:C0294F28       mmc_bus_type
 000D:C0294F5C       mmc_dev_attrs
 000D:C0294F84       mmc_host_class
 000D:C0294FB8       mmc_type
 000D:C0294FD0       mmc_attr_groups
 000D:C0294FD8       mmc_std_attr_group
 000D:C0294FE4       mmc_std_attrs
 000D:C029500C       dev_attr_serial
 000D:C0295020       dev_attr_oemid
 000D:C0295034       dev_attr_name_1
 000D:C0295048       dev_attr_manfid
 000D:C029505C       dev_attr_hwrev
 000D:C0295070       dev_attr_fwrev
 000D:C0295084       dev_attr_date
 000D:C0295098       dev_attr_csd
 000D:C02950AC       dev_attr_cid
 000D:C02950C0       sd_type
 000D:C02950D8       sd_attr_groups
 000D:C02950E0       sd_std_attr_group
 000D:C02950EC       sd_std_attrs
 000D:C0295118       dev_attr_serial_0
 000D:C029512C       dev_attr_oemid_0
 000D:C0295140       dev_attr_name_2
 000D:C0295154       dev_attr_manfid_0
 000D:C0295168       dev_attr_hwrev_0
 000D:C029517C       dev_attr_fwrev_0
 000D:C0295190       dev_attr_date_0
 000D:C02951A4       dev_attr_scr
 000D:C02951B8       dev_attr_csd_0
 000D:C02951CC       dev_attr_cid_0
 000D:C02951E0       sdio_bus_type
 000D:C0295214       sdio_dev_attrs
 000D:C0295278       mmc_driver
 000D:C02952B8       open_lock
 000D:C02952C4       mmc_bdops
 000D:C02952F0       hid_bus_type
 000D:C0295324       driver_attr_new_id
 000D:C0295338       sounds
 000D:C0295358       repeats
 000D:C0295360       leds
 000D:C02953A0       misc
 000D:C02953C0       absolutes
 000D:C02954C0       relatives
 000D:C0295500       keys
 000D:C0296100       syncs
 000D:C029610C       br_ioctl_mutex
 000D:C0296118       vlan_ioctl_mutex
 000D:C0296124       dlci_ioctl_mutex
 000D:C0296130       sockfs_ops
 000D:C0296178       sock_fs_type
 000D:C0296198       per_cpu__sockets_in_use
 000D:C029619C       sysctl_optmem_max
 000D:C02961A0       sysctl_rmem_default
 000D:C02961A4       sysctl_wmem_default
 000D:C02961A8       proto_list
 000D:C02961B0       sysctl_wmem_max
 000D:C02961B4       sysctl_rmem_max
 000D:C02961B8       per_cpu__prot_inuse
 000D:C02962B8       sysctl_max_syn_backlog
 000D:C02962BC       sock_pipe_buf_ops
 000D:C02962D8       net_mutex
 000D:C02962E4       first_device
 000D:C02962E8       pernet_list
 000D:C02962F0       net_namespace_list
 000D:C02962F8       net_core_table
 000D:C0296508       netns_core_table
 000D:C0296560       dev_boot_phase
 000D:C0296564       netdev_max_backlog
 000D:C0296568       weight_p
 000D:C029656C       netdev_budget
 000D:C0296570       net_todo_list
 000D:C0296578       per_cpu__softnet_data
 000D:C02965C0       per_cpu__netdev_rx_stat
 000D:C02965D0       dst_gc_mutex
 000D:C02965DC       dst_garbage
 000D:C02965E8       dst_gc_work
 000D:C0296610       dst_dev_notifier
 000D:C029661C       neigh_sysctl_template
 000D:C0296968       rtnl_mutex
 000D:C0296974       link_ops
 000D:C029697C       rtnetlink_net_ops
 000D:C029698C       rtnetlink_dev_notifier
 000D:C0296998       net_ratelimit_state
 000D:C02969AC       net_msg_warn
 000D:C02969B0       linkwatch_work
 000D:C02969D8       flow_flush_sem.19421
 000D:C02969E4       per_cpu__flow_tables
 000D:C02969E8       per_cpu__flow_hash_info
 000D:C02969F4       per_cpu__flow_flush_tasklets
 000D:C0296A08       net_class
 000D:C0296A3C       netstat_group
 000D:C0296A48       netstat_attrs
 000D:C0296AA8       dev_attr_tx_compressed
 000D:C0296ABC       dev_attr_rx_compressed
 000D:C0296AD0       dev_attr_tx_window_errors
 000D:C0296AE4       dev_attr_tx_heartbeat_errors
 000D:C0296AF8       dev_attr_tx_fifo_errors
 000D:C0296B0C       dev_attr_tx_carrier_errors
 000D:C0296B20       dev_attr_tx_aborted_errors
 000D:C0296B34       dev_attr_rx_missed_errors
 000D:C0296B48       dev_attr_rx_fifo_errors
 000D:C0296B5C       dev_attr_rx_frame_errors
 000D:C0296B70       dev_attr_rx_crc_errors
 000D:C0296B84       dev_attr_rx_over_errors
 000D:C0296B98       dev_attr_rx_length_errors
 000D:C0296BAC       dev_attr_collisions
 000D:C0296BC0       dev_attr_multicast
 000D:C0296BD4       dev_attr_tx_dropped
 000D:C0296BE8       dev_attr_rx_dropped
 000D:C0296BFC       dev_attr_tx_errors
 000D:C0296C10       dev_attr_rx_errors
 000D:C0296C24       dev_attr_tx_bytes
 000D:C0296C38       dev_attr_rx_bytes
 000D:C0296C4C       dev_attr_tx_packets
 000D:C0296C60       dev_attr_rx_packets
 000D:C0296C74       net_class_attributes
 000D:C0296DC8       noop_qdisc
 000D:C0296E44       noqueue_qdisc
 000D:C0296EC0       pfifo_fast_ops
 000D:C0296F08       noqueue_netdev_queue
 000D:C0296F2C       noqueue_qdisc_ops
 000D:C0296F74       noop_netdev_queue
 000D:C0296F98       noop_qdisc_ops
 000D:C0296FE0       nl_table_wait
 000D:C0296FE8       netlink_proto
 000D:C029709C       rover.27481
 000D:C02970A0       netlink_family_ops
 000D:C02970AC       genl_ctrl
 000D:C02970E8       genl_mutex
 000D:C02970F4       notify_grp
 000D:C0297114       mc_groups
 000D:C0297118       mc_groups_longs
 000D:C029711C       mc_group_start
 000D:C0297120       genl_ctrl_ops
 000D:C0297140       ip_rt_error_burst
 000D:C0297144       ip_rt_error_cost
 000D:C0297148       ip_rt_secret_interval
 000D:C029714C       ipv4_route_flush_table
 000D:C02971A4       ipv4_dst_ops
 000D:C02971D8       ip_rt_gc_timeout
 000D:C02971DC       rt_chain_length_max
 000D:C02971E0       ip_rt_gc_elasticity
 000D:C02971E4       ip_rt_gc_interval
 000D:C02971E8       ip_rt_min_pmtu
 000D:C02971EC       ip_rt_mtu_expires
 000D:C02971F0       ip_rt_min_advmss
 000D:C02971F4       ip_rt_gc_min_interval
 000D:C02971F8       expire.34379
 000D:C02971FC       ipv4_dst_blackhole_ops
 000D:C0297230       ip_rt_redirect_silence
 000D:C0297234       ip_rt_redirect_number
 000D:C0297238       ip_rt_redirect_load
 000D:C029723C       ipv4_skeleton
 000D:C02972C0       ipv4_route_table
 000D:C02975AC       per_cpu__rt_cache_stat
 000D:C02975EC       inet_peer_threshold
 000D:C02975F0       inet_peer_gc_maxtime
 000D:C02975F4       peer_periodic_timer
 000D:C029760C       unused_peers
 000D:C0297614       peer_root
 000D:C0297618       peer_fake_node
 000D:C0297644       inet_peer_minttl
 000D:C0297648       inet_peer_maxttl
 000D:C029764C       inet_peer_gc_mintime
 000D:C0297650       sysctl_ipfrag_max_dist
 000D:C0297654       ip4_frags_ns_ctl_table
 000D:C0297704       ip4_frags_ctl_table
 000D:C0297788       ip4_frags_ops
 000D:C0297798       sysctl_ip_default_ttl
 000D:C029779C       sysctl_local_ports
 000D:C02977A8       sysctl_tcp_fin_timeout
 000D:C02977AC       sysctl_tcp_adv_win_scale
 000D:C02977B0       sysctl_tcp_app_win
 000D:C02977B4       sysctl_tcp_reordering
 000D:C02977B8       sysctl_tcp_window_scaling
 000D:C02977BC       sysctl_tcp_timestamps
 000D:C02977C0       sysctl_tcp_sack
 000D:C02977C4       sysctl_tcp_dsack
 000D:C02977C8       sysctl_tcp_moderate_rcvbuf
 000D:C02977CC       sysctl_tcp_frto
 000D:C02977D0       sysctl_tcp_fack
 000D:C02977D4       sysctl_tcp_max_orphans
 000D:C02977D8       sysctl_tcp_ecn
 000D:C02977DC       sysctl_tcp_base_mss
 000D:C02977E0       sysctl_tcp_slow_start_after_idle
 000D:C02977E4       sysctl_tcp_tso_win_divisor
 000D:C02977E8       sysctl_tcp_retrans_collapse
 000D:C02977EC       sysctl_tcp_keepalive_time
 000D:C02977F0       sysctl_tcp_keepalive_probes
 000D:C02977F4       sysctl_tcp_keepalive_intvl
 000D:C02977F8       sysctl_tcp_syn_retries
 000D:C02977FC       sysctl_tcp_retries1
 000D:C0297800       sysctl_tcp_retries2
 000D:C0297804       sysctl_tcp_synack_retries
 000D:C0297808       tcp4_seq_afinfo
 000D:C0297888       ipv4_specific
 000D:C02978B4       tcp_request_sock_ops
 000D:C02978D4       tcp4_net_ops
 000D:C02978E4       tcp_prot
 000D:C0297998       tcp_timewait_sock_ops
 000D:C02979AC       tcp_death_row
 000D:C0297AB0       tcp_cong_list
 000D:C0297AB8       tcp_init_congestion_ops
 000D:C0297B00       tcp_reno
 000D:C0297B48       raw_prot
 000D:C0297BFC       udp4_seq_afinfo
 000D:C0297C80       udp4_net_ops
 000D:C0297C90       udp_prot
 000D:C0297D44       udplite4_seq_afinfo
 000D:C0297DC8       udplite_prot
 000D:C0297E7C       udplite_protocol
 000D:C0297E98       udplite4_protosw
 000D:C0297EB4       udplite4_net_ops
 000D:C0297EC4       arp_tbl
 000D:C0297FBC       arp_direct_ops
 000D:C0297FD8       arp_hh_ops
 000D:C0297FF4       arp_generic_ops
 000D:C0298010       arp_packet_type
 000D:C0298038       arp_net_ops
 000D:C0298048       arp_netdev_notifier
 000D:C0298054       arp_broken_ops
 000D:C0298070       icmp_err_convert
 000D:C02980F0       inetaddr_chain
 000D:C0298100       devinet_sysctl
 000D:C02984FC       ipv4_devconf
 000D:C029855C       ctl_forward_entry
 000D:C02985B4       ipv4_devconf_dflt
 000D:C0298614       ip_netdev_notifier
 000D:C0298620       inetsw_array
 000D:C0298674       inet_family_ops
 000D:C0298680       icmp_protocol
 000D:C029869C       udp_protocol
 000D:C02986B8       tcp_protocol
 000D:C02986D4       igmp_protocol
 000D:C02986F0       ip_packet_type
 000D:C0298718       sysctl_igmp_max_memberships
 000D:C029871C       sysctl_igmp_max_msf
 000D:C0298720       igmp_net_ops
 000D:C0298730       fib_net_ops
 000D:C0298740       fib_netdev_notifier
 000D:C029874C       fib_inetaddr_notifier
 000D:C0298758       net_ipv4_ctl_path
 000D:C0298770       ipv4_table
 000D:C02991EC       ipv4_net_table
 000D:C029934C       ip_local_port_range_min
 000D:C0299354       ip_local_port_range_max
 000D:C029935C       tcp_retr1_max
 000D:C0299360       xfrm4_beet_mode
 000D:C0299380       xfrm4_transport_mode
 000D:C02993A0       xfrm4_tunnel_mode
 000D:C02993C0       ic_servaddr
 000D:C02993C4       ic_myaddr
 000D:C02993C8       ic_gateway
 000D:C02993CC       ic_netmask
 000D:C02993D0       root_server_addr
 000D:C02993D4       fast_convergence
 000D:C02993D8       beta
 000D:C02993DC       cubictcp
 000D:C0299424       bic_scale
 000D:C0299428       hystart
 000D:C029942C       hystart_low_window
 000D:C0299430       hystart_detect
 000D:C0299434       tcp_friendliness
 000D:C0299438       xfrm4_policy_afinfo
 000D:C0299460       xfrm4_dst_ops
 000D:C0299494       xfrm4_state_afinfo
 000D:C02998D8       xfrm_policy_gc_work
 000D:C02998E8       xfrm_dev_notifier
 000D:C02998F4       hash_resize_mutex
 000D:C0299900       xfrm_cfg_mutex
 000D:C029990C       xfrm_km_list
 000D:C0299914       hash_resize_mutex_0
 000D:C0299920       aalg_list
 000D:C02999B0       ealg_list
 000D:C0299AA0       calg_list
 000D:C0299AE8       aead_list
 000D:C0299B78       xfrm_table
 000D:C0299C54       unix_proto
 000D:C0299CE0       aUnix_0
 000D:C0299D08       unix_net_ops
 000D:C0299D18       unix_family_ops
 000D:C0299D24       ordernum.27586
 000D:C0299D28       gc_candidates
 000D:C0299D30       gc_inflight_list
 000D:C0299D38       unix_gc_wait
 000D:C0299D40       unix_table
 000D:C0299D98       unix_path
 000D:C0299DB0       packet_netdev_notifier
 000D:C0299DBC       packet_net_ops
 000D:C0299DCC       packet_proto
 000D:C0299E80       packet_mmap_ops
 000D:C0299E94       packet_family_ops
 000D:C0299EA0       rpcproc_null
 000D:C0299EC4       all_clients
 000D:C0299ECC       destroy_wait
 000D:C0299ED4       xprt_list
 000D:C0299EDC       xprt_min_resvport
 000D:C0299EE0       xprt_max_resvport
 000D:C0299EE4       xs_tcp_fin_timeout
 000D:C0299EE8       xprt_tcp_slot_table_entries
 000D:C0299EEC       xs_tcp_ops
 000D:C0299F28       xprt_udp_slot_table_entries
 000D:C0299F2C       xs_udp_ops
 000D:C0299F68       sunrpc_table
 000D:C0299FC0       xs_udp_transport
 000D:C0299FF4       xs_tcp_transport
 000D:C029A028       xs_tunables_table
 000D:C029A130       xprt_max_resvport_limit
 000D:C029A134       xprt_min_resvport_limit
 000D:C029A138       max_slot_table_size
 000D:C029A13C       min_slot_table_size
 000D:C029A140       auth_flavors
 000D:C029A160       cred_unused
 000D:C029A168       rpc_cred_shrinker
 000D:C029A17C       null_auth
 000D:C029A19C       null_cred
 000D:C029A1D0       unix_auth
 000D:C029A1F0       generic_auth
 000D:C029A210       svc_pool_map_mutex
 000D:C029A21C       svc_udp_class
 000D:C029A234       svc_tcp_class
 000D:C029A24C       svc_tcp_ops
 000D:C029A270       svc_udp_ops
 000D:C029A294       authtab
 000D:C029A2B4       svcauth_unix
 000D:C029A2D0       unix_gid_cache
 000D:C029A340       ip_map_cache
 000D:C029A3B0       svcauth_null
 000D:C029A3CC       rpcb_program
 000D:C029A3E4       rpcb_procedures2
 000D:C029A474       rpcb_procedures4
 000D:C029A5DC       rpcb_version
 000D:C029A5F0       rpcb_version4
 000D:C029A5FC       rpcb_version3
 000D:C029A608       rpcb_version2
 000D:C029A614       rpcb_procedures3
 000D:C029A6A4       queue_wait
 000D:C029A6AC       cache_list
 000D:C029A6B4       cache_cleaner
 000D:C029A6C8       aAtst_0
 000D:C029A6DC       queue_io_mutex
 000D:C029A6E8       cache_defer_list
 000D:C029A6F0       s_ops
 000D:C029A738       files
 000D:C029A798       rpc_pipe_fs_type
 000D:C029A7B8       authfiles
 000D:C029A7DC       svc_xprt_class_list
 000D:C029A7E4       sunrpc_table_0
 000D:C029A83C       debug_table_0
 000D:C029A944       net_sysctl_ro_root
 000D:C029A964       net_sysctl_root
 000D:C029A984       sysctl_pernet_ops
 000D:C029A994       klist_remove_waiters
 000D:C029A99C       contig_page_data
 000D:C029AF98       __stop___markers
 000E:C029AFA0       __start___verbose
 000E:C029AFA4       execute_command
 000E:C029AFA8       ramdisk_execute_command
 000E:C029AFAC       panic_later
 000E:C029AFB0       panic_param
 000E:C029AFB4       system_state
 000E:C029AFB8       saved_command_line
 000E:C029AFBC       static_command_line
 000E:C029AFC0       initcall_debug
 000E:C029AFC4       call
 000E:C029B0A8       ret
 000E:C029B198       msgbuf
 000E:C029B1D8       ROOT_DEV
 000E:C029B1DC       exit_code
 000E:C029B1E0       decompress_error
 000E:C029B1E4       crd_infd
 000E:C029B1E8       crd_outfd
 000E:C029B1EC       real_root_dev
 000E:C029B1F0       initrd_below_start_ok
 000E:C029B1F4       initrd_end
 000E:C029B1F8       initrd_start
 000E:C029B1FC       my_inptr
 000E:C029B200       __warned.14226
 000E:C029B204       preset_lpj
 000E:C029B208       lpj_fine
 000E:C029B220       irq_err_count
 000E:C029B224       hlt_counter
 000E:C029B228       pm_power_off
 000E:C029B22C       thread_notify_head
 000E:C029B240       fpe_type
 000E:C029B248       system_serial_low
 000E:C029B24C       system_serial_high
 000E:C029B250       system_rev
 000E:C029B254       cpu_name
 000E:C029B258       elf_platform
 000E:C029B260       elf_hwcap
 000E:C029B264       machine_name
 000E:C029B280       stacks
 000E:C029B2C0       cpu_user
 000E:C029B2C8       cpu_cache
 000E:C029B2EC       cacheid
 000E:C029B2F0       __machine_arch_type
 000E:C029B2F4       processor_id
 000E:C029B2F8       system_timer
 000E:C029B2FC       set_rtc
 000E:C029B300       user_debug
 000E:C029B304       die_counter.14995
 000E:C029B308       die_lock
 000E:C029B30C       keep_initrd
 000E:C029B310       meminfo
 000E:C029B374       pgprot_user
 000E:C029B378       pgprot_kernel
 000E:C029B37C       top_pmd
 000E:C029B380       empty_zero_page
 000E:C029B384       ai_usermode
 000E:C029B388       ai_half
 000E:C029B38C       ai_dword
 000E:C029B390       ai_word
 000E:C029B394       ai_multi
 000E:C029B398       ai_user
 000E:C029B39C       ai_sys
 000E:C029B3A0       ai_skipped
 000E:C029B3A4       vic_devices
 000E:C029B43C       vic_id
 000E:C029B440       orig_fp_enter
 000E:C029B444       float_detect_tininess
 000E:C029B460       calc_load_tasks
 000E:C029B468       def_rt_bandwidth
 000E:C029B4B0       sysctl_sched_compat_yield
 000E:C029B4B4       avenrun
 000E:C029B4C0       calc_load_update
 000E:C029B4C4       nohz_cpu_mask
 000E:C029B4C8       scheduler_running
 000E:C029B4CC       task_struct_cachep
 000E:C029B4D0       mm_cachep
 000E:C029B4D4       max_threads
 000E:C029B4D8       vm_area_cachep
 000E:C029B4DC       sighand_cachep
 000E:C029B4E0       signal_cachep
 000E:C029B4E4       nr_threads
 000E:C029B4E8       total_forks
 000E:C029B4EC       files_cachep
 000E:C029B4F0       fs_cachep
 000E:C029B4F4       mmlist_lock
 000E:C029B4F8       tainted_mask
 000E:C029B4FC       buf.13730
 000E:C029B8FC       panic_notifier_list
 000E:C029B900       panic_blink
 000E:C029B904       panic_timeout
 000E:C029B908       oops_id
 000E:C029B910       pause_on_oops_flag
 000E:C029B914       spin_counter.13796
 000E:C029B918       pause_on_oops
 000E:C029B91C       buf.13757
 000E:C029B934       panic_on_oops
 000E:C029B938       console_drivers
 000E:C029B93C       log_end
 000E:C029B940       log_start
 000E:C029B944       con_start
 000E:C029B948       logged_chars
 000E:C029B94C       console_may_schedule
 000E:C029B950       console_suspended
 000E:C029B954       console_locked
 000E:C029B958       ignore_loglevel
 000E:C029B95C       console_cmdline
 000E:C029B9DC       console_set_on_cmdline
 000E:C029B9E0       printk_buf
 000E:C029BDE0       oops_in_progress
 000E:C029BDE4       recursion_bug
 000E:C029BDE8       oops_timestamp.21468
 000E:C029BDEC       printk_time
 000E:C029BDF0       __log_buf
 000E:C029FDF0       cpu_possible_bits
 000E:C029FDF4       cpu_present_bits
 000E:C029FDF8       cpu_online_bits
 000E:C029FDFC       cpu_active_bits
 000E:C029FE00       sys_tz
 000E:C029FE20       __warned.18703
 000E:C029FE24       __warned.18708
 000E:C029FE40       irq_stat
 000E:C029FE60       softirq_vec
 000E:C029FE84       __warned.18721
 000E:C029FE88       reserved.13627
 000E:C029FE8C       reserve.13628
 000E:C029FEFC       strict_iomem_checks
 000E:C029FF00       msg_count.26334
 000E:C029FF04       dev_table
 000E:C029FF30       debug_table
 000E:C029FF5C       min_wakeup_granularity_ns
 000E:C029FF60       minolduid
 000E:C029FF64       zero
 000E:C029FF68       warned.20186
 000E:C029FF6C       warned.20191
 000E:C029FF80       boot_tvec_bases
 000E:C02A0FA0       boot_done.21269
 000E:C02A0FA4       uid_cachep
 000E:C02A0FA8       uidhash_lock
 000E:C02A0FAC       sigqueue_cachep
 000E:C02A0FB0       pm_power_off_prepare
 000E:C02A0FB4       cad_pid
 000E:C02A0FB8       running_helpers
 000E:C02A0FBC       khelper_wq
 000E:C02A0FC0       usermodehelper_disabled
 000E:C02A0FC4       kmod_concurrent.21078
 000E:C02A0FC8       kmod_loop_msg.21079
 000E:C02A0FCC       keventd_wq
 000E:C02A0FD0       singlethread_cpu
 000E:C02A0FD4       cpu_populated_map
 000E:C02A0FD8       cpu_singlethread_map
 000E:C02A0FDC       pid_hash
 000E:C02A0FE0       pidhash_shift
 000E:C02A0FE4       rcu_barrier_cpu_count
 000E:C02A0FE8       rcu_barrier_completion
 000E:C02A0FF4       rcu_scheduler_active
 000E:C02A0FF8       module_kset
 000E:C02A0FFC       module_sysfs_initialized
 000E:C02A1000       posix_timers_id
 000E:C02A1010       posix_clocks
 000E:C02A1290       posix_timers_cache
 000E:C02A1294       kthreadd_task
 000E:C02A1298       zero_it.13445
 000E:C02A12A8       nsproxy_cachep
 000E:C02A12AC       die_chain
 000E:C02A12B0       kernel_kobj
 000E:C02A12B4       name
 000E:C02A12C8       null_pm_qos
 000E:C02A130C       sched_clock_running
 000E:C02A1310       cred_jar
 000E:C02A1314       async_enabled
 000E:C02A1318       entry_count
 000E:C02A131C       thread_count
 000E:C02A1320       xtime_cache
 000E:C02A1328       xtime_lock
 000E:C02A132C       clock
 000E:C02A1330       xtime
 000E:C02A1338       timekeeping_suspend_time
 000E:C02A1340       wall_to_monotonic
 000E:C02A1348       total_sleep_time
 000E:C02A134C       timekeeping_suspended
 000E:C02A1350       time_freq
 000E:C02A1358       ntp_tick_adj
 000E:C02A1360       tick_nsec
 000E:C02A1368       tick_length
 000E:C02A1370       tick_length_base
 000E:C02A1378       time_state
 000E:C02A1380       leap_timer
 000E:C02A13B8       time_tai
 000E:C02A13BC       time_adjust
 000E:C02A13C0       time_offset
 000E:C02A13C8       time_reftime
 000E:C02A13CC       finished_booting
 000E:C02A13D0       clocksource_override
 000E:C02A13D4       override_name
 000E:C02A13F4       next_clocksource
 000E:C02A13F8       clockevents_chain
 000E:C02A13FC       __warned.10292
 000E:C02A1400       tick_next_period
 000E:C02A1408       tick_period
 000E:C02A1410       tick_device_lock
 000E:C02A2410       futex_cmpxchg_enabled
 000E:C02A2414       __warned.19475
 000E:C02A2418       prev_max.13091
 000E:C02A241C       module_addr_max
 000E:C02A2420       modules_disabled
 000E:C02A2424       last_unloaded_module
 000E:C02A2464       power_kobj
 000E:C02A2468       pm_flags
 000E:C02A246C       disable_vt_switch
 000E:C02A2470       orig_fgconsole
 000E:C02A2474       orig_kmsg
 000E:C02A2478       suspend_ops
 000E:C02A247C       did_panic
 000E:C02A2480       softlockup_panic
 000E:C02A2484       did_panic_0
 000E:C02A2488       sysctl_hung_task_panic
 000E:C02A248C       watchdog_task
 000E:C02A2490       kstat_irqs_all
 000E:C02A25B0       noirqdebug
 000E:C02A25B4       irqfixup
 000E:C02A25B8       irqs_resend
 000E:C02A25C4       root_irq_dir
 000E:C02A25C8       bootmem_debug
 000E:C02A25CC       __warned.11173
 000E:C02A25D0       max_low_pfn
 000E:C02A25D4       min_low_pfn
 000E:C02A25D8       __warned.11226
 000E:C02A25DC       __warned.11238
 000E:C02A25E0       __warned.11254
 000E:C02A25E4       max_pfn
 000E:C02A25E8       sysctl_oom_dump_tasks
 000E:C02A25EC       sysctl_oom_kill_allocating_task
 000E:C02A25F0       sysctl_panic_on_oom
 000E:C02A25F4       nr_shown.22329
 000E:C02A25F8       resume.22328
 000E:C02A25FC       nr_unshown.22330
 000E:C02A2600       totalram_pages
 000E:C02A2604       totalreserve_pages
 000E:C02A2608       current_zonelist_order
 000E:C02A260C       page_group_by_mobility_disabled
 000E:C02A2610       percpu_pagelist_fraction
 000E:C02A2614       __warned.22634
 000E:C02A2618       __warned.22784
 000E:C02A261C       oom_killer_disabled
 000E:C02A2620       hashdist
 000E:C02A2624       highest_memmap_pfn
 000E:C02A2628       vm_completions
 000E:C02A2660       dirty_background_bytes
 000E:C02A2668       vm_dirties
 000E:C02A26A0       bdi_min_ratio
 000E:C02A26A4       vm_dirty_bytes
 000E:C02A26A8       laptop_mode
 000E:C02A26AC       __warned.23587
 000E:C02A26B0       block_dump
 000E:C02A26B4       vm_highmem_is_dirtyable
 000E:C02A26B8       nr_pdflush_threads
 000E:C02A26BC       last_empty_jifs
 000E:C02A26C0       page_cluster
 000E:C02A26C4       scan_unevictable_pages
 000E:C02A26C8       vm_total_pages
 000E:C02A26CC       shmem_inode_cachep
 000E:C02A26D0       shm_mnt
 000E:C02A26D4       vm_stat
 000E:C02A2720       bdi_class
 000E:C02A2724       mminit_loglevel
 000E:C02A2728       mm_kobj
 000E:C02A272C       nr_shown.23399
 000E:C02A2730       resume.23398
 000E:C02A2734       nr_unshown.23400
 000E:C02A2738       mem_map
 000E:C02A273C       max_mapnr
 000E:C02A2740       high_memory
 000E:C02A2744       num_physpages
 000E:C02A2748       vm_committed_as
 000E:C02A2750       sysctl_overcommit_memory
 000E:C02A2754       anon_vma_cachep
 000E:C02A2758       vmap_area_root
 000E:C02A275C       vmlist
 000E:C02A2760       vmap_lazy_nr
 000E:C02A2764       vmap_initialized
 000E:C02A2768       va.18812
 000E:C02A276C       vmlist_lock
 000E:C02A277C       swap_info
 000E:C02A30FC       nr_swapfiles
 000E:C02A3100       swap_overflow
 000E:C02A3104       nr_swap_pages
 000E:C02A3108       least_priority
 000E:C02A310C       total_swap_pages
 000E:C02A3110       global_faults
 000E:C02A3114       swap_token_mm
 000E:C02A3118       cache_chain
 000E:C02A3120       g_cpucache_up
 000E:C02A3124       slab_break_gfp_order
 000E:C02A3128       filp_cachep
 000E:C02A3130       nr_files
 000E:C02A3138       old_max.19448
 000E:C02A313C       unnamed_dev_ida
 000E:C02A3150       unnamed_dev_start
 000E:C02A3154       sb_lock
 000E:C02A319C       chrdevs
 000E:C02A3598       cdev_map
 000E:C02A359C       suid_dumpable
 000E:C02A35A0       core_uses_pid
 000E:C02A35A4       pipe_mnt
 000E:C02A35A8       __warned.21756
 000E:C02A35AC       fasync_cache
 000E:C02A35B0       dentry_cache
 000E:C02A35B4       rename_lock
 000E:C02A35B8       d_hash_shift
 000E:C02A35BC       dentry_hashtable
 000E:C02A35C0       d_hash_mask
 000E:C02A35C4       names_cachep
 000E:C02A35C8       i_hash_shift
 000E:C02A35CC       i_hash_mask
 000E:C02A35D0       inode_hashtable
 000E:C02A35D4       inodes_stat
 000E:C02A35F0       empty_iops.21655
 000E:C02A364C       empty_fops.21656
 000E:C02A36B4       empty_aops.21654
 000E:C02A36F4       inode_cachep
 000E:C02A36F8       last_ino.21831
 000E:C02A36FC       counter.21871
 000E:C02A3700       inode_lock
 000E:C02A3704       mnt_id_ida
 000E:C02A3718       mnt_id_start
 000E:C02A371C       mnt_group_ida
 000E:C02A3730       namespace_sem
 000E:C02A373C       event
 000E:C02A3740       mount_hashtable
 000E:C02A3744       mnt_cache
 000E:C02A3748       vfsmount_lock
 000E:C02A374C       sysctl_drop_caches
 000E:C02A3750       __warned.23568
 000E:C02A3754       buffer_heads_over_limit
 000E:C02A3758       max_buffer_heads
 000E:C02A375C       bh_cachep
 000E:C02A3760       __warned.23710
 000E:C02A3764       msg_count.24430
 000E:C02A3768       bio_split_pool
 000E:C02A376C       bio_slab_nr
 000E:C02A3770       bio_slabs
 000E:C02A3774       bio_slab_max
 000E:C02A3778       fs_bio_set
 000E:C02A377C       bio_dirty_list
 000E:C02A3780       bdev_cachep
 000E:C02A3784       blockdev_superblock
 000E:C02A3788       fsnotify_sync_cookie
 000E:C02A378C       fsnotify_event_cachep
 000E:C02A3790       fsnotify_event_holder_cachep
 000E:C02A3794       q_overflow_event
 000E:C02A37CC       fsnotify_grp_srcu
 000E:C02A37E0       fsnotify_mask
 000E:C02A37E4       dnotify_struct_cache
 000E:C02A37E8       dnotify_mark_entry_cache
 000E:C02A37EC       dnotify_group
 000E:C02A37F0       warned.11918
 000E:C02A37F4       inotify_inode_mark_cachep
 000E:C02A37F8       inotify_mnt
 000E:C02A37FC       event_priv_cachep
 000E:C02A3800       inotify_max_queued_events
 000E:C02A3804       inotify_max_user_instances
 000E:C02A3808       inotify_max_user_watches
 000E:C02A380C       inotify_grp_num
 000E:C02A3810       zero_0
 000E:C02A3814       pwq_cache
 000E:C02A3818       max_user_watches
 000E:C02A381C       poll_safewake_ncalls
 000E:C02A3824       poll_readywalk_ncalls
 000E:C02A382C       epi_cache
 000E:C02A3830       zero_1
 000E:C02A3834       anon_inode_inode
 000E:C02A3838       anon_inode_mnt
 000E:C02A383C       anon_inode_fops
 000E:C02A38A4       aio_wq
 000E:C02A38A8       kiocb_cachep
 000E:C02A38AC       kioctx_cachep
 000E:C02A38B0       aio_nr
 000E:C02A38B4       filelock_cache
 000E:C02A38B8       proc_inode_cachep
 000E:C02A38BC       proc_mnt
 000E:C02A38C0       proc_inum_ida
 000E:C02A38D4       proc_tty_driver
 000E:C02A38D8       proc_tty_ldisc
 000E:C02A38DC       last_sysfs_file
 000E:C02A48DC       sysfs_workqueue
 000E:C02A48E0       sysfs_ino_ida
 000E:C02A48F4       sysfs_sb
 000E:C02A48F8       sysfs_dir_cachep
 000E:C02A48FC       sysfs_mount
 000E:C02A4900       devpts_mnt
 000E:C02A4904       ext2_inode_cachep
 000E:C02A4908       buffer_dev
 000E:C02A4910       buffer_blocknr
 000E:C02A4918       read_buffers
 000E:C02AC918       next_buffer
 000E:C02AC91C       zerotime.20972
 000E:C02AC924       stream
 000E:C02AC954       initialized
 000E:C02AC958       minix_inode_cachep
 000E:C02AC95C       proc_fs_nfs
 000E:C02AC960       sillycounter.22523
 000E:C02AC964       nfs_access_nr_entries
 000E:C02AC968       nfs_attr_generation_counter
 000E:C02AC96C       nfsiod_workqueue
 000E:C02AC970       nfs_inode_cachep
 000E:C02AC974       nfs_direct_cachep
 000E:C02AC978       nfs_page_cachep
 000E:C02AC97C       nfs_rdata_mempool
 000E:C02AC980       nfs_rdata_cachep
 000E:C02AC984       nfs_congestion_kb
 000E:C02AC988       nfs_commit_mempool
 000E:C02AC98C       nfs_wdata_mempool
 000E:C02AC990       complain.24126
 000E:C02AC994       complain.24133
 000E:C02AC998       nfs_wdata_cachep
 000E:C02AC99C       mnt_stats
 000E:C02AC9C4       nfs_callback_sysctl_table
 000E:C02AC9C8       nfsd_serv
 000E:C02AC9CC       nfsd_versions
 000E:C02AC9DC       nfsd_supported_minorversion
 000E:C02AC9E0       nfssvc_boot
 000E:C02AC9E8       nfsd_max_blksize
 000E:C02AC9EC       buf.20523
 000E:C02ACA3C       raparm_hash
 000E:C02ACA7C       last_ino.22322
 000E:C02ACA80       last_dev.22323
 000E:C02ACA84       export_table
 000E:C02ACE84       expkey_table
 000E:C02AD284       lru_head
 000E:C02AD28C       cache_hash
 000E:C02AD290       complaints.16016
 000E:C02AD294       nfsdstats
 000E:C02AD31C       nlm_hosts
 000E:C02AD39C       nrhosts
 000E:C02AD3A0       next_gc
 000E:C02AD3A4       lockd_manager
 000E:C02AD3AC       nlm_grace_period
 000E:C02AD3B0       nlmsvc_timeout
 000E:C02AD3B4       nlmsvc_ops
 000E:C02AD3B8       nlm_sysctl_table
 000E:C02AD3BC       nlmsvc_users
 000E:C02AD3C0       nlmsvc_task
 000E:C02AD3C4       nlmsvc_rqst
 000E:C02AD3C8       nlm_udpport
 000E:C02AD3CC       nlm_tcpport
 000E:C02AD3D0       warned.31755
 000E:C02AD3D4       nlmsvc_stats
 000E:C02AD3F8       nlm_files
 000E:C02AD5F8       nsm_use_hostnames
 000E:C02AD5FC       nsm_local_state
 000E:C02AD600       nsm_stats
 000E:C02AD628       buf.31312
 000E:C02AD66C       nlm_stats_0
 000E:C02AD694       none_stat_compr_blocks
 000E:C02AD698       none_stat_compr_size
 000E:C02AD69C       none_stat_decompr_blocks
 000E:C02AD6A0       full_dnode_slab
 000E:C02AD6A4       raw_dirent_slab
 000E:C02AD6A8       raw_inode_slab
 000E:C02AD6AC       tmp_dnode_info_slab
 000E:C02AD6B0       raw_node_ref_slab
 000E:C02AD6B4       node_frag_slab
 000E:C02AD6B8       inode_cache_slab
 000E:C02AD6BC       pseudo_random
 000E:C02AD6C0       jffs2_inode_cachep
 000E:C02AD6C4       inodirty_nomem
 000E:C02AD6CC       n.18143
 000E:C02AD6D0       inf_strm
 000E:C02AD700       def_strm
 000E:C02AD730       romfs_inode_cachep
 000E:C02AD734       zero_2
 000E:C02AD738       mmap_min_addr
 000E:C02AD73C       __warned.19587
 000E:C02AD740       __warned.19619
 000E:C02AD744       chosen_elevator
 000E:C02AD754       printed.21399
 000E:C02AD758       blk_requestq_cachep
 000E:C02AD75C       kblockd_workqueue
 000E:C02AD760       request_cachep
 000E:C02AD764       blk_max_low_pfn
 000E:C02AD768       blk_max_pfn
 000E:C02AD76C       __warned.20900
 000E:C02AD770       __warned.20827
 000E:C02AD774       iocontext_cachep
 000E:C02AD778       major_names
 000E:C02ADB74       bdev_map
 000E:C02ADB78       block_depr
 000E:C02ADB7C       p.21647
 000E:C02ADB80       ext_devt_idr
 000E:C02ADB90       blk_default_cmd_filter
 000E:C02ADBD0       bsg_minor_idr
 000E:C02ADBE0       bsg_class
 000E:C02ADBE4       bsg_major
 000E:C02ADBE8       bsg_cmd_cachep
 000E:C02ADBEC       bsg_device_list
 000E:C02ADC0C       bsg_cdev
 000E:C02ADC48       ioc_gone
 000E:C02ADC4C       cfq_pool
 000E:C02ADC50       cfq_ioc_pool
 000E:C02ADC54       ioc_gone_0
 000E:C02ADC58       cfq_slice_idle
 000E:C02ADC5C       error_1
 000E:C02ADC60       error_2
 000E:C02ADC64       error_3
 000E:C02ADC68       idr_layer_cache
 000E:C02ADC70       uevent_seqnum
 000E:C02ADC78       uevent_sock
 000E:C02ADC7C       index_bits_to_maxindex
 000E:C02ADCFC       height_to_maxindex
 000E:C02ADD18       radix_tree_node_cachep
 000E:C02ADD1C       debug_locks_silent
 000E:C02ADD20       length_code
 000E:C02ADE20       base_length
 000E:C02ADE94       dist_code
 000E:C02AE094       base_dist
 000E:C02AE10C       static_init_done.5502
 000E:C02AE110       static_ltree
 000E:C02AE590       static_dtree
 000E:C02AE620       registered_fb
 000E:C02AE6A0       num_registered_fb
 000E:C02AE6A4       fb_class
 000E:C02AE6A8       ofonly
 000E:C02AE6AC       video_options
 000E:C02AE72C       fb_mode_option
 000E:C02AE740       mem_class
 000E:C02AE744       mmap_mem_ops
 000E:C02AE760       fasync
 000E:C02AE764       ip_cnt
 000E:C02AE780       ip_keydata
 000E:C02AE800       last_value.19185
 000E:C02AE804       input_timer_state
 000E:C02AE814       sysctl_bootid
 000E:C02AE824       min_write_thresh
 000E:C02AE828       nonblocking_pool_data
 000E:C02AE8A8       blocking_pool_data
 000E:C02AE928       input_pool_data
 000E:C02AEB28       tty_class
 000E:C02AEB2C       tty_cdev
 000E:C02AEB68       console_cdev
 000E:C02AEBA4       redirect
 000E:C02AEBA8       tty_ldiscs
 000E:C02AEBF4       __warned.20143
 000E:C02AEBF8       tty_ldisc_lock
 000E:C02AEBFC       pty_driver
 000E:C02AEC00       pty_slave_driver
 000E:C02AEC04       ptm_driver
 000E:C02AEC08       pts_driver
 000E:C02AEC0C       ptmx_fops
 000E:C02AEC74       ptmx_cdev
 000E:C02AECB0       pty_limit_min
 000E:C02AECB4       misc_minors
 000E:C02AECBC       misc_class
 000E:C02AECC0       vt_dont_switch
 000E:C02AECC4       vc_class
 000E:C02AECC8       sel_cons
 000E:C02AECCC       use_unicode
 000E:C02AECD0       sel_end
 000E:C02AECD4       sel_buffer
 000E:C02AECD8       sel_buffer_lth
 000E:C02AECDC       dead_key_next
 000E:C02AECE0       rep
 000E:C02AECE4       keyboard_notifier_list
 000E:C02AECE8       kbd_table
 000E:C02AEE23       ledioctl
 000E:C02AEE24       shift_state
 000E:C02AEE28       shift_down
 000E:C02AEE34       diacr
 000E:C02AEE38       vt_spawn_con
 000E:C02AEE40       committed.20428
 000E:C02AEE44       chords.20427
 000E:C02AEE48       committing.20435
 000E:C02AEE4C       pressed.20434
 000E:C02AEE50       releasestart.20436
 000E:C02AEE54       key_down
 000E:C02AEEB4       sysrq_alt
 000E:C02AEEB8       sysrq_down
 000E:C02AEEBC       sysrq_alt_use
 000E:C02AEEC0       inv_translate
 000E:C02AEFBC       dflt
 000E:C02AEFC0       softcursor_original
 000E:C02AEFC4       console_blanked
 000E:C02AEFC8       fg_console
 000E:C02AEFCC       console_driver
 000E:C02AEFD0       con_driver_map
 000E:C02AF0CC       vt_notifier_list
 000E:C02AF0D0       conswitchp
 000E:C02AF0D4       master_display_fg
 000E:C02AF0D8       registered_con_driver
 000E:C02AF298       vtconsole_class
 000E:C02AF29C       vc_cons
 000E:C02AF788       blank_state
 000E:C02AF78C       vesa_blank_mode
 000E:C02AF790       blank_timer_expired
 000E:C02AF794       vesa_off_interval
 000E:C02AF798       console_blank_hook
 000E:C02AF79C       printable
 000E:C02AF7A0       old.19967
 000E:C02AF7A2       oldy.19969
 000E:C02AF7A4       oldx.19968
 000E:C02AF7A8       kmsg_redirect
 000E:C02AF7AC       ignore_poke
 000E:C02AF7B0       scrollback_delta
 000E:C02AF7B4       vc0_cdev
 000E:C02AF7F0       do_poke_blanked_console
 000E:C02AF7F4       error.20472
 000E:C02AF7F8       last_console
 000E:C02AF7FC       con_buf
 000E:C02B07FC       funcbufleft
 000E:C02B0800       sysrq_always_enabled
 000E:C02B0804       devices_kset
 000E:C02B0808       virtual_dir.14019
 000E:C02B080C       sysfs_dev_char_kobj
 000E:C02B0810       platform_notify_remove
 000E:C02B0814       platform_notify
 000E:C02B0818       dev_kobj
 000E:C02B081C       sysfs_dev_block_kobj
 000E:C02B0820       system_kset
 000E:C02B0824       __warned.14402
 000E:C02B0828       __warned.14413
 000E:C02B082C       __warned.14518
 000E:C02B0830       __warned.14433
 000E:C02B0834       __warned.14456
 000E:C02B0838       __warned.14467
 000E:C02B083C       bus_kset
 000E:C02B0840       probe_count
 000E:C02B0844       class_kset
 000E:C02B0848       total_cpus
 000E:C02B084C       firmware_kobj
 000E:C02B0850       transition_started
 000E:C02B0851       __key.8558
 000E:C02B0854       part_shift
 000E:C02B0858       rd_nr
 000E:C02B085C       max_part
 000E:C02B0860       version_printed.21553
 000E:C02B0864       mtd_table
 000E:C02B08E4       proc_mtd
 000E:C02B08E8       cmdline
 000E:C02B08EC       cmdline_parsed
 000E:C02B08F0       partitions
 000E:C02B08F4       mtdblks
 000E:C02B0974       mtdblks_lock
 000E:C02B0980       serio_no.14665
 000E:C02B0984       serio_task
 000E:C02B0988       input_devices_state
 000E:C02B098C       input_table
 000E:C02B09AC       input_no.18319
 000E:C02B09B0       proc_bus_input_dir
 000E:C02B09B4       input_abs_bypass
 000E:C02B09BC       mousedev_mix
 000E:C02B09C0       mousedev_table
 000E:C02B0A40       psaux_registered
 000E:C02B0A44       atkbd_platform_fixup
 000E:C02B0A48       atkbd_platform_fixup_data
 000E:C02B0A4C       atkbd_softrepeat
 000E:C02B0A50       atkbd_scroll
 000E:C02B0A54       atkbd_extra
 000E:C02B0A58       kpsmoused_wq
 000E:C02B0A5C       psmouse_resync_time
 000E:C02B0A60       __i2c_first_dynamic_bus_num
 000E:C02B0A64       i2c_adapter_idr
 000E:C02B0A74       workqueue
 000E:C02B0A78       mmc_host_idr
 000E:C02B0A88       dev_use
 000E:C02B0A8C       hid_debug
 000E:C02B0A90       id.19539
 000E:C02B0A94       sound_class
 000E:C02B0A98       chains
 000E:C02B0AD8       sock_mnt
 000E:C02B0ADC       net_families
 000E:C02B0B70       br_ioctl_hook
 000E:C02B0B74       vlan_ioctl_hook
 000E:C02B0B78       dlci_ioctl_hook
 000E:C02B0B7C       sock_inode_cachep
 000E:C02B0B80       warned.30050
 000E:C02B0B84       warned.33147
 000E:C02B0B88       warncomm.33152
 000E:C02B0B98       warned.33151
 000E:C02B0B9C       proto_inuse_idx
 000E:C02B0BA4       skbuff_fclone_cache
 000E:C02B0BA8       skbuff_head_cache
 000E:C02B0BAC       est_root
 000E:C02B0BB0       elist
 000E:C02B0C70       init_net
 000E:C02B0E78       net_generic_ids
 000E:C02B0E8C       empty.27484
 000E:C02B0EB8       netstamp_needed
 000E:C02B0EBC       gifconf_list
 000E:C02B0F50       ptype_all
 000E:C02B0F58       ptype_base
 000E:C02B0FD8       dev_boot_setup
 000E:C02B10D8       netdev_chain
 000E:C02B10DC       skb_tx_hashrnd
 000E:C02B10E0       __warned.31549
 000E:C02B10E4       ifindex.32185
 000E:C02B10E8       dst_busy_list
 000E:C02B10EC       netevent_notif_chain
 000E:C02B10F0       neigh_tables
 000E:C02B10F4       rtnl_msg_handlers
 000E:C02B1188       rta_buf
 000E:C02B118C       rtattr_max
 000E:C02B1190       lweventlist
 000E:C02B1194       linkwatch_nextevent
 000E:C02B1198       linkwatch_flags
 000E:C02B119C       flow_hash_shift
 000E:C02B11A0       flow_cache_genid
 000E:C02B11A4       flow_hash_rnd_timer
 000E:C02B11BC       flow_cachep
 000E:C02B11C0       flow_lwm
 000E:C02B11C4       flow_hwm
 000E:C02B11C8       __warned.22467
 000E:C02B11CC       nl_table
 000E:C02B11D0       nl_table_users
 000E:C02B11D4       netlink_chain
 000E:C02B11D8       family_ht
 000E:C02B1258       genl_sock
 000E:C02B125C       id_gen_idx.27049
 000E:C02B1260       rt_hash_mask
 000E:C02B1264       rt_hash_table
 000E:C02B1268       rover.34293
 000E:C02B126C       expires_ljiffies
 000E:C02B1270       rt_hash_log
 000E:C02B1274       expires_work
 000E:C02B129C       last_gc.34380
 000E:C02B12A0       ip_rt_max_size
 000E:C02B12A4       equilibrium.34382
 000E:C02B12A8       rover.34381
 000E:C02B12AC       ip_fallback_id.34453
 000E:C02B12B0       empty
 000E:C02B12DC       peer_cachep
 000E:C02B12E0       peer_total
 000E:C02B12E4       inet_protos
 000E:C02B16E4       ip4_frags
 000E:C02B1820       zero_3
 000E:C02B1824       ip_ra_chain
 000E:C02B1828       ip_ra_lock
 000E:C02B1830       tcp_memory_allocated
 000E:C02B1834       sysctl_tcp_mem
 000E:C02B1840       tcp_memory_pressure
 000E:C02B1848       tcp_sockets_allocated
 000E:C02B1850       tcp_orphan_count
 000E:C02B1858       sysctl_tcp_wmem
 000E:C02B1864       sysctl_tcp_rmem
 000E:C02B1870       sysctl_tcp_stdurg
 000E:C02B1874       sysctl_tcp_nometrics_save
 000E:C02B1878       sysctl_tcp_abc
 000E:C02B187C       sysctl_tcp_frto_response
 000E:C02B1880       sysctl_tcp_rfc1337
 000E:C02B1884       sysctl_tcp_workaround_signed_windows
 000E:C02B1888       sysctl_tcp_mtu_probing
 000E:C02B188C       sysctl_tcp_orphan_retries
 000E:C02B1890       tcp_hashinfo
 000E:C02B1930       sysctl_tcp_tw_reuse
 000E:C02B1934       sysctl_tcp_low_latency
 000E:C02B1938       sysctl_tcp_abort_on_overflow
 000E:C02B193C       sysctl_tcp_syncookies
 000E:C02B1940       sysctl_tcp_max_ssthresh
 000E:C02B1944       complained.31353
 000E:C02B1948       raw_v4_hashinfo
 000E:C02B1D48       udp_table
 000E:C02B2148       sysctl_udp_mem
 000E:C02B2154       sysctl_udp_rmem_min
 000E:C02B2158       sysctl_udp_wmem_min
 000E:C02B215C       udp_memory_allocated
 000E:C02B2160       udplite_table
 000E:C02B2560       inet_ehash_secret
 000E:C02B2564       inetsw
 000E:C02B25BC       sysctl_ip_nonlocal_bind
 000E:C02B25C0       sysctl_ip_dynaddr
 000E:C02B25C4       ipv4_config
 000E:C02B25CC       fib_info_cnt
 000E:C02B25D0       fib_info_devhash
 000E:C02B29D0       fib_hash_size
 000E:C02B29D4       fib_info_hash
 000E:C02B29D8       fib_info_laddrhash
 000E:C02B29DC       zero_4
 000E:C02B29E0       fib_hash_genid
 000E:C02B29E4       fn_alias_kmem
 000E:C02B29E8       fn_hash_kmem
 000E:C02B29EC       ic_proto_used
 000E:C02B29F0       ic_domain
 000E:C02B2A30       ic_nameservers
 000E:C02B2A3C       ic_dev_xid
 000E:C02B2A40       root_server_path
 000E:C02B2B40       beta_scale
 000E:C02B2B44       cube_rtt_scale
 000E:C02B2B48       cube_factor
 000E:C02B2B50       initial_ssthresh
 000E:C02B2B54       xfrm_policy_afinfo
 000E:C02B2BE8       xfrm_dst_cache
 000E:C02B2BEC       xfrm_policy_gc_list
 000E:C02B2BF0       idx_generator.30905
 000E:C02B2BF4       dummy.31491
 000E:C02B2C14       xfrm_state_afinfo
 000E:C02B2CA8       acqseq.31248
 000E:C02B2CAC       xfrm_state_genid
 000E:C02B2CB0       secpath_cachep
 000E:C02B2CB4       unix_nr_socks
 000E:C02B2CB8       unix_socket_table
 000E:C02B30BC       unix_tot_inflight
 000E:C02B30C0       gc_in_progress
 000E:C02B30C1       __key.28332
 000E:C02B30C4       clntid.19716
 000E:C02B30C8       sunrpc_table_header
 000E:C02B30CC       rpc_buffer_mempool
 000E:C02B30D0       rpc_pid.19119
 000E:C02B30D4       rpciod_workqueue
 000E:C02B30D8       delay_queue
 000E:C02B3124       rpc_task_mempool
 000E:C02B3128       rpc_task_slabp
 000E:C02B312C       rpc_buffer_slabp
 000E:C02B3130       rpc_credcache_lock
 000E:C02B3134       unix_cred_cache
 000E:C02B3174       generic_cred_cache
 000E:C02B31B4       svc_pool_map
 000E:C02B31C8       auth_domain_table
 000E:C02B32C8       gid_table
 000E:C02B36C8       ip_table
 000E:C02B3AC8       map.29880
 000E:C02B3ACC       rpcb_stats
 000E:C02B3AF4       cache_defer_hash
 000E:C02B4AF4       cache_defer_cnt
 000E:C02B4AF8       current_detail
 000E:C02B4AFC       current_index
 000E:C02B4B00       write_buf
 000E:C02B6B00       rpc_inode_cachep
 000E:C02B6B04       rpc_mount
 000E:C02B6B08       rpc_mount_count
 000E:C02B6B0C       proc_net_rpc
 000E:C02B6B10       sunrpc_table_header_0
 000E:C02B6B14       nlm_debug
 000E:C02B6B18       nfsd_debug
 000E:C02B6B1C       nfs_debug
 000E:C02B6B20       rpc_debug
 000F:C02B6B24       _end
 0000:00000424 Abs   stubs_offset
 0000:00000170 Abs   NR_syscalls
 0000:00000003 Abs   syscalls_padding
 0000:C0004000 Abs   swapper_pg_dir
 0000:C029AFA0 Abs   _edata_loc

Program entry point at 0004:00000000
